ARM GAS  D:\Windows\AppData\Local\Temp\ccra4Zt2.s 			page 1


   1              		.syntax unified
   2              		.cpu cortex-m3
   3              		.fpu softvfp
   4              		.eabi_attribute 20, 1
   5              		.eabi_attribute 21, 1
   6              		.eabi_attribute 23, 3
   7              		.eabi_attribute 24, 1
   8              		.eabi_attribute 25, 1
   9              		.eabi_attribute 26, 1
  10              		.eabi_attribute 30, 6
  11              		.eabi_attribute 34, 1
  12              		.eabi_attribute 18, 4
  13              		.thumb
  14              		.file	"can_manager.c"
  15              		.text
  16              	.Ltext0:
  17              		.cfi_sections	.debug_frame
  18              		.comm	DASH,16,4
  19              		.comm	CURTIS_DEBUG,16,4
  20              		.comm	CURTIS_STATUS,16,4
  21              		.comm	CURTIS_RCVACK,16,4
  22              		.comm	CURTIS_RCV,16,4
  23              		.comm	CURTIS_VOLTAGE,16,4
  24              		.comm	THROTTLE,16,4
  25              		.comm	BRAKE,16,4
  26              		.section	.text.can_init,"ax",%progbits
  27              		.align	2
  28              		.global	can_init
  29              		.thumb
  30              		.thumb_func
  31              		.type	can_init, %function
  32              	can_init:
  33              	.LFB63:
  34              		.file 1 "can_manager.c"
   1:can_manager.c **** #include "can_manager.h"
   2:can_manager.c **** 
   3:can_manager.c **** #define DASH_ID				0x626
   4:can_manager.c **** #define CURTIS_DEBUG_ID		0x466
   5:can_manager.c **** #define CURTIS_STATUS_ID	0x566
   6:can_manager.c **** #define CURTIS_RCVACK_ID	0x666
   7:can_manager.c **** #define CURTIS_RCV_ID		0x766
   8:can_manager.c **** #define CURTIS_VOLTAGE_ID	0x866
   9:can_manager.c **** #define THROTTLE_ID			0x200
  10:can_manager.c **** #define BRAKE_ID			0x201
  11:can_manager.c **** 
  12:can_manager.c **** DataPacket DASH;			//0x0626
  13:can_manager.c **** DataPacket CURTIS_DEBUG;	//0x466
  14:can_manager.c **** DataPacket CURTIS_STATUS;	//0x566
  15:can_manager.c **** DataPacket CURTIS_RCVACK;	//0x666
  16:can_manager.c **** DataPacket CURTIS_RCV;		//0x766
  17:can_manager.c **** DataPacket CURTIS_VOLTAGE;	//0x866
  18:can_manager.c **** DataPacket THROTTLE;		//0x200
  19:can_manager.c **** DataPacket BRAKE;			//0x201
  20:can_manager.c **** 
  21:can_manager.c **** 
  22:can_manager.c **** void can_init() {
  35              		.loc 1 22 0
ARM GAS  D:\Windows\AppData\Local\Temp\ccra4Zt2.s 			page 2


  36              		.cfi_startproc
  37              		@ args = 0, pretend = 0, frame = 0
  38              		@ frame_needed = 1, uses_anonymous_args = 0
  39 0000 80B5     		push	{r7, lr}
  40              		.cfi_def_cfa_offset 8
  41              		.cfi_offset 7, -8
  42              		.cfi_offset 14, -4
  43 0002 00AF     		add	r7, sp, #0
  44              		.cfi_def_cfa_register 7
  23:can_manager.c **** 	CAN_1_GlobalIntEnable(); // CAN Initialization
  45              		.loc 1 23 0
  46 0004 FFF7FEFF 		bl	CAN_1_GlobalIntEnable
  24:can_manager.c **** 	CAN_1_Init();
  47              		.loc 1 24 0
  48 0008 FFF7FEFF 		bl	CAN_1_Init
  25:can_manager.c **** 	CAN_1_Start();
  49              		.loc 1 25 0
  50 000c FFF7FEFF 		bl	CAN_1_Start
  26:can_manager.c **** 	
  27:can_manager.c **** 	//initialize all the can messages 
  28:can_manager.c **** 	can_msg_init(&DASH, DASH_ID);
  51              		.loc 1 28 0
  52 0010 1148     		ldr	r0, .L2
  53 0012 40F22661 		movw	r1, #1574
  54 0016 FFF7FEFF 		bl	can_msg_init
  29:can_manager.c **** 	can_msg_init(&CURTIS_DEBUG, CURTIS_DEBUG_ID);
  55              		.loc 1 29 0
  56 001a 1048     		ldr	r0, .L2+4
  57 001c 40F26641 		movw	r1, #1126
  58 0020 FFF7FEFF 		bl	can_msg_init
  30:can_manager.c **** 	can_msg_init(&CURTIS_STATUS, CURTIS_STATUS_ID);
  59              		.loc 1 30 0
  60 0024 0E48     		ldr	r0, .L2+8
  61 0026 40F26651 		movw	r1, #1382
  62 002a FFF7FEFF 		bl	can_msg_init
  31:can_manager.c **** 	can_msg_init(&CURTIS_RCV, CURTIS_RCVACK_ID);
  63              		.loc 1 31 0
  64 002e 0D48     		ldr	r0, .L2+12
  65 0030 40F26661 		movw	r1, #1638
  66 0034 FFF7FEFF 		bl	can_msg_init
  32:can_manager.c **** 	can_msg_init(&CURTIS_VOLTAGE, CURTIS_VOLTAGE_ID);
  67              		.loc 1 32 0
  68 0038 0B48     		ldr	r0, .L2+16
  69 003a 40F66601 		movw	r1, #2150
  70 003e FFF7FEFF 		bl	can_msg_init
  33:can_manager.c **** 	can_msg_init(&THROTTLE, THROTTLE_ID);
  71              		.loc 1 33 0
  72 0042 0A48     		ldr	r0, .L2+20
  73 0044 4FF40071 		mov	r1, #512
  74 0048 FFF7FEFF 		bl	can_msg_init
  34:can_manager.c **** 	can_msg_init(&BRAKE, BRAKE_ID);
  75              		.loc 1 34 0
  76 004c 0848     		ldr	r0, .L2+24
  77 004e 40F20121 		movw	r1, #513
  78 0052 FFF7FEFF 		bl	can_msg_init
  35:can_manager.c **** } // can_init()
  79              		.loc 1 35 0
ARM GAS  D:\Windows\AppData\Local\Temp\ccra4Zt2.s 			page 3


  80 0056 80BD     		pop	{r7, pc}
  81              	.L3:
  82              		.align	2
  83              	.L2:
  84 0058 00000000 		.word	DASH
  85 005c 00000000 		.word	CURTIS_DEBUG
  86 0060 00000000 		.word	CURTIS_STATUS
  87 0064 00000000 		.word	CURTIS_RCV
  88 0068 00000000 		.word	CURTIS_VOLTAGE
  89 006c 00000000 		.word	THROTTLE
  90 0070 00000000 		.word	BRAKE
  91              		.cfi_endproc
  92              	.LFE63:
  93              		.size	can_init, .-can_init
  94              		.section	.text.can_msg_init,"ax",%progbits
  95              		.align	2
  96              		.global	can_msg_init
  97              		.thumb
  98              		.thumb_func
  99              		.type	can_msg_init, %function
 100              	can_msg_init:
 101              	.LFB64:
  36:can_manager.c **** 
  37:can_manager.c **** 
  38:can_manager.c **** //initalize CAN message variables with FF's everywhere
  39:can_manager.c **** void can_msg_init(DataPacket* can_msg, uint16_t id) {
 102              		.loc 1 39 0
 103              		.cfi_startproc
 104              		@ args = 0, pretend = 0, frame = 16
 105              		@ frame_needed = 1, uses_anonymous_args = 0
 106              		@ link register save eliminated.
 107 0000 80B4     		push	{r7}
 108              		.cfi_def_cfa_offset 4
 109              		.cfi_offset 7, -4
 110 0002 85B0     		sub	sp, sp, #20
 111              		.cfi_def_cfa_offset 24
 112 0004 00AF     		add	r7, sp, #0
 113              		.cfi_def_cfa_register 7
 114 0006 7860     		str	r0, [r7, #4]
 115 0008 0B46     		mov	r3, r1
 116 000a 7B80     		strh	r3, [r7, #2]	@ movhi
  40:can_manager.c **** 	uint8_t i;
  41:can_manager.c **** 	can_msg->id = id;
 117              		.loc 1 41 0
 118 000c 7B68     		ldr	r3, [r7, #4]
 119 000e 7A88     		ldrh	r2, [r7, #2]	@ movhi
 120 0010 9A80     		strh	r2, [r3, #4]	@ movhi
  42:can_manager.c **** 	can_msg->length = 8;
 121              		.loc 1 42 0
 122 0012 7B68     		ldr	r3, [r7, #4]
 123 0014 0822     		movs	r2, #8
 124 0016 9A71     		strb	r2, [r3, #6]
  43:can_manager.c **** 	can_msg->millicounter = 0;
 125              		.loc 1 43 0
 126 0018 7B68     		ldr	r3, [r7, #4]
 127 001a 0022     		movs	r2, #0
 128 001c 1A60     		str	r2, [r3]
ARM GAS  D:\Windows\AppData\Local\Temp\ccra4Zt2.s 			page 4


  44:can_manager.c **** 	for(i=0; i<can_msg->length; i++) {
 129              		.loc 1 44 0
 130 001e 0023     		movs	r3, #0
 131 0020 FB73     		strb	r3, [r7, #15]
 132 0022 07E0     		b	.L5
 133              	.L6:
  45:can_manager.c **** 		can_msg->data[i] = 0xFF;
 134              		.loc 1 45 0 discriminator 3
 135 0024 FB7B     		ldrb	r3, [r7, #15]	@ zero_extendqisi2
 136 0026 7A68     		ldr	r2, [r7, #4]
 137 0028 1344     		add	r3, r3, r2
 138 002a FF22     		movs	r2, #255
 139 002c DA71     		strb	r2, [r3, #7]
  44:can_manager.c **** 	for(i=0; i<can_msg->length; i++) {
 140              		.loc 1 44 0 discriminator 3
 141 002e FB7B     		ldrb	r3, [r7, #15]	@ zero_extendqisi2
 142 0030 0133     		adds	r3, r3, #1
 143 0032 FB73     		strb	r3, [r7, #15]
 144              	.L5:
  44:can_manager.c **** 	for(i=0; i<can_msg->length; i++) {
 145              		.loc 1 44 0 is_stmt 0 discriminator 1
 146 0034 7B68     		ldr	r3, [r7, #4]
 147 0036 9B79     		ldrb	r3, [r3, #6]	@ zero_extendqisi2
 148 0038 FA7B     		ldrb	r2, [r7, #15]	@ zero_extendqisi2
 149 003a 9A42     		cmp	r2, r3
 150 003c F2D3     		bcc	.L6
  46:can_manager.c **** 	}
  47:can_manager.c **** 	
  48:can_manager.c **** } //can_msg_init()
 151              		.loc 1 48 0 is_stmt 1
 152 003e 1437     		adds	r7, r7, #20
 153              		.cfi_def_cfa_offset 4
 154 0040 BD46     		mov	sp, r7
 155              		.cfi_def_cfa_register 13
 156              		@ sp needed
 157 0042 5DF8047B 		ldr	r7, [sp], #4
 158              		.cfi_restore 7
 159              		.cfi_def_cfa_offset 0
 160 0046 7047     		bx	lr
 161              		.cfi_endproc
 162              	.LFE64:
 163              		.size	can_msg_init, .-can_msg_init
 164              		.section	.text.can_process,"ax",%progbits
 165              		.align	2
 166              		.global	can_process
 167              		.thumb
 168              		.thumb_func
 169              		.type	can_process, %function
 170              	can_process:
 171              	.LFB65:
  49:can_manager.c **** 
  50:can_manager.c **** /*  recieves can message from bus can compares it with is respective id*/
  51:can_manager.c **** int can_process(DataPacket* can_msg){
 172              		.loc 1 51 0
 173              		.cfi_startproc
 174              		@ args = 0, pretend = 0, frame = 16
 175              		@ frame_needed = 1, uses_anonymous_args = 0
ARM GAS  D:\Windows\AppData\Local\Temp\ccra4Zt2.s 			page 5


 176 0000 80B5     		push	{r7, lr}
 177              		.cfi_def_cfa_offset 8
 178              		.cfi_offset 7, -8
 179              		.cfi_offset 14, -4
 180 0002 84B0     		sub	sp, sp, #16
 181              		.cfi_def_cfa_offset 24
 182 0004 00AF     		add	r7, sp, #0
 183              		.cfi_def_cfa_register 7
 184 0006 7860     		str	r0, [r7, #4]
  52:can_manager.c **** 	int status = 0;		//returns 1 if message is updated
 185              		.loc 1 52 0
 186 0008 0023     		movs	r3, #0
 187 000a FB60     		str	r3, [r7, #12]
  53:can_manager.c ****     switch (can_msg->id) {
 188              		.loc 1 53 0
 189 000c 7B68     		ldr	r3, [r7, #4]
 190 000e 9B88     		ldrh	r3, [r3, #4]
 191 0010 40F26652 		movw	r2, #1382
 192 0014 9342     		cmp	r3, r2
 193 0016 31D0     		beq	.L9
 194 0018 40F26652 		movw	r2, #1382
 195 001c 9342     		cmp	r3, r2
 196 001e 0BDC     		bgt	.L10
 197 0020 40F20122 		movw	r2, #513
 198 0024 9342     		cmp	r3, r2
 199 0026 47D0     		beq	.L11
 200 0028 40F26642 		movw	r2, #1126
 201 002c 9342     		cmp	r3, r2
 202 002e 1FD0     		beq	.L12
 203 0030 B3F5007F 		cmp	r3, #512
 204 0034 3AD0     		beq	.L13
 205 0036 45E0     		b	.L8
 206              	.L10:
 207 0038 40F26662 		movw	r2, #1638
 208 003c 9342     		cmp	r3, r2
 209 003e 23D0     		beq	.L14
 210 0040 40F26662 		movw	r2, #1638
 211 0044 9342     		cmp	r3, r2
 212 0046 04DC     		bgt	.L15
 213 0048 40F22662 		movw	r2, #1574
 214 004c 9342     		cmp	r3, r2
 215 004e 09D0     		beq	.L16
 216 0050 38E0     		b	.L8
 217              	.L15:
 218 0052 40F26672 		movw	r2, #1894
 219 0056 9342     		cmp	r3, r2
 220 0058 1CD0     		beq	.L17
 221 005a 40F66602 		movw	r2, #2150
 222 005e 9342     		cmp	r3, r2
 223 0060 1ED0     		beq	.L18
 224 0062 2FE0     		b	.L8
 225              	.L16:
  54:can_manager.c **** 	case DASH_ID:			//0x626	
  55:can_manager.c **** 		status = can_compare(&DASH, can_msg);	break;
 226              		.loc 1 55 0
 227 0064 1B48     		ldr	r0, .L21
 228 0066 7968     		ldr	r1, [r7, #4]
ARM GAS  D:\Windows\AppData\Local\Temp\ccra4Zt2.s 			page 6


 229 0068 FFF7FEFF 		bl	can_compare
 230 006c F860     		str	r0, [r7, #12]
 231 006e 2CE0     		b	.L19
 232              	.L12:
  56:can_manager.c **** 	case CURTIS_DEBUG_ID:	//0x466
  57:can_manager.c **** 		status = can_compare(&CURTIS_DEBUG, can_msg);	break;
 233              		.loc 1 57 0
 234 0070 1948     		ldr	r0, .L21+4
 235 0072 7968     		ldr	r1, [r7, #4]
 236 0074 FFF7FEFF 		bl	can_compare
 237 0078 F860     		str	r0, [r7, #12]
 238 007a 26E0     		b	.L19
 239              	.L9:
  58:can_manager.c **** 	case CURTIS_STATUS_ID:	//0x566
  59:can_manager.c **** 		status = can_compare(&CURTIS_STATUS, can_msg);	break;
 240              		.loc 1 59 0
 241 007c 1748     		ldr	r0, .L21+8
 242 007e 7968     		ldr	r1, [r7, #4]
 243 0080 FFF7FEFF 		bl	can_compare
 244 0084 F860     		str	r0, [r7, #12]
 245 0086 20E0     		b	.L19
 246              	.L14:
  60:can_manager.c **** 	case CURTIS_RCVACK_ID:	//0x666
  61:can_manager.c **** 		status = can_compare(&CURTIS_RCVACK, can_msg);	break;
 247              		.loc 1 61 0
 248 0088 1548     		ldr	r0, .L21+12
 249 008a 7968     		ldr	r1, [r7, #4]
 250 008c FFF7FEFF 		bl	can_compare
 251 0090 F860     		str	r0, [r7, #12]
 252 0092 1AE0     		b	.L19
 253              	.L17:
  62:can_manager.c **** 	case CURTIS_RCV_ID:		//0x766
  63:can_manager.c **** 		status = can_compare(&CURTIS_RCV, can_msg);	break;
 254              		.loc 1 63 0
 255 0094 1348     		ldr	r0, .L21+16
 256 0096 7968     		ldr	r1, [r7, #4]
 257 0098 FFF7FEFF 		bl	can_compare
 258 009c F860     		str	r0, [r7, #12]
 259 009e 14E0     		b	.L19
 260              	.L18:
  64:can_manager.c **** 	case CURTIS_VOLTAGE_ID:	//0x866
  65:can_manager.c **** 		status = can_compare(&CURTIS_VOLTAGE, can_msg);	break;
 261              		.loc 1 65 0
 262 00a0 1148     		ldr	r0, .L21+20
 263 00a2 7968     		ldr	r1, [r7, #4]
 264 00a4 FFF7FEFF 		bl	can_compare
 265 00a8 F860     		str	r0, [r7, #12]
 266 00aa 0EE0     		b	.L19
 267              	.L13:
  66:can_manager.c **** 	case THROTTLE_ID:		//0x200
  67:can_manager.c **** 		status = can_compare(&THROTTLE, can_msg);	break;
 268              		.loc 1 67 0
 269 00ac 0F48     		ldr	r0, .L21+24
 270 00ae 7968     		ldr	r1, [r7, #4]
 271 00b0 FFF7FEFF 		bl	can_compare
 272 00b4 F860     		str	r0, [r7, #12]
 273 00b6 08E0     		b	.L19
ARM GAS  D:\Windows\AppData\Local\Temp\ccra4Zt2.s 			page 7


 274              	.L11:
  68:can_manager.c **** 	case BRAKE_ID:			//0x201
  69:can_manager.c **** 		status = can_compare(&THROTTLE, can_msg);	break;
 275              		.loc 1 69 0
 276 00b8 0C48     		ldr	r0, .L21+24
 277 00ba 7968     		ldr	r1, [r7, #4]
 278 00bc FFF7FEFF 		bl	can_compare
 279 00c0 F860     		str	r0, [r7, #12]
 280 00c2 02E0     		b	.L19
 281              	.L8:
  70:can_manager.c ****     default:
  71:can_manager.c **** 		status = 1;
 282              		.loc 1 71 0
 283 00c4 0123     		movs	r3, #1
 284 00c6 FB60     		str	r3, [r7, #12]
  72:can_manager.c ****         break;
 285              		.loc 1 72 0
 286 00c8 00BF     		nop
 287              	.L19:
  73:can_manager.c ****     }
  74:can_manager.c **** 	return status;
 288              		.loc 1 74 0
 289 00ca FB68     		ldr	r3, [r7, #12]
  75:can_manager.c **** }
 290              		.loc 1 75 0
 291 00cc 1846     		mov	r0, r3
 292 00ce 1037     		adds	r7, r7, #16
 293              		.cfi_def_cfa_offset 8
 294 00d0 BD46     		mov	sp, r7
 295              		.cfi_def_cfa_register 13
 296              		@ sp needed
 297 00d2 80BD     		pop	{r7, pc}
 298              	.L22:
 299              		.align	2
 300              	.L21:
 301 00d4 00000000 		.word	DASH
 302 00d8 00000000 		.word	CURTIS_DEBUG
 303 00dc 00000000 		.word	CURTIS_STATUS
 304 00e0 00000000 		.word	CURTIS_RCVACK
 305 00e4 00000000 		.word	CURTIS_RCV
 306 00e8 00000000 		.word	CURTIS_VOLTAGE
 307 00ec 00000000 		.word	THROTTLE
 308              		.cfi_endproc
 309              	.LFE65:
 310              		.size	can_process, .-can_process
 311              		.section	.text.can_compare,"ax",%progbits
 312              		.align	2
 313              		.global	can_compare
 314              		.thumb
 315              		.thumb_func
 316              		.type	can_compare, %function
 317              	can_compare:
 318              	.LFB66:
  76:can_manager.c **** 
  77:can_manager.c **** /*	compares received can message with the latest can message of the same id.
  78:can_manager.c **** 	if it is different, it will add update that DataPacket variable and add it to the can buffer	
  79:can_manager.c **** 	returns: 1 if message was updated, 0 if message same as before */
ARM GAS  D:\Windows\AppData\Local\Temp\ccra4Zt2.s 			page 8


  80:can_manager.c **** int can_compare(DataPacket* prev_msg, DataPacket* new_msg) {
 319              		.loc 1 80 0
 320              		.cfi_startproc
 321              		@ args = 0, pretend = 0, frame = 32
 322              		@ frame_needed = 1, uses_anonymous_args = 0
 323              		@ link register save eliminated.
 324 0000 80B4     		push	{r7}
 325              		.cfi_def_cfa_offset 4
 326              		.cfi_offset 7, -4
 327 0002 89B0     		sub	sp, sp, #36
 328              		.cfi_def_cfa_offset 40
 329 0004 00AF     		add	r7, sp, #0
 330              		.cfi_def_cfa_register 7
 331 0006 7860     		str	r0, [r7, #4]
 332 0008 3960     		str	r1, [r7]
  81:can_manager.c **** 	uint8_t i, j;
  82:can_manager.c **** 	uint8_t offset = 0;
 333              		.loc 1 82 0
 334 000a 0023     		movs	r3, #0
 335 000c 7B77     		strb	r3, [r7, #29]
  83:can_manager.c **** 	DataPacket temp;
  84:can_manager.c ****  
  85:can_manager.c **** 	temp.id = new_msg->id;
 336              		.loc 1 85 0
 337 000e 3B68     		ldr	r3, [r7]
 338 0010 9B88     		ldrh	r3, [r3, #4]
 339 0012 3B82     		strh	r3, [r7, #16]	@ movhi
  86:can_manager.c **** 	temp.length = new_msg->length;
 340              		.loc 1 86 0
 341 0014 3B68     		ldr	r3, [r7]
 342 0016 9B79     		ldrb	r3, [r3, #6]	@ zero_extendqisi2
 343 0018 BB74     		strb	r3, [r7, #18]
  87:can_manager.c **** 	temp.millicounter = new_msg->millicounter;
 344              		.loc 1 87 0
 345 001a 3B68     		ldr	r3, [r7]
 346 001c 1B68     		ldr	r3, [r3]
 347 001e FB60     		str	r3, [r7, #12]
  88:can_manager.c **** 	for(i=0; i<temp.length; i++) {
 348              		.loc 1 88 0
 349 0020 0023     		movs	r3, #0
 350 0022 FB77     		strb	r3, [r7, #31]
 351 0024 0CE0     		b	.L24
 352              	.L25:
  89:can_manager.c **** 		temp.data[i] = new_msg->data[i];
 353              		.loc 1 89 0 discriminator 3
 354 0026 FB7F     		ldrb	r3, [r7, #31]	@ zero_extendqisi2
 355 0028 FA7F     		ldrb	r2, [r7, #31]	@ zero_extendqisi2
 356 002a 3968     		ldr	r1, [r7]
 357 002c 0A44     		add	r2, r2, r1
 358 002e D279     		ldrb	r2, [r2, #7]	@ zero_extendqisi2
 359 0030 07F12001 		add	r1, r7, #32
 360 0034 0B44     		add	r3, r3, r1
 361 0036 03F80D2C 		strb	r2, [r3, #-13]
  88:can_manager.c **** 	for(i=0; i<temp.length; i++) {
 362              		.loc 1 88 0 discriminator 3
 363 003a FB7F     		ldrb	r3, [r7, #31]	@ zero_extendqisi2
 364 003c 0133     		adds	r3, r3, #1
ARM GAS  D:\Windows\AppData\Local\Temp\ccra4Zt2.s 			page 9


 365 003e FB77     		strb	r3, [r7, #31]
 366              	.L24:
  88:can_manager.c **** 	for(i=0; i<temp.length; i++) {
 367              		.loc 1 88 0 is_stmt 0 discriminator 1
 368 0040 BB7C     		ldrb	r3, [r7, #18]	@ zero_extendqisi2
 369 0042 FA7F     		ldrb	r2, [r7, #31]	@ zero_extendqisi2
 370 0044 9A42     		cmp	r2, r3
 371 0046 EED3     		bcc	.L25
  90:can_manager.c **** 	}
  91:can_manager.c **** 	
  92:can_manager.c **** 	//bytes received in little endian so have to reverse to big endian 32bits
  93:can_manager.c **** 	for(i=0; i<(new_msg->length/2); i++) {		//swap bytes 0-3
 372              		.loc 1 93 0 is_stmt 1
 373 0048 0023     		movs	r3, #0
 374 004a FB77     		strb	r3, [r7, #31]
 375 004c 16E0     		b	.L26
 376              	.L27:
  94:can_manager.c **** 		new_msg->data[i+offset] = temp.data[offset + temp.length/2 - i - 1];
 377              		.loc 1 94 0 discriminator 3
 378 004e FA7F     		ldrb	r2, [r7, #31]	@ zero_extendqisi2
 379 0050 7B7F     		ldrb	r3, [r7, #29]	@ zero_extendqisi2
 380 0052 1344     		add	r3, r3, r2
 381 0054 7A7F     		ldrb	r2, [r7, #29]	@ zero_extendqisi2
 382 0056 B97C     		ldrb	r1, [r7, #18]	@ zero_extendqisi2
 383 0058 4908     		lsrs	r1, r1, #1
 384 005a C9B2     		uxtb	r1, r1
 385 005c 1144     		add	r1, r1, r2
 386 005e FA7F     		ldrb	r2, [r7, #31]	@ zero_extendqisi2
 387 0060 8A1A     		subs	r2, r1, r2
 388 0062 013A     		subs	r2, r2, #1
 389 0064 07F12001 		add	r1, r7, #32
 390 0068 0A44     		add	r2, r2, r1
 391 006a 12F80D1C 		ldrb	r1, [r2, #-13]	@ zero_extendqisi2
 392 006e 3A68     		ldr	r2, [r7]
 393 0070 1344     		add	r3, r3, r2
 394 0072 0A46     		mov	r2, r1
 395 0074 DA71     		strb	r2, [r3, #7]
  93:can_manager.c **** 		new_msg->data[i+offset] = temp.data[offset + temp.length/2 - i - 1];
 396              		.loc 1 93 0 discriminator 3
 397 0076 FB7F     		ldrb	r3, [r7, #31]	@ zero_extendqisi2
 398 0078 0133     		adds	r3, r3, #1
 399 007a FB77     		strb	r3, [r7, #31]
 400              	.L26:
  93:can_manager.c **** 		new_msg->data[i+offset] = temp.data[offset + temp.length/2 - i - 1];
 401              		.loc 1 93 0 is_stmt 0 discriminator 1
 402 007c 3B68     		ldr	r3, [r7]
 403 007e 9B79     		ldrb	r3, [r3, #6]	@ zero_extendqisi2
 404 0080 5B08     		lsrs	r3, r3, #1
 405 0082 DBB2     		uxtb	r3, r3
 406 0084 FA7F     		ldrb	r2, [r7, #31]	@ zero_extendqisi2
 407 0086 9A42     		cmp	r2, r3
 408 0088 E1D3     		bcc	.L27
  95:can_manager.c **** 	}//for
  96:can_manager.c **** 	offset = 4;
 409              		.loc 1 96 0 is_stmt 1
 410 008a 0423     		movs	r3, #4
 411 008c 7B77     		strb	r3, [r7, #29]
ARM GAS  D:\Windows\AppData\Local\Temp\ccra4Zt2.s 			page 10


  97:can_manager.c **** 	for(i=0; i<(new_msg->length/2); i++) {		//swap bytes 4-7
 412              		.loc 1 97 0
 413 008e 0023     		movs	r3, #0
 414 0090 FB77     		strb	r3, [r7, #31]
 415 0092 16E0     		b	.L28
 416              	.L29:
  98:can_manager.c **** 		new_msg->data[i+offset] = temp.data[offset + temp.length/2 - i - 1];
 417              		.loc 1 98 0 discriminator 3
 418 0094 FA7F     		ldrb	r2, [r7, #31]	@ zero_extendqisi2
 419 0096 7B7F     		ldrb	r3, [r7, #29]	@ zero_extendqisi2
 420 0098 1344     		add	r3, r3, r2
 421 009a 7A7F     		ldrb	r2, [r7, #29]	@ zero_extendqisi2
 422 009c B97C     		ldrb	r1, [r7, #18]	@ zero_extendqisi2
 423 009e 4908     		lsrs	r1, r1, #1
 424 00a0 C9B2     		uxtb	r1, r1
 425 00a2 1144     		add	r1, r1, r2
 426 00a4 FA7F     		ldrb	r2, [r7, #31]	@ zero_extendqisi2
 427 00a6 8A1A     		subs	r2, r1, r2
 428 00a8 013A     		subs	r2, r2, #1
 429 00aa 07F12001 		add	r1, r7, #32
 430 00ae 0A44     		add	r2, r2, r1
 431 00b0 12F80D1C 		ldrb	r1, [r2, #-13]	@ zero_extendqisi2
 432 00b4 3A68     		ldr	r2, [r7]
 433 00b6 1344     		add	r3, r3, r2
 434 00b8 0A46     		mov	r2, r1
 435 00ba DA71     		strb	r2, [r3, #7]
  97:can_manager.c **** 	for(i=0; i<(new_msg->length/2); i++) {		//swap bytes 4-7
 436              		.loc 1 97 0 discriminator 3
 437 00bc FB7F     		ldrb	r3, [r7, #31]	@ zero_extendqisi2
 438 00be 0133     		adds	r3, r3, #1
 439 00c0 FB77     		strb	r3, [r7, #31]
 440              	.L28:
  97:can_manager.c **** 	for(i=0; i<(new_msg->length/2); i++) {		//swap bytes 4-7
 441              		.loc 1 97 0 is_stmt 0 discriminator 1
 442 00c2 3B68     		ldr	r3, [r7]
 443 00c4 9B79     		ldrb	r3, [r3, #6]	@ zero_extendqisi2
 444 00c6 5B08     		lsrs	r3, r3, #1
 445 00c8 DBB2     		uxtb	r3, r3
 446 00ca FA7F     		ldrb	r2, [r7, #31]	@ zero_extendqisi2
 447 00cc 9A42     		cmp	r2, r3
 448 00ce E1D3     		bcc	.L29
  99:can_manager.c **** 	}//for
 100:can_manager.c **** 	
 101:can_manager.c **** 	for(i=0; i<new_msg->length; i++) {					//compare all 8 data bytes
 449              		.loc 1 101 0 is_stmt 1
 450 00d0 0023     		movs	r3, #0
 451 00d2 FB77     		strb	r3, [r7, #31]
 452 00d4 2EE0     		b	.L30
 453              	.L35:
 102:can_manager.c **** 		if(prev_msg->data[i] != new_msg->data[i]) {		//update it if data[] has changed
 454              		.loc 1 102 0
 455 00d6 FB7F     		ldrb	r3, [r7, #31]	@ zero_extendqisi2
 456 00d8 7A68     		ldr	r2, [r7, #4]
 457 00da 1344     		add	r3, r3, r2
 458 00dc DA79     		ldrb	r2, [r3, #7]	@ zero_extendqisi2
 459 00de FB7F     		ldrb	r3, [r7, #31]	@ zero_extendqisi2
 460 00e0 3968     		ldr	r1, [r7]
ARM GAS  D:\Windows\AppData\Local\Temp\ccra4Zt2.s 			page 11


 461 00e2 0B44     		add	r3, r3, r1
 462 00e4 DB79     		ldrb	r3, [r3, #7]	@ zero_extendqisi2
 463 00e6 9A42     		cmp	r2, r3
 464 00e8 21D0     		beq	.L31
 103:can_manager.c **** 			prev_msg->id = new_msg->id;
 465              		.loc 1 103 0
 466 00ea 3B68     		ldr	r3, [r7]
 467 00ec 9A88     		ldrh	r2, [r3, #4]
 468 00ee 7B68     		ldr	r3, [r7, #4]
 469 00f0 9A80     		strh	r2, [r3, #4]	@ movhi
 104:can_manager.c **** 			prev_msg->length = new_msg->length;
 470              		.loc 1 104 0
 471 00f2 3B68     		ldr	r3, [r7]
 472 00f4 9A79     		ldrb	r2, [r3, #6]	@ zero_extendqisi2
 473 00f6 7B68     		ldr	r3, [r7, #4]
 474 00f8 9A71     		strb	r2, [r3, #6]
 105:can_manager.c **** 			prev_msg->millicounter = new_msg->millicounter;	
 475              		.loc 1 105 0
 476 00fa 3B68     		ldr	r3, [r7]
 477 00fc 1A68     		ldr	r2, [r3]
 478 00fe 7B68     		ldr	r3, [r7, #4]
 479 0100 1A60     		str	r2, [r3]
 106:can_manager.c **** 			for(j=0; j<new_msg->length; j++) {
 480              		.loc 1 106 0
 481 0102 0023     		movs	r3, #0
 482 0104 BB77     		strb	r3, [r7, #30]
 483 0106 0BE0     		b	.L32
 484              	.L33:
 107:can_manager.c **** 				prev_msg->data[j] = new_msg->data[j];
 485              		.loc 1 107 0 discriminator 3
 486 0108 BB7F     		ldrb	r3, [r7, #30]	@ zero_extendqisi2
 487 010a BA7F     		ldrb	r2, [r7, #30]	@ zero_extendqisi2
 488 010c 3968     		ldr	r1, [r7]
 489 010e 0A44     		add	r2, r2, r1
 490 0110 D179     		ldrb	r1, [r2, #7]	@ zero_extendqisi2
 491 0112 7A68     		ldr	r2, [r7, #4]
 492 0114 1344     		add	r3, r3, r2
 493 0116 0A46     		mov	r2, r1
 494 0118 DA71     		strb	r2, [r3, #7]
 106:can_manager.c **** 			for(j=0; j<new_msg->length; j++) {
 495              		.loc 1 106 0 discriminator 3
 496 011a BB7F     		ldrb	r3, [r7, #30]	@ zero_extendqisi2
 497 011c 0133     		adds	r3, r3, #1
 498 011e BB77     		strb	r3, [r7, #30]
 499              	.L32:
 106:can_manager.c **** 			for(j=0; j<new_msg->length; j++) {
 500              		.loc 1 106 0 is_stmt 0 discriminator 1
 501 0120 3B68     		ldr	r3, [r7]
 502 0122 9B79     		ldrb	r3, [r3, #6]	@ zero_extendqisi2
 503 0124 BA7F     		ldrb	r2, [r7, #30]	@ zero_extendqisi2
 504 0126 9A42     		cmp	r2, r3
 505 0128 EED3     		bcc	.L33
 108:can_manager.c **** 			}
 109:can_manager.c **** 			
 110:can_manager.c **** 			return 1;
 506              		.loc 1 110 0 is_stmt 1
 507 012a 0123     		movs	r3, #1
ARM GAS  D:\Windows\AppData\Local\Temp\ccra4Zt2.s 			page 12


 508 012c 08E0     		b	.L36
 509              	.L31:
 101:can_manager.c **** 		if(prev_msg->data[i] != new_msg->data[i]) {		//update it if data[] has changed
 510              		.loc 1 101 0 discriminator 2
 511 012e FB7F     		ldrb	r3, [r7, #31]	@ zero_extendqisi2
 512 0130 0133     		adds	r3, r3, #1
 513 0132 FB77     		strb	r3, [r7, #31]
 514              	.L30:
 101:can_manager.c **** 		if(prev_msg->data[i] != new_msg->data[i]) {		//update it if data[] has changed
 515              		.loc 1 101 0 is_stmt 0 discriminator 1
 516 0134 3B68     		ldr	r3, [r7]
 517 0136 9B79     		ldrb	r3, [r3, #6]	@ zero_extendqisi2
 518 0138 FA7F     		ldrb	r2, [r7, #31]	@ zero_extendqisi2
 519 013a 9A42     		cmp	r2, r3
 520 013c CBD3     		bcc	.L35
 111:can_manager.c **** 		}//if
 112:can_manager.c **** 	}//for
 113:can_manager.c **** 	return 0;
 521              		.loc 1 113 0 is_stmt 1
 522 013e 0023     		movs	r3, #0
 523              	.L36:
 114:can_manager.c **** }
 524              		.loc 1 114 0 discriminator 1
 525 0140 1846     		mov	r0, r3
 526 0142 2437     		adds	r7, r7, #36
 527              		.cfi_def_cfa_offset 4
 528 0144 BD46     		mov	sp, r7
 529              		.cfi_def_cfa_register 13
 530              		@ sp needed
 531 0146 5DF8047B 		ldr	r7, [sp], #4
 532              		.cfi_restore 7
 533              		.cfi_def_cfa_offset 0
 534 014a 7047     		bx	lr
 535              		.cfi_endproc
 536              	.LFE66:
 537              		.size	can_compare, .-can_compare
 538              		.section	.text.can_test_send,"ax",%progbits
 539              		.align	2
 540              		.global	can_test_send
 541              		.thumb
 542              		.thumb_func
 543              		.type	can_test_send, %function
 544              	can_test_send:
 545              	.LFB67:
 115:can_manager.c **** 
 116:can_manager.c **** 
 117:can_manager.c **** void can_test_send() {
 546              		.loc 1 117 0
 547              		.cfi_startproc
 548              		@ args = 0, pretend = 0, frame = 24
 549              		@ frame_needed = 1, uses_anonymous_args = 0
 550 0000 80B5     		push	{r7, lr}
 551              		.cfi_def_cfa_offset 8
 552              		.cfi_offset 7, -8
 553              		.cfi_offset 14, -4
 554 0002 86B0     		sub	sp, sp, #24
 555              		.cfi_def_cfa_offset 32
ARM GAS  D:\Windows\AppData\Local\Temp\ccra4Zt2.s 			page 13


 556 0004 00AF     		add	r7, sp, #0
 557              		.cfi_def_cfa_register 7
 118:can_manager.c **** 	uint8_t i;
 119:can_manager.c **** 	CAN_1_TX_MSG message;
 120:can_manager.c **** 	CAN_1_DATA_BYTES_MSG test_data;
 121:can_manager.c **** 
 122:can_manager.c **** 	message.id = 0x100;
 558              		.loc 1 122 0
 559 0006 4FF48073 		mov	r3, #256
 560 000a BB60     		str	r3, [r7, #8]
 123:can_manager.c **** 	message.rtr = 0;
 561              		.loc 1 123 0
 562 000c 0023     		movs	r3, #0
 563 000e 3B73     		strb	r3, [r7, #12]
 124:can_manager.c **** 	message.ide = 0;
 564              		.loc 1 124 0
 565 0010 0023     		movs	r3, #0
 566 0012 7B73     		strb	r3, [r7, #13]
 125:can_manager.c **** 	message.dlc = 0x08;
 567              		.loc 1 125 0
 568 0014 0823     		movs	r3, #8
 569 0016 BB73     		strb	r3, [r7, #14]
 126:can_manager.c **** 	message.irq = 1;
 570              		.loc 1 126 0
 571 0018 0123     		movs	r3, #1
 572 001a FB73     		strb	r3, [r7, #15]
 127:can_manager.c **** 	message.msg = &test_data;
 573              		.loc 1 127 0
 574 001c 3B46     		mov	r3, r7
 575 001e 3B61     		str	r3, [r7, #16]
 128:can_manager.c **** 
 129:can_manager.c **** 	for(i=0;i<8;i++)
 576              		.loc 1 129 0
 577 0020 0023     		movs	r3, #0
 578 0022 FB75     		strb	r3, [r7, #23]
 579 0024 09E0     		b	.L38
 580              	.L39:
 130:can_manager.c **** 		test_data.byte[i] = i;
 581              		.loc 1 130 0 discriminator 3
 582 0026 FB7D     		ldrb	r3, [r7, #23]	@ zero_extendqisi2
 583 0028 07F11802 		add	r2, r7, #24
 584 002c 1344     		add	r3, r3, r2
 585 002e FA7D     		ldrb	r2, [r7, #23]
 586 0030 03F8182C 		strb	r2, [r3, #-24]
 129:can_manager.c **** 		test_data.byte[i] = i;
 587              		.loc 1 129 0 discriminator 3
 588 0034 FB7D     		ldrb	r3, [r7, #23]	@ zero_extendqisi2
 589 0036 0133     		adds	r3, r3, #1
 590 0038 FB75     		strb	r3, [r7, #23]
 591              	.L38:
 129:can_manager.c **** 		test_data.byte[i] = i;
 592              		.loc 1 129 0 is_stmt 0 discriminator 1
 593 003a FB7D     		ldrb	r3, [r7, #23]	@ zero_extendqisi2
 594 003c 072B     		cmp	r3, #7
 595 003e F2D9     		bls	.L39
 131:can_manager.c **** 
 132:can_manager.c **** 	CAN_1_SendMsg(&message);
ARM GAS  D:\Windows\AppData\Local\Temp\ccra4Zt2.s 			page 14


 596              		.loc 1 132 0 is_stmt 1
 597 0040 07F10803 		add	r3, r7, #8
 598 0044 1846     		mov	r0, r3
 599 0046 FFF7FEFF 		bl	CAN_1_SendMsg
 133:can_manager.c **** } // can_test_send()
 600              		.loc 1 133 0
 601 004a 1837     		adds	r7, r7, #24
 602              		.cfi_def_cfa_offset 8
 603 004c BD46     		mov	sp, r7
 604              		.cfi_def_cfa_register 13
 605              		@ sp needed
 606 004e 80BD     		pop	{r7, pc}
 607              		.cfi_endproc
 608              	.LFE67:
 609              		.size	can_test_send, .-can_test_send
 610              		.section	.text.can_test_receive,"ax",%progbits
 611              		.align	2
 612              		.global	can_test_receive
 613              		.thumb
 614              		.thumb_func
 615              		.type	can_test_receive, %function
 616              	can_test_receive:
 617              	.LFB68:
 134:can_manager.c **** 
 135:can_manager.c **** 
 136:can_manager.c **** void can_test_receive() {
 618              		.loc 1 136 0
 619              		.cfi_startproc
 620              		@ args = 0, pretend = 0, frame = 24
 621              		@ frame_needed = 1, uses_anonymous_args = 0
 622 0000 80B5     		push	{r7, lr}
 623              		.cfi_def_cfa_offset 8
 624              		.cfi_offset 7, -8
 625              		.cfi_offset 14, -4
 626 0002 86B0     		sub	sp, sp, #24
 627              		.cfi_def_cfa_offset 32
 628 0004 00AF     		add	r7, sp, #0
 629              		.cfi_def_cfa_register 7
 137:can_manager.c **** 	DataPacket test_msg;
 138:can_manager.c ****     uint8 i;
 139:can_manager.c **** 	
 140:can_manager.c ****     //test packets
 141:can_manager.c ****     for(i=100; i<103; i++) { 
 630              		.loc 1 141 0
 631 0006 6423     		movs	r3, #100
 632 0008 FB75     		strb	r3, [r7, #23]
 633 000a 1FE0     		b	.L41
 634              	.L42:
 142:can_manager.c **** 		test_msg.millicounter = millis_timer_ReadCounter();    
 635              		.loc 1 142 0 discriminator 3
 636 000c FFF7FEFF 		bl	millis_timer_ReadCounter
 637 0010 0346     		mov	r3, r0
 638 0012 7B60     		str	r3, [r7, #4]
 143:can_manager.c **** 		test_msg.id = 0x0999;
 639              		.loc 1 143 0 discriminator 3
 640 0014 40F69913 		movw	r3, #2457
 641 0018 3B81     		strh	r3, [r7, #8]	@ movhi
ARM GAS  D:\Windows\AppData\Local\Temp\ccra4Zt2.s 			page 15


 144:can_manager.c **** 		test_msg.length = 8;
 642              		.loc 1 144 0 discriminator 3
 643 001a 0823     		movs	r3, #8
 644 001c BB72     		strb	r3, [r7, #10]
 145:can_manager.c **** 		test_msg.data[0]= 1;
 645              		.loc 1 145 0 discriminator 3
 646 001e 0123     		movs	r3, #1
 647 0020 FB72     		strb	r3, [r7, #11]
 146:can_manager.c **** 		test_msg.data[1]= 2;
 648              		.loc 1 146 0 discriminator 3
 649 0022 0223     		movs	r3, #2
 650 0024 3B73     		strb	r3, [r7, #12]
 147:can_manager.c **** 		test_msg.data[2]= 3;
 651              		.loc 1 147 0 discriminator 3
 652 0026 0323     		movs	r3, #3
 653 0028 7B73     		strb	r3, [r7, #13]
 148:can_manager.c **** 		test_msg.data[3]= 4;
 654              		.loc 1 148 0 discriminator 3
 655 002a 0423     		movs	r3, #4
 656 002c BB73     		strb	r3, [r7, #14]
 149:can_manager.c **** 		test_msg.data[4]= 5;
 657              		.loc 1 149 0 discriminator 3
 658 002e 0523     		movs	r3, #5
 659 0030 FB73     		strb	r3, [r7, #15]
 150:can_manager.c **** 		test_msg.data[5]= 6;
 660              		.loc 1 150 0 discriminator 3
 661 0032 0623     		movs	r3, #6
 662 0034 3B74     		strb	r3, [r7, #16]
 151:can_manager.c **** 		test_msg.data[6]= 7;
 663              		.loc 1 151 0 discriminator 3
 664 0036 0723     		movs	r3, #7
 665 0038 7B74     		strb	r3, [r7, #17]
 152:can_manager.c ****         test_msg.data[7]= 8;
 666              		.loc 1 152 0 discriminator 3
 667 003a 0823     		movs	r3, #8
 668 003c BB74     		strb	r3, [r7, #18]
 153:can_manager.c **** 		
 154:can_manager.c **** 		msg_recieve(&test_msg);
 669              		.loc 1 154 0 discriminator 3
 670 003e 3B1D     		adds	r3, r7, #4
 671 0040 1846     		mov	r0, r3
 672 0042 FFF7FEFF 		bl	msg_recieve
 141:can_manager.c **** 		test_msg.millicounter = millis_timer_ReadCounter();    
 673              		.loc 1 141 0 discriminator 3
 674 0046 FB7D     		ldrb	r3, [r7, #23]	@ zero_extendqisi2
 675 0048 0133     		adds	r3, r3, #1
 676 004a FB75     		strb	r3, [r7, #23]
 677              	.L41:
 141:can_manager.c **** 		test_msg.millicounter = millis_timer_ReadCounter();    
 678              		.loc 1 141 0 is_stmt 0 discriminator 1
 679 004c FB7D     		ldrb	r3, [r7, #23]	@ zero_extendqisi2
 680 004e 662B     		cmp	r3, #102
 681 0050 DCD9     		bls	.L42
 155:can_manager.c ****     } //for
 156:can_manager.c **** }
 682              		.loc 1 156 0 is_stmt 1
 683 0052 1837     		adds	r7, r7, #24
ARM GAS  D:\Windows\AppData\Local\Temp\ccra4Zt2.s 			page 16


 684              		.cfi_def_cfa_offset 8
 685 0054 BD46     		mov	sp, r7
 686              		.cfi_def_cfa_register 13
 687              		@ sp needed
 688 0056 80BD     		pop	{r7, pc}
 689              		.cfi_endproc
 690              	.LFE68:
 691              		.size	can_test_receive, .-can_test_receive
 692              		.text
 693              	.Letext0:
 694              		.file 2 "d:\\programming\\cypress\\psoc creator\\4.0\\psoc creator\\import\\gnu\\arm\\4.9.3\\arm-n
 695              		.file 3 "d:\\programming\\cypress\\psoc creator\\4.0\\psoc creator\\import\\gnu\\arm\\4.9.3\\arm-n
 696              		.file 4 "Generated_Source\\PSoC5/cytypes.h"
 697              		.file 5 "Generated_Source\\PSoC5/CAN_1.h"
 698              		.file 6 "data.h"
 699              		.file 7 "Generated_Source\\PSoC5/core_cm3.h"