ARM GAS  D:\Windows\AppData\Local\Temp\ccrVhZGd.s 			page 1


   1              		.syntax unified
   2              		.cpu cortex-m3
   3              		.fpu softvfp
   4              		.eabi_attribute 20, 1
   5              		.eabi_attribute 21, 1
   6              		.eabi_attribute 23, 3
   7              		.eabi_attribute 24, 1
   8              		.eabi_attribute 25, 1
   9              		.eabi_attribute 26, 1
  10              		.eabi_attribute 30, 6
  11              		.eabi_attribute 34, 1
  12              		.eabi_attribute 18, 4
  13              		.thumb
  14              		.file	"main.c"
  15              		.text
  16              	.Ltext0:
  17              		.cfi_sections	.debug_frame
  18              		.section	.text.main,"ax",%progbits
  19              		.align	2
  20              		.global	main
  21              		.thumb
  22              		.thumb_func
  23              		.type	main, %function
  24              	main:
  25              	.LFB63:
  26              		.file 1 "main.c"
   1:main.c        **** /* Node-Beaver
   2:main.c        **** 	 This node logs data via CAN and presents the data to the outside world.
   3:main.c        ****  */
   4:main.c        **** 
   5:main.c        **** #include <project.h>
   6:main.c        **** 
   7:main.c        **** #include "data.h"
   8:main.c        **** #include "time_manager.h"
   9:main.c        **** #include "can_manager.h"
  10:main.c        **** #include "usb_manager.h"
  11:main.c        **** #include "sd_manager.h"
  12:main.c        **** #include "radio_manager.h"
  13:main.c        **** 
  14:main.c        **** 
  15:main.c        **** int main(void) {
  27              		.loc 1 15 0
  28              		.cfi_startproc
  29              		@ args = 0, pretend = 0, frame = 16
  30              		@ frame_needed = 1, uses_anonymous_args = 0
  31 0000 80B5     		push	{r7, lr}
  32              		.cfi_def_cfa_offset 8
  33              		.cfi_offset 7, -8
  34              		.cfi_offset 14, -4
  35 0002 84B0     		sub	sp, sp, #16
  36              		.cfi_def_cfa_offset 24
  37 0004 00AF     		add	r7, sp, #0
  38              		.cfi_def_cfa_register 7
  16:main.c        **** 	CYGlobalIntEnable;      //Uncomment this line to enable global interrupts
  39              		.loc 1 16 0
  40              	@ 16 "main.c" 1
  41 0006 62B6     		CPSIE   i
ARM GAS  D:\Windows\AppData\Local\Temp\ccrVhZGd.s 			page 2


  42              	@ 0 "" 2
  17:main.c        ****     
  18:main.c        ****     //LED_Write(1);             //hook up test LED
  19:main.c        **** 	time_init();                //init everything
  43              		.loc 1 19 0
  44              		.thumb
  45 0008 FFF7FEFF 		bl	time_init
  20:main.c        **** 	can_init();
  46              		.loc 1 20 0
  47 000c FFF7FEFF 		bl	can_init
  21:main.c        **** 	usb_init();
  48              		.loc 1 21 0
  49 0010 FFF7FEFF 		bl	usb_init
  22:main.c        **** 	sd_init(time_get());
  50              		.loc 1 22 0
  51 0014 3B46     		mov	r3, r7
  52 0016 1846     		mov	r0, r3
  53 0018 FFF7FEFF 		bl	time_get
  54 001c 3B46     		mov	r3, r7
  55 001e 0FCB     		ldmia	r3, {r0, r1, r2, r3}
  56 0020 FFF7FEFF 		bl	sd_init
  23:main.c        ****     radio_init_SPI();           //xbee SPI    FE3
  57              		.loc 1 23 0
  58 0024 FFF7FEFF 		bl	radio_init_SPI
  59              	.L2:
  24:main.c        ****     
  25:main.c        **** 	for(;;)	{
  26:main.c        ****         //can_test_send();
  27:main.c        ****         //can_test_receive();
  28:main.c        ****         //xbee_Tx_req_test();
  29:main.c        **** 		CyDelay(1000);                 //refresh intervaal
  60              		.loc 1 29 0 discriminator 1
  61 0028 4FF47A70 		mov	r0, #1000
  62 002c FFF7FEFF 		bl	CyDelay
  30:main.c        **** 	} // main loop
  63              		.loc 1 30 0 discriminator 1
  64 0030 FAE7     		b	.L2
  65              		.cfi_endproc
  66              	.LFE63:
  67              		.size	main, .-main
  68 0032 00BF     		.section	.text.msg_recieve,"ax",%progbits
  69              		.align	2
  70              		.global	msg_recieve
  71              		.thumb
  72              		.thumb_func
  73              		.type	msg_recieve, %function
  74              	msg_recieve:
  75              	.LFB64:
  31:main.c        **** 
  32:main.c        **** 	return 0;
  33:main.c        **** } // main()
  34:main.c        **** 
  35:main.c        **** /* when a can message is recieved will immediately save messages to external devices
  36:main.c        **** 	- transmit over xbee
  37:main.c        **** 	- write to sd
  38:main.c        **** 	- write to usb	*/
  39:main.c        **** void msg_recieve(DataPacket * msg) {
ARM GAS  D:\Windows\AppData\Local\Temp\ccrVhZGd.s 			page 3


  76              		.loc 1 39 0
  77              		.cfi_startproc
  78              		@ args = 0, pretend = 0, frame = 8
  79              		@ frame_needed = 1, uses_anonymous_args = 0
  80 0000 80B5     		push	{r7, lr}
  81              		.cfi_def_cfa_offset 8
  82              		.cfi_offset 7, -8
  83              		.cfi_offset 14, -4
  84 0002 82B0     		sub	sp, sp, #8
  85              		.cfi_def_cfa_offset 16
  86 0004 00AF     		add	r7, sp, #0
  87              		.cfi_def_cfa_register 7
  88 0006 7860     		str	r0, [r7, #4]
  40:main.c        **** 	if(can_process(msg)) {	//if message is new data value
  89              		.loc 1 40 0
  90 0008 7868     		ldr	r0, [r7, #4]
  91 000a FFF7FEFF 		bl	can_process
  92 000e 0346     		mov	r3, r0
  93 0010 002B     		cmp	r3, #0
  94 0012 05D0     		beq	.L3
  41:main.c        **** 		xbee_send(msg);
  95              		.loc 1 41 0
  96 0014 7868     		ldr	r0, [r7, #4]
  97 0016 FFF7FEFF 		bl	xbee_send
  42:main.c        **** 		sd_buffer(msg);
  98              		.loc 1 42 0
  99 001a 7868     		ldr	r0, [r7, #4]
 100 001c FFF7FEFF 		bl	sd_buffer
 101              	.L3:
  43:main.c        **** 		//usb_write(msg);
  44:main.c        **** 	}
  45:main.c        **** }
 102              		.loc 1 45 0
 103 0020 0837     		adds	r7, r7, #8
 104              		.cfi_def_cfa_offset 8
 105 0022 BD46     		mov	sp, r7
 106              		.cfi_def_cfa_register 13
 107              		@ sp needed
 108 0024 80BD     		pop	{r7, pc}
 109              		.cfi_endproc
 110              	.LFE64:
 111              		.size	msg_recieve, .-msg_recieve
 112 0026 00BF     		.text
 113              	.Letext0:
 114              		.file 2 "d:\\programming\\cypress\\psoc creator\\4.0\\psoc creator\\import\\gnu\\arm\\4.9.3\\arm-n
 115              		.file 3 "d:\\programming\\cypress\\psoc creator\\4.0\\psoc creator\\import\\gnu\\arm\\4.9.3\\arm-n
 116              		.file 4 "data.h"
 117              		.file 5 "Generated_Source\\PSoC5/core_cm3.h"