Archive member included because of file (symbol)

.\CortexM3\ARM_GCC_493\Debug\Node-Beaver_FE3.a(cyfitter_cfg.o)
                              .\CortexM3\ARM_GCC_493\Debug\Cm3Start.o (cyfitter_cfg)
.\CortexM3\ARM_GCC_493\Debug\Node-Beaver_FE3.a(CyLib.o)
                              .\CortexM3\ARM_GCC_493\Debug\Cm3Start.o (CyResetStatus)
.\CortexM3\ARM_GCC_493\Debug\Node-Beaver_FE3.a(cyPm.o)
                              .\CortexM3\ARM_GCC_493\Debug\Node-Beaver_FE3.a(CyLib.o) (CyPmReadStatus)
.\CortexM3\ARM_GCC_493\Debug\Node-Beaver_FE3.a(CAN_1.o)
                              .\CortexM3\ARM_GCC_493\Debug\can_manager.o (CAN_1_Init)
.\CortexM3\ARM_GCC_493\Debug\Node-Beaver_FE3.a(CAN_1_INT.o)
                              .\CortexM3\ARM_GCC_493\Debug\Node-Beaver_FE3.a(CAN_1.o) (CAN_1_ISR)
.\CortexM3\ARM_GCC_493\Debug\Node-Beaver_FE3.a(CAN_1_TX_RX_func.o)
                              .\CortexM3\ARM_GCC_493\Debug\can_manager.o (CAN_1_SendMsg)
.\CortexM3\ARM_GCC_493\Debug\Node-Beaver_FE3.a(LED.o)
                              .\CortexM3\ARM_GCC_493\Debug\sd_manager.o (LED_Write)
.\CortexM3\ARM_GCC_493\Debug\Node-Beaver_FE3.a(USBUART_1.o)
                              .\CortexM3\ARM_GCC_493\Debug\usb_manager.o (USBUART_1_Start)
.\CortexM3\ARM_GCC_493\Debug\Node-Beaver_FE3.a(USBUART_1_cdc.o)
                              .\CortexM3\ARM_GCC_493\Debug\usb_manager.o (USBUART_1_DataIsReady)
.\CortexM3\ARM_GCC_493\Debug\Node-Beaver_FE3.a(USBUART_1_drv.o)
                              .\CortexM3\ARM_GCC_493\Debug\Node-Beaver_FE3.a(USBUART_1.o) (USBUART_1_EP)
.\CortexM3\ARM_GCC_493\Debug\Node-Beaver_FE3.a(USBUART_1_episr.o)
                              .\CortexM3\ARM_GCC_493\Debug\Node-Beaver_FE3.a(USBUART_1.o) (USBUART_1_EP_1_ISR)
.\CortexM3\ARM_GCC_493\Debug\Node-Beaver_FE3.a(USBUART_1_pm.o)
                              .\CortexM3\ARM_GCC_493\Debug\Node-Beaver_FE3.a(USBUART_1.o) (USBUART_1_DP_ISR)
.\CortexM3\ARM_GCC_493\Debug\Node-Beaver_FE3.a(USBUART_1_std.o)
                              .\CortexM3\ARM_GCC_493\Debug\Node-Beaver_FE3.a(USBUART_1_drv.o) (USBUART_1_HandleStandardRqst)
.\CortexM3\ARM_GCC_493\Debug\Node-Beaver_FE3.a(USBUART_1_vnd.o)
                              .\CortexM3\ARM_GCC_493\Debug\Node-Beaver_FE3.a(USBUART_1_drv.o) (USBUART_1_HandleVendorRqst)
.\CortexM3\ARM_GCC_493\Debug\Node-Beaver_FE3.a(USBUART_1_Dp.o)
                              .\CortexM3\ARM_GCC_493\Debug\Node-Beaver_FE3.a(USBUART_1.o) (USBUART_1_Dp_ClearInterrupt)
.\CortexM3\ARM_GCC_493\Debug\Node-Beaver_FE3.a(power_isr.o)
                              .\CortexM3\ARM_GCC_493\Debug\sd_manager.o (power_isr_StartEx)
.\CortexM3\ARM_GCC_493\Debug\Node-Beaver_FE3.a(rtc_i2c.o)
                              .\CortexM3\ARM_GCC_493\Debug\time_manager.o (rtc_i2c_Start)
.\CortexM3\ARM_GCC_493\Debug\Node-Beaver_FE3.a(rtc_i2c_INT.o)
                              .\CortexM3\ARM_GCC_493\Debug\Node-Beaver_FE3.a(rtc_i2c.o) (rtc_i2c_ISR)
.\CortexM3\ARM_GCC_493\Debug\Node-Beaver_FE3.a(rtc_i2c_PM.o)
                              .\CortexM3\ARM_GCC_493\Debug\Node-Beaver_FE3.a(rtc_i2c.o) (rtc_i2c_backup)
.\CortexM3\ARM_GCC_493\Debug\Node-Beaver_FE3.a(rtc_i2c_MASTER.o)
                              .\CortexM3\ARM_GCC_493\Debug\Node-Beaver_FE3.a(rtc_i2c.o) (rtc_i2c_mstrStatus)
.\CortexM3\ARM_GCC_493\Debug\Node-Beaver_FE3.a(time_refresh_isr.o)
                              .\CortexM3\ARM_GCC_493\Debug\time_manager.o (time_refresh_isr_StartEx)
.\CortexM3\ARM_GCC_493\Debug\Node-Beaver_FE3.a(millis_timer.o)
                              .\CortexM3\ARM_GCC_493\Debug\time_manager.o (millis_timer_Start)
.\CortexM3\ARM_GCC_493\Debug\Node-Beaver_FE3.a(time_refresh_timer.o)
                              .\CortexM3\ARM_GCC_493\Debug\time_manager.o (time_refresh_timer_Start)
.\CortexM3\ARM_GCC_493\Debug\Node-Beaver_FE3.a(xbee_spi.o)
                              .\CortexM3\ARM_GCC_493\Debug\radio_manager.o (xbee_spi_Start)
.\CortexM3\ARM_GCC_493\Debug\Node-Beaver_FE3.a(xbee_spi_INT.o)
                              .\CortexM3\ARM_GCC_493\Debug\Node-Beaver_FE3.a(xbee_spi.o) (xbee_spi_TX_ISR)
.\CortexM3\ARM_GCC_493\Debug\Node-Beaver_FE3.a(xbee_spi_IntClock.o)
                              .\CortexM3\ARM_GCC_493\Debug\Node-Beaver_FE3.a(xbee_spi.o) (xbee_spi_IntClock_Start)
.\CortexM3\ARM_GCC_493\Debug\Node-Beaver_FE3.a(power_comp.o)
                              .\CortexM3\ARM_GCC_493\Debug\sd_manager.o (power_comp_Start)
.\CortexM3\ARM_GCC_493\Debug\Node-Beaver_FE3.a(sd_timer.o)
                              .\CortexM3\ARM_GCC_493\Debug\sd_manager.o (sd_timer_Start)
.\CortexM3\ARM_GCC_493\Debug\Node-Beaver_FE3.a(sd_isr.o)
                              .\CortexM3\ARM_GCC_493\Debug\sd_manager.o (sd_isr_StartEx)
.\CortexM3\ARM_GCC_493\Debug\Node-Beaver_FE3.a(CyBootAsmGnu.o)
                              .\CortexM3\ARM_GCC_493\Debug\Node-Beaver_FE3.a(cyfitter_cfg.o) (CyDelayCycles)
.\CortexM3\ARM_GCC_493\Debug\Node-Beaver_FE3.a(CyFlash.o)
                              .\CortexM3\ARM_GCC_493\Debug\Node-Beaver_FE3.a(cyPm.o) (CyFlash_SetWaitCycles)
.\CortexM3\ARM_GCC_493\Debug\Node-Beaver_FE3.a(CySpc.o)
                              .\CortexM3\ARM_GCC_493\Debug\Node-Beaver_FE3.a(CyFlash.o) (CySpcStart)
.\CortexM3\ARM_GCC_493\Debug\Node-Beaver_FE3.a(cyutils.o)
                              .\CortexM3\ARM_GCC_493\Debug\Node-Beaver_FE3.a(time_refresh_timer.o) (CySetReg24)
.\CortexM3\ARM_GCC_493\Debug\Node-Beaver_FE3.a(USBUART_1_cls.o)
                              .\CortexM3\ARM_GCC_493\Debug\Node-Beaver_FE3.a(USBUART_1_drv.o) (USBUART_1_DispatchClassRqst)
.\CortexM3\ARM_GCC_493\Debug\Node-Beaver_FE3.a(USBUART_1_descr.o)
                              .\CortexM3\ARM_GCC_493\Debug\Node-Beaver_FE3.a(USBUART_1_std.o) (USBUART_1_DEVICE0_DESCR)
.\emFile_V322c\LinkLibrary\PSoC5\GCC\libemf16noslfn.a(FAT_LFN.o)
                              .\CortexM3\ARM_GCC_493\Debug\sd_manager.o (FS_FAT_SupportLFN)
.\emFile_V322c\LinkLibrary\PSoC5\GCC\libemf16noslfn.a(FAT_Misc.o)
                              .\emFile_V322c\LinkLibrary\PSoC5\GCC\libemf16noslfn.a(FAT_LFN.o) (FS_FAT_ClusterId2SectorNo)
.\emFile_V322c\LinkLibrary\PSoC5\GCC\libemf16noslfn.a(FAT_Open.o)
                              .\emFile_V322c\LinkLibrary\PSoC5\GCC\libemf16noslfn.a(FAT_LFN.o) (FS_FAT_InitDirEntryScan)
.\emFile_V322c\LinkLibrary\PSoC5\GCC\libemf16noslfn.a(FAT_Write.o)
                              .\emFile_V322c\LinkLibrary\PSoC5\GCC\libemf16noslfn.a(FAT_Misc.o) (FS_FAT_Close)
.\emFile_V322c\LinkLibrary\PSoC5\GCC\libemf16noslfn.a(FS_Attrib.o)
                              .\CortexM3\ARM_GCC_493\Debug\sd_manager.o (FS_GetFileAttributes)
.\emFile_V322c\LinkLibrary\PSoC5\GCC\libemf16noslfn.a(FS_CLib.o)
                              .\emFile_V322c\LinkLibrary\PSoC5\GCC\libemf16noslfn.a(FAT_LFN.o) (FS__CLIB_memcmp)
.\emFile_V322c\LinkLibrary\PSoC5\GCC\libemf16noslfn.a(FS_Core.o)
                              .\emFile_V322c\LinkLibrary\PSoC5\GCC\libemf16noslfn.a(FAT_Misc.o) (FS__DivideU32Up)
.\emFile_V322c\LinkLibrary\PSoC5\GCC\libemf16noslfn.a(FS_Dir.o)
                              .\CortexM3\ARM_GCC_493\Debug\sd_manager.o (FS_MkDir)
.\emFile_V322c\LinkLibrary\PSoC5\GCC\libemf16noslfn.a(FS_LogBlock.o)
                              .\emFile_V322c\LinkLibrary\PSoC5\GCC\libemf16noslfn.a(FAT_Misc.o) (FS_LB_ReadPart)
.\emFile_V322c\LinkLibrary\PSoC5\GCC\libemf16noslfn.a(FS_memcpy.o)
                              .\emFile_V322c\LinkLibrary\PSoC5\GCC\libemf16noslfn.a(FAT_Open.o) (FS_memcpy)
.\emFile_V322c\LinkLibrary\PSoC5\GCC\libemf16noslfn.a(FS_Misc.o)
                              .\emFile_V322c\LinkLibrary\PSoC5\GCC\libemf16noslfn.a(FAT_Misc.o) (FS__AllocSectorBuffer)
.\emFile_V322c\LinkLibrary\PSoC5\GCC\libemf16noslfn.a(FS_Read.o)
                              .\CortexM3\ARM_GCC_493\Debug\sd_manager.o (FS_Read)
.\emFile_V322c\LinkLibrary\PSoC5\GCC\libemf16noslfn.a(FS_Storage.o)
                              .\CortexM3\ARM_GCC_493\Debug\sd_manager.o (FS_GetNumVolumes)
.\emFile_V322c\LinkLibrary\PSoC5\GCC\libemf16noslfn.a(FS_Time.o)
                              .\CortexM3\ARM_GCC_493\Debug\sd_manager.o (FS_FileTimeToTimeStamp)
.\emFile_V322c\LinkLibrary\PSoC5\GCC\libemf16noslfn.a(FS_Unmount.o)
                              .\emFile_V322c\LinkLibrary\PSoC5\GCC\libemf16noslfn.a(FS_Misc.o) (FS__UnmountForcedNL)
.\emFile_V322c\LinkLibrary\PSoC5\GCC\libemf16noslfn.a(FS_Volume.o)
                              .\CortexM3\ARM_GCC_493\Debug\sd_manager.o (FS_Sync)
.\emFile_V322c\LinkLibrary\PSoC5\GCC\libemf16noslfn.a(FS_Write.o)
                              .\CortexM3\ARM_GCC_493\Debug\sd_manager.o (FS_Write)
.\emFile_V322c\LinkLibrary\PSoC5\GCC\libemf16noslfn.a(FAT_CheckDisk.o)
                              .\emFile_V322c\LinkLibrary\PSoC5\GCC\libemf16noslfn.a(FS_Volume.o) (FS_FAT__CheckDisk)
.\emFile_V322c\LinkLibrary\PSoC5\GCC\libemf16noslfn.a(FAT_Dir.o)
                              .\emFile_V322c\LinkLibrary\PSoC5\GCC\libemf16noslfn.a(FS_Dir.o) (FS_FAT_ReadDir)
.\emFile_V322c\LinkLibrary\PSoC5\GCC\libemf16noslfn.a(FAT_DirEntry.o)
                              .\emFile_V322c\LinkLibrary\PSoC5\GCC\libemf16noslfn.a(FAT_Misc.o) (FS_FAT_SetDirEntryInfo)
.\emFile_V322c\LinkLibrary\PSoC5\GCC\libemf16noslfn.a(FAT_DiskInfo.o)
                              .\emFile_V322c\LinkLibrary\PSoC5\GCC\libemf16noslfn.a(FS_Volume.o) (FS_FAT_GetDiskInfo)
.\emFile_V322c\LinkLibrary\PSoC5\GCC\libemf16noslfn.a(FAT_Read.o)
                              .\emFile_V322c\LinkLibrary\PSoC5\GCC\libemf16noslfn.a(FS_Read.o) (FS_FAT_Read)
.\emFile_V322c\LinkLibrary\PSoC5\GCC\libemf16noslfn.a(FAT_VolumeLabel.o)
                              .\emFile_V322c\LinkLibrary\PSoC5\GCC\libemf16noslfn.a(FS_Volume.o) (FS_FAT_SetVolumeLabel)
.\emFile_V322c\LinkLibrary\PSoC5\GCC\libemf16noslfn.a(FS_Partition.o)
                              .\emFile_V322c\LinkLibrary\PSoC5\GCC\libemf16noslfn.a(FS_Volume.o) (FS__LocatePartition)
.\CortexM3\ARM_GCC_493\Debug\Node-Beaver_FE3.a(emFile_1_ConfigMMC_SPI.o)
                              .\emFile_V322c\LinkLibrary\PSoC5\GCC\libemf16noslfn.a(FS_Core.o) (FS_X_AddDevices)
.\emFile_V322c\LinkLibrary\PSoC5\GCC\libemf16noslfn.a(MMC_Drv.o)
                              .\CortexM3\ARM_GCC_493\Debug\Node-Beaver_FE3.a(emFile_1_ConfigMMC_SPI.o) (FS_MMC_SPI_Driver)
.\emFile_V322c\LinkLibrary\PSoC5\GCC\libemf16noslfn.a(FS_CRC16.o)
                              .\emFile_V322c\LinkLibrary\PSoC5\GCC\libemf16noslfn.a(MMC_Drv.o) (FS_CRC16_Calc)
.\CortexM3\ARM_GCC_493\Debug\Node-Beaver_FE3.a(emFile_1_MMC_HW_SPI.o)
                              .\emFile_V322c\LinkLibrary\PSoC5\GCC\libemf16noslfn.a(MMC_Drv.o) (FS_MMC_HW_X_EnableCS)
.\CortexM3\ARM_GCC_493\Debug\Node-Beaver_FE3.a(emFile_1_SPI0.o)
                              .\CortexM3\ARM_GCC_493\Debug\Node-Beaver_FE3.a(emFile_1_MMC_HW_SPI.o) (emFile_1_SPI0_ReadTxStatus)
.\CortexM3\ARM_GCC_493\Debug\Node-Beaver_FE3.a(emFile_1_Clock_1.o)
                              .\CortexM3\ARM_GCC_493\Debug\Node-Beaver_FE3.a(emFile_1_MMC_HW_SPI.o) (emFile_1_Clock_1_Start)
.\CortexM3\ARM_GCC_493\Debug\Node-Beaver_FE3.a(emFile_1_SPI0_CS.o)
                              .\CortexM3\ARM_GCC_493\Debug\Node-Beaver_FE3.a(emFile_1_MMC_HW_SPI.o) (emFile_1_SPI0_CS_Write)
d:/programming/cypress/psoc creator/4.0/psoc creator/import/gnu/arm/4.9.3/bin/../lib/gcc/arm-none-eabi/4.9.3/../../../../arm-none-eabi/lib/armv7-m\libg_nano.a(lib_a-atoi.o)
                              .\CortexM3\ARM_GCC_493\Debug\sd_manager.o (atoi)
d:/programming/cypress/psoc creator/4.0/psoc creator/import/gnu/arm/4.9.3/bin/../lib/gcc/arm-none-eabi/4.9.3/../../../../arm-none-eabi/lib/armv7-m\libg_nano.a(lib_a-errno.o)
                              .\CortexM3\ARM_GCC_493\Debug\Cm3Start.o (__errno)
d:/programming/cypress/psoc creator/4.0/psoc creator/import/gnu/arm/4.9.3/bin/../lib/gcc/arm-none-eabi/4.9.3/../../../../arm-none-eabi/lib/armv7-m\libg_nano.a(lib_a-exit.o)
                              d:/programming/cypress/psoc creator/4.0/psoc creator/import/gnu/arm/4.9.3/bin/../lib/gcc/arm-none-eabi/4.9.3/../../../../arm-none-eabi/lib/armv7-m/crt0.o (exit)
d:/programming/cypress/psoc creator/4.0/psoc creator/import/gnu/arm/4.9.3/bin/../lib/gcc/arm-none-eabi/4.9.3/../../../../arm-none-eabi/lib/armv7-m\libg_nano.a(lib_a-impure.o)
                              d:/programming/cypress/psoc creator/4.0/psoc creator/import/gnu/arm/4.9.3/bin/../lib/gcc/arm-none-eabi/4.9.3/../../../../arm-none-eabi/lib/armv7-m\libg_nano.a(lib_a-exit.o) (_global_impure_ptr)
d:/programming/cypress/psoc creator/4.0/psoc creator/import/gnu/arm/4.9.3/bin/../lib/gcc/arm-none-eabi/4.9.3/../../../../arm-none-eabi/lib/armv7-m\libg_nano.a(lib_a-init.o)
                              d:/programming/cypress/psoc creator/4.0/psoc creator/import/gnu/arm/4.9.3/bin/../lib/gcc/arm-none-eabi/4.9.3/../../../../arm-none-eabi/lib/armv7-m/crt0.o (__libc_init_array)
d:/programming/cypress/psoc creator/4.0/psoc creator/import/gnu/arm/4.9.3/bin/../lib/gcc/arm-none-eabi/4.9.3/../../../../arm-none-eabi/lib/armv7-m\libg_nano.a(lib_a-memcmp.o)
                              .\emFile_V322c\LinkLibrary\PSoC5\GCC\libemf16noslfn.a(FAT_CheckDisk.o) (memcmp)
d:/programming/cypress/psoc creator/4.0/psoc creator/import/gnu/arm/4.9.3/bin/../lib/gcc/arm-none-eabi/4.9.3/../../../../arm-none-eabi/lib/armv7-m\libg_nano.a(lib_a-memcpy.o)
                              .\CortexM3\ARM_GCC_493\Debug\Node-Beaver_FE3.a(cyfitter_cfg.o) (memcpy)
d:/programming/cypress/psoc creator/4.0/psoc creator/import/gnu/arm/4.9.3/bin/../lib/gcc/arm-none-eabi/4.9.3/../../../../arm-none-eabi/lib/armv7-m\libg_nano.a(lib_a-memset.o)
                              d:/programming/cypress/psoc creator/4.0/psoc creator/import/gnu/arm/4.9.3/bin/../lib/gcc/arm-none-eabi/4.9.3/../../../../arm-none-eabi/lib/armv7-m/crt0.o (memset)
d:/programming/cypress/psoc creator/4.0/psoc creator/import/gnu/arm/4.9.3/bin/../lib/gcc/arm-none-eabi/4.9.3/../../../../arm-none-eabi/lib/armv7-m\libg_nano.a(lib_a-sprintf.o)
                              .\CortexM3\ARM_GCC_493\Debug\sd_manager.o (sprintf)
d:/programming/cypress/psoc creator/4.0/psoc creator/import/gnu/arm/4.9.3/bin/../lib/gcc/arm-none-eabi/4.9.3/../../../../arm-none-eabi/lib/armv7-m\libg_nano.a(lib_a-strlen.o)
                              .\emFile_V322c\LinkLibrary\PSoC5\GCC\libemf16noslfn.a(FS_Storage.o) (strlen)
d:/programming/cypress/psoc creator/4.0/psoc creator/import/gnu/arm/4.9.3/bin/../lib/gcc/arm-none-eabi/4.9.3/../../../../arm-none-eabi/lib/armv7-m\libg_nano.a(lib_a-strtok.o)
                              .\CortexM3\ARM_GCC_493\Debug\sd_manager.o (strtok)
d:/programming/cypress/psoc creator/4.0/psoc creator/import/gnu/arm/4.9.3/bin/../lib/gcc/arm-none-eabi/4.9.3/../../../../arm-none-eabi/lib/armv7-m\libg_nano.a(lib_a-strtok_r.o)
                              d:/programming/cypress/psoc creator/4.0/psoc creator/import/gnu/arm/4.9.3/bin/../lib/gcc/arm-none-eabi/4.9.3/../../../../arm-none-eabi/lib/armv7-m\libg_nano.a(lib_a-strtok.o) (__strtok_r)
d:/programming/cypress/psoc creator/4.0/psoc creator/import/gnu/arm/4.9.3/bin/../lib/gcc/arm-none-eabi/4.9.3/../../../../arm-none-eabi/lib/armv7-m\libg_nano.a(lib_a-strtol.o)
                              d:/programming/cypress/psoc creator/4.0/psoc creator/import/gnu/arm/4.9.3/bin/../lib/gcc/arm-none-eabi/4.9.3/../../../../arm-none-eabi/lib/armv7-m\libg_nano.a(lib_a-atoi.o) (_strtol_r)
d:/programming/cypress/psoc creator/4.0/psoc creator/import/gnu/arm/4.9.3/bin/../lib/gcc/arm-none-eabi/4.9.3/../../../../arm-none-eabi/lib/armv7-m\libg_nano.a(lib_a-ctype_.o)
                              d:/programming/cypress/psoc creator/4.0/psoc creator/import/gnu/arm/4.9.3/bin/../lib/gcc/arm-none-eabi/4.9.3/../../../../arm-none-eabi/lib/armv7-m\libg_nano.a(lib_a-strtol.o) (__ctype_ptr__)
d:/programming/cypress/psoc creator/4.0/psoc creator/import/gnu/arm/4.9.3/bin/../lib/gcc/arm-none-eabi/4.9.3/../../../../arm-none-eabi/lib/armv7-m\libg_nano.a(lib_a-malloc.o)
                              d:/programming/cypress/psoc creator/4.0/psoc creator/import/gnu/arm/4.9.3/bin/../lib/gcc/arm-none-eabi/4.9.3/../../../../arm-none-eabi/lib/armv7-m\libg_nano.a(lib_a-strtok.o) (malloc)
d:/programming/cypress/psoc creator/4.0/psoc creator/import/gnu/arm/4.9.3/bin/../lib/gcc/arm-none-eabi/4.9.3/../../../../arm-none-eabi/lib/armv7-m\libg_nano.a(lib_a-nano-freer.o)
                              d:/programming/cypress/psoc creator/4.0/psoc creator/import/gnu/arm/4.9.3/bin/../lib/gcc/arm-none-eabi/4.9.3/../../../../arm-none-eabi/lib/armv7-m\libg_nano.a(lib_a-malloc.o) (_free_r)
d:/programming/cypress/psoc creator/4.0/psoc creator/import/gnu/arm/4.9.3/bin/../lib/gcc/arm-none-eabi/4.9.3/../../../../arm-none-eabi/lib/armv7-m\libg_nano.a(lib_a-nano-mallocr.o)
                              d:/programming/cypress/psoc creator/4.0/psoc creator/import/gnu/arm/4.9.3/bin/../lib/gcc/arm-none-eabi/4.9.3/../../../../arm-none-eabi/lib/armv7-m\libg_nano.a(lib_a-malloc.o) (_malloc_r)
d:/programming/cypress/psoc creator/4.0/psoc creator/import/gnu/arm/4.9.3/bin/../lib/gcc/arm-none-eabi/4.9.3/../../../../arm-none-eabi/lib/armv7-m\libg_nano.a(lib_a-nano-svfprintf.o)
                              d:/programming/cypress/psoc creator/4.0/psoc creator/import/gnu/arm/4.9.3/bin/../lib/gcc/arm-none-eabi/4.9.3/../../../../arm-none-eabi/lib/armv7-m\libg_nano.a(lib_a-sprintf.o) (_svfprintf_r)
d:/programming/cypress/psoc creator/4.0/psoc creator/import/gnu/arm/4.9.3/bin/../lib/gcc/arm-none-eabi/4.9.3/../../../../arm-none-eabi/lib/armv7-m\libg_nano.a(lib_a-nano-vfprintf_i.o)
                              d:/programming/cypress/psoc creator/4.0/psoc creator/import/gnu/arm/4.9.3/bin/../lib/gcc/arm-none-eabi/4.9.3/../../../../arm-none-eabi/lib/armv7-m\libg_nano.a(lib_a-nano-svfprintf.o) (_printf_i)
d:/programming/cypress/psoc creator/4.0/psoc creator/import/gnu/arm/4.9.3/bin/../lib/gcc/arm-none-eabi/4.9.3/../../../../arm-none-eabi/lib/armv7-m\libg_nano.a(lib_a-sbrkr.o)
                              d:/programming/cypress/psoc creator/4.0/psoc creator/import/gnu/arm/4.9.3/bin/../lib/gcc/arm-none-eabi/4.9.3/../../../../arm-none-eabi/lib/armv7-m\libg_nano.a(lib_a-nano-mallocr.o) (_sbrk_r)
d:/programming/cypress/psoc creator/4.0/psoc creator/import/gnu/arm/4.9.3/bin/../lib/gcc/arm-none-eabi/4.9.3/../../../../arm-none-eabi/lib/armv7-m\libg_nano.a(lib_a-memchr.o)
                              d:/programming/cypress/psoc creator/4.0/psoc creator/import/gnu/arm/4.9.3/bin/../lib/gcc/arm-none-eabi/4.9.3/../../../../arm-none-eabi/lib/armv7-m\libg_nano.a(lib_a-nano-svfprintf.o) (memchr)
d:/programming/cypress/psoc creator/4.0/psoc creator/import/gnu/arm/4.9.3/bin/../lib/gcc/arm-none-eabi/4.9.3/../../../../arm-none-eabi/lib/armv7-m\libg_nano.a(lib_a-memmove.o)
                              d:/programming/cypress/psoc creator/4.0/psoc creator/import/gnu/arm/4.9.3/bin/../lib/gcc/arm-none-eabi/4.9.3/../../../../arm-none-eabi/lib/armv7-m\libg_nano.a(lib_a-nano-svfprintf.o) (memmove)
d:/programming/cypress/psoc creator/4.0/psoc creator/import/gnu/arm/4.9.3/bin/../lib/gcc/arm-none-eabi/4.9.3/../../../../arm-none-eabi/lib/armv7-m\libg_nano.a(lib_a-nano-reallocr.o)
                              d:/programming/cypress/psoc creator/4.0/psoc creator/import/gnu/arm/4.9.3/bin/../lib/gcc/arm-none-eabi/4.9.3/../../../../arm-none-eabi/lib/armv7-m\libg_nano.a(lib_a-nano-svfprintf.o) (_realloc_r)
d:/programming/cypress/psoc creator/4.0/psoc creator/import/gnu/arm/4.9.3/bin/../lib/gcc/arm-none-eabi/4.9.3/../../../../arm-none-eabi/lib/armv7-m\libg_nano.a(lib_a-reent.o)
                              d:/programming/cypress/psoc creator/4.0/psoc creator/import/gnu/arm/4.9.3/bin/../lib/gcc/arm-none-eabi/4.9.3/../../../../arm-none-eabi/lib/armv7-m\libg_nano.a(lib_a-sbrkr.o) (errno)
d:/programming/cypress/psoc creator/4.0/psoc creator/import/gnu/arm/4.9.3/bin/../lib/gcc/arm-none-eabi/4.9.3/../../../../arm-none-eabi/lib/armv7-m\libg_nano.a(lib_a-nano-msizer.o)
                              d:/programming/cypress/psoc creator/4.0/psoc creator/import/gnu/arm/4.9.3/bin/../lib/gcc/arm-none-eabi/4.9.3/../../../../arm-none-eabi/lib/armv7-m\libg_nano.a(lib_a-nano-reallocr.o) (_malloc_usable_size_r)

Allocating common symbols
Common symbol       size              file

USBUART_1_interfaceSettingLast
                    0x2               .\CortexM3\ARM_GCC_493\Debug\Node-Beaver_FE3.a(USBUART_1_drv.o)
rtc_i2c_state       0x1               .\CortexM3\ARM_GCC_493\Debug\Node-Beaver_FE3.a(rtc_i2c.o)
xbee_spi_txBufferWrite
                    0x1               .\CortexM3\ARM_GCC_493\Debug\Node-Beaver_FE3.a(xbee_spi.o)
USBUART_1_cdcDataInEp
                    0x2               .\CortexM3\ARM_GCC_493\Debug\Node-Beaver_FE3.a(USBUART_1_cdc.o)
FS_Global           0x80              .\emFile_V322c\LinkLibrary\PSoC5\GCC\libemf16noslfn.a(FS_Core.o)
errno               0x4               d:/programming/cypress/psoc creator/4.0/psoc creator/import/gnu/arm/4.9.3/bin/../lib/gcc/arm-none-eabi/4.9.3/../../../../arm-none-eabi/lib/armv7-m\libg_nano.a(lib_a-reent.o)
xbee_spi_txBufferFull
                    0x1               .\CortexM3\ARM_GCC_493\Debug\Node-Beaver_FE3.a(xbee_spi.o)
xbee_spi_txBuffer   0x40              .\CortexM3\ARM_GCC_493\Debug\Node-Beaver_FE3.a(xbee_spi.o)
USBUART_1_ep0Mode   0x1               .\CortexM3\ARM_GCC_493\Debug\Node-Beaver_FE3.a(USBUART_1_drv.o)
rtc_i2c_mstrStatus  0x1               .\CortexM3\ARM_GCC_493\Debug\Node-Beaver_FE3.a(rtc_i2c_MASTER.o)
emFile_1_SPI0_swStatusRx
                    0x1               .\CortexM3\ARM_GCC_493\Debug\Node-Beaver_FE3.a(emFile_1_SPI0.o)
rtc_i2c_mstrWrBufIndex
                    0x1               .\CortexM3\ARM_GCC_493\Debug\Node-Beaver_FE3.a(rtc_i2c_MASTER.o)
current_time        0x10              .\CortexM3\ARM_GCC_493\Debug\time_manager.o
USBUART_1_lastPacketSize
                    0x1               .\CortexM3\ARM_GCC_493\Debug\Node-Beaver_FE3.a(USBUART_1_drv.o)
CURTIS_RCVACK       0x10              .\CortexM3\ARM_GCC_493\Debug\can_manager.o
BRAKE               0x10              .\CortexM3\ARM_GCC_493\Debug\can_manager.o
CURTIS_VOLTAGE      0x10              .\CortexM3\ARM_GCC_493\Debug\can_manager.o
THROTTLE            0x10              .\CortexM3\ARM_GCC_493\Debug\can_manager.o
USBUART_1_configurationChanged
                    0x1               .\CortexM3\ARM_GCC_493\Debug\Node-Beaver_FE3.a(USBUART_1_drv.o)
USBUART_1_configuration
                    0x1               .\CortexM3\ARM_GCC_493\Debug\Node-Beaver_FE3.a(USBUART_1_drv.o)
USBUART_1_interfaceNumber
                    0x1               .\CortexM3\ARM_GCC_493\Debug\Node-Beaver_FE3.a(USBUART_1_drv.o)
USBUART_1_deviceStatus
                    0x1               .\CortexM3\ARM_GCC_493\Debug\Node-Beaver_FE3.a(USBUART_1_drv.o)
rtc_i2c_mstrWrBufSize
                    0x1               .\CortexM3\ARM_GCC_493\Debug\Node-Beaver_FE3.a(rtc_i2c_MASTER.o)
USBUART_1_cdcDataOutEp
                    0x2               .\CortexM3\ARM_GCC_493\Debug\Node-Beaver_FE3.a(USBUART_1_cdc.o)
xbee_spi_txBufferRead
                    0x1               .\CortexM3\ARM_GCC_493\Debug\Node-Beaver_FE3.a(xbee_spi.o)
USBUART_1_cdcCommInInterruptEp
                    0x2               .\CortexM3\ARM_GCC_493\Debug\Node-Beaver_FE3.a(USBUART_1_cdc.o)
rtc_i2c_mstrControl
                    0x1               .\CortexM3\ARM_GCC_493\Debug\Node-Beaver_FE3.a(rtc_i2c_MASTER.o)
DASH                0x10              .\CortexM3\ARM_GCC_493\Debug\can_manager.o
USBUART_1_ep0Toggle
                    0x1               .\CortexM3\ARM_GCC_493\Debug\Node-Beaver_FE3.a(USBUART_1_drv.o)
USBUART_1_serialStateBitmap
                    0x4               .\CortexM3\ARM_GCC_493\Debug\Node-Beaver_FE3.a(USBUART_1_cdc.o)
USBUART_1_linesChanged
                    0x2               .\CortexM3\ARM_GCC_493\Debug\Node-Beaver_FE3.a(USBUART_1_cdc.o)
CURTIS_DEBUG        0x10              .\CortexM3\ARM_GCC_493\Debug\can_manager.o
USBUART_1_interfaceClass
                    0x4               .\CortexM3\ARM_GCC_493\Debug\Node-Beaver_FE3.a(USBUART_1_drv.o)
USBUART_1_linesControlBitmap
                    0x4               .\CortexM3\ARM_GCC_493\Debug\Node-Beaver_FE3.a(USBUART_1_cdc.o)
xbee_spi_swStatusTx
                    0x1               .\CortexM3\ARM_GCC_493\Debug\Node-Beaver_FE3.a(xbee_spi.o)
USBUART_1_interfaceSetting
                    0x2               .\CortexM3\ARM_GCC_493\Debug\Node-Beaver_FE3.a(USBUART_1_drv.o)
USBUART_1_currentTD
                    0xc               .\CortexM3\ARM_GCC_493\Debug\Node-Beaver_FE3.a(USBUART_1_drv.o)
rtc_i2c_mstrRdBufPtr
                    0x4               .\CortexM3\ARM_GCC_493\Debug\Node-Beaver_FE3.a(rtc_i2c_MASTER.o)
sd_queue            0x4000            .\CortexM3\ARM_GCC_493\Debug\sd_manager.o
USBUART_1_ep0Count  0x1               .\CortexM3\ARM_GCC_493\Debug\Node-Beaver_FE3.a(USBUART_1_drv.o)
CURTIS_RCV          0x10              .\CortexM3\ARM_GCC_493\Debug\can_manager.o
FS_NumBytesAllocated
                    0x4               .\emFile_V322c\LinkLibrary\PSoC5\GCC\libemf16noslfn.a(FS_Core.o)
pfile               0x4               .\CortexM3\ARM_GCC_493\Debug\sd_manager.o
USBUART_1_EP        0x6c              .\CortexM3\ARM_GCC_493\Debug\Node-Beaver_FE3.a(USBUART_1_drv.o)
rtc_i2c_mstrWrBufPtr
                    0x4               .\CortexM3\ARM_GCC_493\Debug\Node-Beaver_FE3.a(rtc_i2c_MASTER.o)
rtc_i2c_mstrRdBufSize
                    0x1               .\CortexM3\ARM_GCC_493\Debug\Node-Beaver_FE3.a(rtc_i2c_MASTER.o)
USBUART_1_transferByteCount
                    0x2               .\CortexM3\ARM_GCC_493\Debug\Node-Beaver_FE3.a(USBUART_1_drv.o)
USBUART_1_transferState
                    0x1               .\CortexM3\ARM_GCC_493\Debug\Node-Beaver_FE3.a(USBUART_1_drv.o)
USBUART_1_device    0x1               .\CortexM3\ARM_GCC_493\Debug\Node-Beaver_FE3.a(USBUART_1_drv.o)
FS_STORAGE_Counters
                    0x14              .\emFile_V322c\LinkLibrary\PSoC5\GCC\libemf16noslfn.a(FS_Storage.o)
dieTemperature      0x2               .\CortexM3\ARM_GCC_493\Debug\Node-Beaver_FE3.a(CyFlash.o)
xbee_spi_swStatusRx
                    0x1               .\CortexM3\ARM_GCC_493\Debug\Node-Beaver_FE3.a(xbee_spi.o)
USBUART_1_interfaceStatus
                    0x2               .\CortexM3\ARM_GCC_493\Debug\Node-Beaver_FE3.a(USBUART_1_drv.o)
CURTIS_STATUS       0x10              .\CortexM3\ARM_GCC_493\Debug\can_manager.o
USBUART_1_deviceAddress
                    0x1               .\CortexM3\ARM_GCC_493\Debug\Node-Beaver_FE3.a(USBUART_1_drv.o)
USBUART_1_idSerialNumberStringDescriptor
                    0x22              .\CortexM3\ARM_GCC_493\Debug\Node-Beaver_FE3.a(USBUART_1_descr.o)
emFile_1_SPI0_swStatusTx
                    0x1               .\CortexM3\ARM_GCC_493\Debug\Node-Beaver_FE3.a(emFile_1_SPI0.o)
rtc_i2c_mstrRdBufIndex
                    0x1               .\CortexM3\ARM_GCC_493\Debug\Node-Beaver_FE3.a(rtc_i2c_MASTER.o)

Discarded input sections

 .text          0x00000000        0x0 d:/programming/cypress/psoc creator/4.0/psoc creator/import/gnu/arm/4.9.3/bin/../lib/gcc/arm-none-eabi/4.9.3/armv7-m/crti.o
 .data          0x00000000        0x0 d:/programming/cypress/psoc creator/4.0/psoc creator/import/gnu/arm/4.9.3/bin/../lib/gcc/arm-none-eabi/4.9.3/armv7-m/crti.o
 .bss           0x00000000        0x0 d:/programming/cypress/psoc creator/4.0/psoc creator/import/gnu/arm/4.9.3/bin/../lib/gcc/arm-none-eabi/4.9.3/armv7-m/crti.o
 .data          0x00000000        0x4 d:/programming/cypress/psoc creator/4.0/psoc creator/import/gnu/arm/4.9.3/bin/../lib/gcc/arm-none-eabi/4.9.3/armv7-m/crtbegin.o
 .text          0x00000000       0x74 d:/programming/cypress/psoc creator/4.0/psoc creator/import/gnu/arm/4.9.3/bin/../lib/gcc/arm-none-eabi/4.9.3/../../../../arm-none-eabi/lib/armv7-m/crt0.o
 .data          0x00000000        0x0 d:/programming/cypress/psoc creator/4.0/psoc creator/import/gnu/arm/4.9.3/bin/../lib/gcc/arm-none-eabi/4.9.3/../../../../arm-none-eabi/lib/armv7-m/crt0.o
 .bss           0x00000000        0x0 d:/programming/cypress/psoc creator/4.0/psoc creator/import/gnu/arm/4.9.3/bin/../lib/gcc/arm-none-eabi/4.9.3/../../../../arm-none-eabi/lib/armv7-m/crt0.o
 .ARM.extab     0x00000000        0x0 d:/programming/cypress/psoc creator/4.0/psoc creator/import/gnu/arm/4.9.3/bin/../lib/gcc/arm-none-eabi/4.9.3/../../../../arm-none-eabi/lib/armv7-m/crt0.o
 .ARM.exidx     0x00000000        0x8 d:/programming/cypress/psoc creator/4.0/psoc creator/import/gnu/arm/4.9.3/bin/../lib/gcc/arm-none-eabi/4.9.3/../../../../arm-none-eabi/lib/armv7-m/crt0.o
 .text          0x00000000        0x0 .\CortexM3\ARM_GCC_493\Debug\main.o
 .data          0x00000000        0x0 .\CortexM3\ARM_GCC_493\Debug\main.o
 .bss           0x00000000        0x0 .\CortexM3\ARM_GCC_493\Debug\main.o
 .text          0x00000000        0x0 .\CortexM3\ARM_GCC_493\Debug\can_manager.o
 .data          0x00000000        0x0 .\CortexM3\ARM_GCC_493\Debug\can_manager.o
 .bss           0x00000000        0x0 .\CortexM3\ARM_GCC_493\Debug\can_manager.o
 .text.can_test_send
                0x00000000       0x50 .\CortexM3\ARM_GCC_493\Debug\can_manager.o
 .text.can_test_receive
                0x00000000       0x58 .\CortexM3\ARM_GCC_493\Debug\can_manager.o
 .text          0x00000000        0x0 .\CortexM3\ARM_GCC_493\Debug\sd_manager.o
 .data          0x00000000        0x0 .\CortexM3\ARM_GCC_493\Debug\sd_manager.o
 .text.sd_read  0x00000000       0x48 .\CortexM3\ARM_GCC_493\Debug\sd_manager.o
 .text.sd_writetest
                0x00000000       0x78 .\CortexM3\ARM_GCC_493\Debug\sd_manager.o
 .text          0x00000000        0x0 .\CortexM3\ARM_GCC_493\Debug\usb_manager.o
 .data          0x00000000        0x8 .\CortexM3\ARM_GCC_493\Debug\usb_manager.o
 .bss           0x00000000        0x0 .\CortexM3\ARM_GCC_493\Debug\usb_manager.o
 .text.usb_write
                0x00000000       0x14 .\CortexM3\ARM_GCC_493\Debug\usb_manager.o
 .text.usb_escape
                0x00000000       0x70 .\CortexM3\ARM_GCC_493\Debug\usb_manager.o
 .text.usb_get  0x00000000       0x40 .\CortexM3\ARM_GCC_493\Debug\usb_manager.o
 .text          0x00000000        0x0 .\CortexM3\ARM_GCC_493\Debug\radio_manager.o
 .data          0x00000000        0x0 .\CortexM3\ARM_GCC_493\Debug\radio_manager.o
 .text.checksum_verify
                0x00000000       0x44 .\CortexM3\ARM_GCC_493\Debug\radio_manager.o
 .text.xbee_Tx_req_test
                0x00000000       0xe0 .\CortexM3\ARM_GCC_493\Debug\radio_manager.o
 .text          0x00000000        0x0 .\CortexM3\ARM_GCC_493\Debug\time_manager.o
 .data          0x00000000        0x0 .\CortexM3\ARM_GCC_493\Debug\time_manager.o
 .bss           0x00000000        0x0 .\CortexM3\ARM_GCC_493\Debug\time_manager.o
 .text          0x00000000        0x0 .\CortexM3\ARM_GCC_493\Debug\cymetadata.o
 .data          0x00000000        0x0 .\CortexM3\ARM_GCC_493\Debug\cymetadata.o
 .bss           0x00000000        0x0 .\CortexM3\ARM_GCC_493\Debug\cymetadata.o
 .text          0x00000000        0x0 .\CortexM3\ARM_GCC_493\Debug\Cm3Start.o
 .bss           0x00000000        0x0 .\CortexM3\ARM_GCC_493\Debug\Cm3Start.o
 .text._exit    0x00000000       0x14 .\CortexM3\ARM_GCC_493\Debug\Cm3Start.o
 .text          0x00000000        0x0 .\CortexM3\ARM_GCC_493\Debug\Node-Beaver_FE3.a(cyfitter_cfg.o)
 .data          0x00000000        0x0 .\CortexM3\ARM_GCC_493\Debug\Node-Beaver_FE3.a(cyfitter_cfg.o)
 .bss           0x00000000        0x0 .\CortexM3\ARM_GCC_493\Debug\Node-Beaver_FE3.a(cyfitter_cfg.o)
 .text.CYCONFIGCPYCODE
                0x00000000       0x1c .\CortexM3\ARM_GCC_493\Debug\Node-Beaver_FE3.a(cyfitter_cfg.o)
 .text.SetAnalogRoutingPumps
                0x00000000       0x3c .\CortexM3\ARM_GCC_493\Debug\Node-Beaver_FE3.a(cyfitter_cfg.o)
 .text          0x00000000        0x0 .\CortexM3\ARM_GCC_493\Debug\Node-Beaver_FE3.a(CyLib.o)
 .bss           0x00000000       0x1c .\CortexM3\ARM_GCC_493\Debug\Node-Beaver_FE3.a(CyLib.o)
 .text.CyPLL_OUT_Start
                0x00000000       0xb0 .\CortexM3\ARM_GCC_493\Debug\Node-Beaver_FE3.a(CyLib.o)
 .text.CyPLL_OUT_Stop
                0x00000000       0x20 .\CortexM3\ARM_GCC_493\Debug\Node-Beaver_FE3.a(CyLib.o)
 .text.CyPLL_OUT_SetPQ
                0x00000000       0x90 .\CortexM3\ARM_GCC_493\Debug\Node-Beaver_FE3.a(CyLib.o)
 .text.CyPLL_OUT_SetSource
                0x00000000       0x54 .\CortexM3\ARM_GCC_493\Debug\Node-Beaver_FE3.a(CyLib.o)
 .text.CyIMO_Start
                0x00000000       0x94 .\CortexM3\ARM_GCC_493\Debug\Node-Beaver_FE3.a(CyLib.o)
 .text.CyIMO_Stop
                0x00000000       0x34 .\CortexM3\ARM_GCC_493\Debug\Node-Beaver_FE3.a(CyLib.o)
 .text.CyUSB_PowerOnCheck
                0x00000000       0x60 .\CortexM3\ARM_GCC_493\Debug\Node-Beaver_FE3.a(CyLib.o)
 .text.CyIMO_SetTrimValue
                0x00000000      0x108 .\CortexM3\ARM_GCC_493\Debug\Node-Beaver_FE3.a(CyLib.o)
 .text.CyIMO_SetFreq
                0x00000000      0x1ac .\CortexM3\ARM_GCC_493\Debug\Node-Beaver_FE3.a(CyLib.o)
 .text.CyIMO_SetSource
                0x00000000       0x8c .\CortexM3\ARM_GCC_493\Debug\Node-Beaver_FE3.a(CyLib.o)
 .text.CyIMO_EnableDoubler
                0x00000000       0x20 .\CortexM3\ARM_GCC_493\Debug\Node-Beaver_FE3.a(CyLib.o)
 .text.CyIMO_DisableDoubler
                0x00000000       0x20 .\CortexM3\ARM_GCC_493\Debug\Node-Beaver_FE3.a(CyLib.o)
 .text.CyMasterClk_SetSource
                0x00000000       0x34 .\CortexM3\ARM_GCC_493\Debug\Node-Beaver_FE3.a(CyLib.o)
 .text.CyMasterClk_SetDivider
                0x00000000       0x20 .\CortexM3\ARM_GCC_493\Debug\Node-Beaver_FE3.a(CyLib.o)
 .text.CyBusClk_Internal_SetDivider
                0x00000000       0x78 .\CortexM3\ARM_GCC_493\Debug\Node-Beaver_FE3.a(CyLib.o)
 .text.CyBusClk_SetDivider
                0x00000000       0xb4 .\CortexM3\ARM_GCC_493\Debug\Node-Beaver_FE3.a(CyLib.o)
 .text.CyUsbClk_SetSource
                0x00000000       0x34 .\CortexM3\ARM_GCC_493\Debug\Node-Beaver_FE3.a(CyLib.o)
 .text.CyILO_Start1K
                0x00000000       0x20 .\CortexM3\ARM_GCC_493\Debug\Node-Beaver_FE3.a(CyLib.o)
 .text.CyILO_Stop1K
                0x00000000       0x20 .\CortexM3\ARM_GCC_493\Debug\Node-Beaver_FE3.a(CyLib.o)
 .text.CyILO_Start100K
                0x00000000       0x20 .\CortexM3\ARM_GCC_493\Debug\Node-Beaver_FE3.a(CyLib.o)
 .text.CyILO_Stop100K
                0x00000000       0x20 .\CortexM3\ARM_GCC_493\Debug\Node-Beaver_FE3.a(CyLib.o)
 .text.CyILO_Enable33K
                0x00000000       0x20 .\CortexM3\ARM_GCC_493\Debug\Node-Beaver_FE3.a(CyLib.o)
 .text.CyILO_Disable33K
                0x00000000       0x20 .\CortexM3\ARM_GCC_493\Debug\Node-Beaver_FE3.a(CyLib.o)
 .text.CyILO_SetSource
                0x00000000       0x38 .\CortexM3\ARM_GCC_493\Debug\Node-Beaver_FE3.a(CyLib.o)
 .text.CyILO_SetPowerMode
                0x00000000       0x4c .\CortexM3\ARM_GCC_493\Debug\Node-Beaver_FE3.a(CyLib.o)
 .text.CyXTAL_32KHZ_Start
                0x00000000       0x84 .\CortexM3\ARM_GCC_493\Debug\Node-Beaver_FE3.a(CyLib.o)
 .text.CyXTAL_32KHZ_Stop
                0x00000000       0x50 .\CortexM3\ARM_GCC_493\Debug\Node-Beaver_FE3.a(CyLib.o)
 .text.CyXTAL_32KHZ_ReadStatus
                0x00000000       0x20 .\CortexM3\ARM_GCC_493\Debug\Node-Beaver_FE3.a(CyLib.o)
 .text.CyXTAL_32KHZ_SetPowerMode
                0x00000000       0xb4 .\CortexM3\ARM_GCC_493\Debug\Node-Beaver_FE3.a(CyLib.o)
 .text.CyXTAL_Start
                0x00000000       0xd0 .\CortexM3\ARM_GCC_493\Debug\Node-Beaver_FE3.a(CyLib.o)
 .text.CyXTAL_Stop
                0x00000000       0x20 .\CortexM3\ARM_GCC_493\Debug\Node-Beaver_FE3.a(CyLib.o)
 .text.CyXTAL_EnableErrStatus
                0x00000000       0x20 .\CortexM3\ARM_GCC_493\Debug\Node-Beaver_FE3.a(CyLib.o)
 .text.CyXTAL_DisableErrStatus
                0x00000000       0x20 .\CortexM3\ARM_GCC_493\Debug\Node-Beaver_FE3.a(CyLib.o)
 .text.CyXTAL_ReadStatus
                0x00000000       0x28 .\CortexM3\ARM_GCC_493\Debug\Node-Beaver_FE3.a(CyLib.o)
 .text.CyXTAL_EnableFaultRecovery
                0x00000000       0x20 .\CortexM3\ARM_GCC_493\Debug\Node-Beaver_FE3.a(CyLib.o)
 .text.CyXTAL_DisableFaultRecovery
                0x00000000       0x20 .\CortexM3\ARM_GCC_493\Debug\Node-Beaver_FE3.a(CyLib.o)
 .text.CyXTAL_SetStartup
                0x00000000       0x34 .\CortexM3\ARM_GCC_493\Debug\Node-Beaver_FE3.a(CyLib.o)
 .text.CyXTAL_SetFbVoltage
                0x00000000       0x34 .\CortexM3\ARM_GCC_493\Debug\Node-Beaver_FE3.a(CyLib.o)
 .text.CyXTAL_SetWdVoltage
                0x00000000       0x38 .\CortexM3\ARM_GCC_493\Debug\Node-Beaver_FE3.a(CyLib.o)
 .text.CyDelayFreq
                0x00000000       0x7c .\CortexM3\ARM_GCC_493\Debug\Node-Beaver_FE3.a(CyLib.o)
 .text.CyWdtStart
                0x00000000       0x8c .\CortexM3\ARM_GCC_493\Debug\Node-Beaver_FE3.a(CyLib.o)
 .text.CyWdtClear
                0x00000000       0x18 .\CortexM3\ARM_GCC_493\Debug\Node-Beaver_FE3.a(CyLib.o)
 .text.CyVdLvDigitEnable
                0x00000000       0xcc .\CortexM3\ARM_GCC_493\Debug\Node-Beaver_FE3.a(CyLib.o)
 .text.CyVdLvAnalogEnable
                0x00000000       0xc8 .\CortexM3\ARM_GCC_493\Debug\Node-Beaver_FE3.a(CyLib.o)
 .text.CyVdLvDigitDisable
                0x00000000       0x48 .\CortexM3\ARM_GCC_493\Debug\Node-Beaver_FE3.a(CyLib.o)
 .text.CyVdLvAnalogDisable
                0x00000000       0x40 .\CortexM3\ARM_GCC_493\Debug\Node-Beaver_FE3.a(CyLib.o)
 .text.CyVdHvAnalogEnable
                0x00000000       0x78 .\CortexM3\ARM_GCC_493\Debug\Node-Beaver_FE3.a(CyLib.o)
 .text.CyVdHvAnalogDisable
                0x00000000       0x2c .\CortexM3\ARM_GCC_493\Debug\Node-Beaver_FE3.a(CyLib.o)
 .text.CyVdStickyStatus
                0x00000000       0x5c .\CortexM3\ARM_GCC_493\Debug\Node-Beaver_FE3.a(CyLib.o)
 .text.CyVdRealTimeStatus
                0x00000000       0x30 .\CortexM3\ARM_GCC_493\Debug\Node-Beaver_FE3.a(CyLib.o)
 .text.CyDisableInts
                0x00000000       0x34 .\CortexM3\ARM_GCC_493\Debug\Node-Beaver_FE3.a(CyLib.o)
 .text.CyEnableInts
                0x00000000       0x28 .\CortexM3\ARM_GCC_493\Debug\Node-Beaver_FE3.a(CyLib.o)
 .text.CyFlushCache
                0x00000000       0x58 .\CortexM3\ARM_GCC_493\Debug\Node-Beaver_FE3.a(CyLib.o)
 .text.CyIntSetSysVector
                0x00000000       0x4c .\CortexM3\ARM_GCC_493\Debug\Node-Beaver_FE3.a(CyLib.o)
 .text.CyIntGetSysVector
                0x00000000       0x38 .\CortexM3\ARM_GCC_493\Debug\Node-Beaver_FE3.a(CyLib.o)
 .text.CyIntGetVector
                0x00000000       0x38 .\CortexM3\ARM_GCC_493\Debug\Node-Beaver_FE3.a(CyLib.o)
 .text.CyIntGetPriority
                0x00000000       0x38 .\CortexM3\ARM_GCC_493\Debug\Node-Beaver_FE3.a(CyLib.o)
 .text.CyIntGetState
                0x00000000       0x44 .\CortexM3\ARM_GCC_493\Debug\Node-Beaver_FE3.a(CyLib.o)
 .text.CySysTickStart
                0x00000000       0x20 .\CortexM3\ARM_GCC_493\Debug\Node-Beaver_FE3.a(CyLib.o)
 .text.CySysTickInit
                0x00000000       0x68 .\CortexM3\ARM_GCC_493\Debug\Node-Beaver_FE3.a(CyLib.o)
 .text.CySysTickEnable
                0x00000000       0x1c .\CortexM3\ARM_GCC_493\Debug\Node-Beaver_FE3.a(CyLib.o)
 .text.CySysTickStop
                0x00000000       0x1c .\CortexM3\ARM_GCC_493\Debug\Node-Beaver_FE3.a(CyLib.o)
 .text.CySysTickEnableInterrupt
                0x00000000       0x1c .\CortexM3\ARM_GCC_493\Debug\Node-Beaver_FE3.a(CyLib.o)
 .text.CySysTickDisableInterrupt
                0x00000000       0x1c .\CortexM3\ARM_GCC_493\Debug\Node-Beaver_FE3.a(CyLib.o)
 .text.CySysTickSetReload
                0x00000000       0x20 .\CortexM3\ARM_GCC_493\Debug\Node-Beaver_FE3.a(CyLib.o)
 .text.CySysTickGetReload
                0x00000000       0x1c .\CortexM3\ARM_GCC_493\Debug\Node-Beaver_FE3.a(CyLib.o)
 .text.CySysTickGetValue
                0x00000000       0x1c .\CortexM3\ARM_GCC_493\Debug\Node-Beaver_FE3.a(CyLib.o)
 .text.CySysTickSetClockSource
                0x00000000       0x38 .\CortexM3\ARM_GCC_493\Debug\Node-Beaver_FE3.a(CyLib.o)
 .text.CySysTickGetClockSource
                0x00000000       0x1c .\CortexM3\ARM_GCC_493\Debug\Node-Beaver_FE3.a(CyLib.o)
 .text.CySysTickGetCountFlag
                0x00000000       0x1c .\CortexM3\ARM_GCC_493\Debug\Node-Beaver_FE3.a(CyLib.o)
 .text.CySysTickClear
                0x00000000       0x18 .\CortexM3\ARM_GCC_493\Debug\Node-Beaver_FE3.a(CyLib.o)
 .text.CySysTickSetCallback
                0x00000000       0x30 .\CortexM3\ARM_GCC_493\Debug\Node-Beaver_FE3.a(CyLib.o)
 .text.CySysTickGetCallback
                0x00000000       0x20 .\CortexM3\ARM_GCC_493\Debug\Node-Beaver_FE3.a(CyLib.o)
 .text.CySysTickServiceCallbacks
                0x00000000       0x44 .\CortexM3\ARM_GCC_493\Debug\Node-Beaver_FE3.a(CyLib.o)
 .text          0x00000000        0x0 .\CortexM3\ARM_GCC_493\Debug\Node-Beaver_FE3.a(cyPm.o)
 .data          0x00000000        0x0 .\CortexM3\ARM_GCC_493\Debug\Node-Beaver_FE3.a(cyPm.o)
 .bss           0x00000000       0x44 .\CortexM3\ARM_GCC_493\Debug\Node-Beaver_FE3.a(cyPm.o)
 .rodata        0x00000000       0x10 .\CortexM3\ARM_GCC_493\Debug\Node-Beaver_FE3.a(cyPm.o)
 .text.CyPmSaveClocks
                0x00000000      0x284 .\CortexM3\ARM_GCC_493\Debug\Node-Beaver_FE3.a(cyPm.o)
 .text.CyPmRestoreClocks
                0x00000000      0x300 .\CortexM3\ARM_GCC_493\Debug\Node-Beaver_FE3.a(cyPm.o)
 .text.CyPmAltAct
                0x00000000       0xb8 .\CortexM3\ARM_GCC_493\Debug\Node-Beaver_FE3.a(cyPm.o)
 .text.CyPmSleep
                0x00000000      0x170 .\CortexM3\ARM_GCC_493\Debug\Node-Beaver_FE3.a(cyPm.o)
 .text.CyPmHibernate
                0x00000000        0xc .\CortexM3\ARM_GCC_493\Debug\Node-Beaver_FE3.a(cyPm.o)
 .text.CyPmHibernateEx
                0x00000000      0x158 .\CortexM3\ARM_GCC_493\Debug\Node-Beaver_FE3.a(cyPm.o)
 .text.CyPmReadStatus
                0x00000000       0x5c .\CortexM3\ARM_GCC_493\Debug\Node-Beaver_FE3.a(cyPm.o)
 .text.CyPmHibSaveSet
                0x00000000       0xd4 .\CortexM3\ARM_GCC_493\Debug\Node-Beaver_FE3.a(cyPm.o)
 .text.CyPmHibRestore
                0x00000000       0x68 .\CortexM3\ARM_GCC_493\Debug\Node-Beaver_FE3.a(cyPm.o)
 .text.CyPmCtwSetInterval
                0x00000000       0x90 .\CortexM3\ARM_GCC_493\Debug\Node-Beaver_FE3.a(cyPm.o)
 .text.CyPmOppsSet
                0x00000000       0x40 .\CortexM3\ARM_GCC_493\Debug\Node-Beaver_FE3.a(cyPm.o)
 .text.CyPmFtwSetInterval
                0x00000000       0x90 .\CortexM3\ARM_GCC_493\Debug\Node-Beaver_FE3.a(cyPm.o)
 .text.CyPmHibSlpSaveSet
                0x00000000      0x280 .\CortexM3\ARM_GCC_493\Debug\Node-Beaver_FE3.a(cyPm.o)
 .text.CyPmHibSlpRestore
                0x00000000      0x188 .\CortexM3\ARM_GCC_493\Debug\Node-Beaver_FE3.a(cyPm.o)
 .text.CyPmHviLviSaveDisable
                0x00000000       0xd4 .\CortexM3\ARM_GCC_493\Debug\Node-Beaver_FE3.a(cyPm.o)
 .text.CyPmHviLviRestore
                0x00000000       0x54 .\CortexM3\ARM_GCC_493\Debug\Node-Beaver_FE3.a(cyPm.o)
 .text          0x00000000        0x0 .\CortexM3\ARM_GCC_493\Debug\Node-Beaver_FE3.a(CAN_1.o)
 .data          0x00000000        0x0 .\CortexM3\ARM_GCC_493\Debug\Node-Beaver_FE3.a(CAN_1.o)
 .text.CAN_1_Stop
                0x00000000       0x94 .\CortexM3\ARM_GCC_493\Debug\Node-Beaver_FE3.a(CAN_1.o)
 .text.CAN_1_GlobalIntDisable
                0x00000000       0x40 .\CortexM3\ARM_GCC_493\Debug\Node-Beaver_FE3.a(CAN_1.o)
 .text.CAN_1_SetOpMode
                0x00000000       0xc8 .\CortexM3\ARM_GCC_493\Debug\Node-Beaver_FE3.a(CAN_1.o)
 .text.CAN_1_RXRegisterInit
                0x00000000       0xa4 .\CortexM3\ARM_GCC_493\Debug\Node-Beaver_FE3.a(CAN_1.o)
 .text.CAN_1_GetTXErrorFlag
                0x00000000       0x28 .\CortexM3\ARM_GCC_493\Debug\Node-Beaver_FE3.a(CAN_1.o)
 .text.CAN_1_GetRXErrorFlag
                0x00000000       0x28 .\CortexM3\ARM_GCC_493\Debug\Node-Beaver_FE3.a(CAN_1.o)
 .text.CAN_1_GetTXErrorCount
                0x00000000       0x18 .\CortexM3\ARM_GCC_493\Debug\Node-Beaver_FE3.a(CAN_1.o)
 .text.CAN_1_GetRXErrorCount
                0x00000000       0x18 .\CortexM3\ARM_GCC_493\Debug\Node-Beaver_FE3.a(CAN_1.o)
 .text.CAN_1_GetErrorState
                0x00000000       0x20 .\CortexM3\ARM_GCC_493\Debug\Node-Beaver_FE3.a(CAN_1.o)
 .text          0x00000000        0x0 .\CortexM3\ARM_GCC_493\Debug\Node-Beaver_FE3.a(CAN_1_INT.o)
 .data          0x00000000        0x0 .\CortexM3\ARM_GCC_493\Debug\Node-Beaver_FE3.a(CAN_1_INT.o)
 .bss           0x00000000        0x0 .\CortexM3\ARM_GCC_493\Debug\Node-Beaver_FE3.a(CAN_1_INT.o)
 .text          0x00000000        0x0 .\CortexM3\ARM_GCC_493\Debug\Node-Beaver_FE3.a(CAN_1_TX_RX_func.o)
 .data          0x00000000        0x0 .\CortexM3\ARM_GCC_493\Debug\Node-Beaver_FE3.a(CAN_1_TX_RX_func.o)
 .bss           0x00000000        0x0 .\CortexM3\ARM_GCC_493\Debug\Node-Beaver_FE3.a(CAN_1_TX_RX_func.o)
 .text.CAN_1_SendMsg
                0x00000000      0x170 .\CortexM3\ARM_GCC_493\Debug\Node-Beaver_FE3.a(CAN_1_TX_RX_func.o)
 .text.CAN_1_TxCancel
                0x00000000       0x44 .\CortexM3\ARM_GCC_493\Debug\Node-Beaver_FE3.a(CAN_1_TX_RX_func.o)
 .text          0x00000000        0x0 .\CortexM3\ARM_GCC_493\Debug\Node-Beaver_FE3.a(LED.o)
 .data          0x00000000        0x0 .\CortexM3\ARM_GCC_493\Debug\Node-Beaver_FE3.a(LED.o)
 .bss           0x00000000        0x0 .\CortexM3\ARM_GCC_493\Debug\Node-Beaver_FE3.a(LED.o)
 .text.LED_SetDriveMode
                0x00000000       0x38 .\CortexM3\ARM_GCC_493\Debug\Node-Beaver_FE3.a(LED.o)
 .text.LED_Read
                0x00000000       0x1c .\CortexM3\ARM_GCC_493\Debug\Node-Beaver_FE3.a(LED.o)
 .text.LED_ReadDataReg
                0x00000000       0x1c .\CortexM3\ARM_GCC_493\Debug\Node-Beaver_FE3.a(LED.o)
 .text          0x00000000        0x0 .\CortexM3\ARM_GCC_493\Debug\Node-Beaver_FE3.a(USBUART_1.o)
 .data          0x00000000        0x0 .\CortexM3\ARM_GCC_493\Debug\Node-Beaver_FE3.a(USBUART_1.o)
 .text.USBUART_1_Stop
                0x00000000      0x10c .\CortexM3\ARM_GCC_493\Debug\Node-Beaver_FE3.a(USBUART_1.o)
 .text.USBUART_1_CheckActivity
                0x00000000       0x38 .\CortexM3\ARM_GCC_493\Debug\Node-Beaver_FE3.a(USBUART_1.o)
 .text.USBUART_1_GetConfiguration
                0x00000000       0x18 .\CortexM3\ARM_GCC_493\Debug\Node-Beaver_FE3.a(USBUART_1.o)
 .text.USBUART_1_IsConfigurationChanged
                0x00000000       0x34 .\CortexM3\ARM_GCC_493\Debug\Node-Beaver_FE3.a(USBUART_1.o)
 .text.USBUART_1_GetInterfaceSetting
                0x00000000       0x24 .\CortexM3\ARM_GCC_493\Debug\Node-Beaver_FE3.a(USBUART_1.o)
 .text.USBUART_1_GetEPState
                0x00000000       0x2c .\CortexM3\ARM_GCC_493\Debug\Node-Beaver_FE3.a(USBUART_1.o)
 .text.USBUART_1_GetEPCount
                0x00000000       0x60 .\CortexM3\ARM_GCC_493\Debug\Node-Beaver_FE3.a(USBUART_1.o)
 .text.USBUART_1_LoadInEP
                0x00000000       0xf8 .\CortexM3\ARM_GCC_493\Debug\Node-Beaver_FE3.a(USBUART_1.o)
 .text.USBUART_1_ReadOutEP
                0x00000000       0x8c .\CortexM3\ARM_GCC_493\Debug\Node-Beaver_FE3.a(USBUART_1.o)
 .text.USBUART_1_EnableOutEP
                0x00000000       0x54 .\CortexM3\ARM_GCC_493\Debug\Node-Beaver_FE3.a(USBUART_1.o)
 .text.USBUART_1_DisableOutEP
                0x00000000       0x30 .\CortexM3\ARM_GCC_493\Debug\Node-Beaver_FE3.a(USBUART_1.o)
 .text.USBUART_1_Force
                0x00000000       0x20 .\CortexM3\ARM_GCC_493\Debug\Node-Beaver_FE3.a(USBUART_1.o)
 .text.USBUART_1_GetEPAckState
                0x00000000       0x40 .\CortexM3\ARM_GCC_493\Debug\Node-Beaver_FE3.a(USBUART_1.o)
 .text.USBUART_1_SetPowerStatus
                0x00000000       0x40 .\CortexM3\ARM_GCC_493\Debug\Node-Beaver_FE3.a(USBUART_1.o)
 .text.USBUART_1_RWUEnabled
                0x00000000       0x30 .\CortexM3\ARM_GCC_493\Debug\Node-Beaver_FE3.a(USBUART_1.o)
 .text.USBUART_1_GetDeviceAddress
                0x00000000       0x20 .\CortexM3\ARM_GCC_493\Debug\Node-Beaver_FE3.a(USBUART_1.o)
 .text.USBUART_1_EnableSofInt
                0x00000000       0x18 .\CortexM3\ARM_GCC_493\Debug\Node-Beaver_FE3.a(USBUART_1.o)
 .text.USBUART_1_DisableSofInt
                0x00000000       0x18 .\CortexM3\ARM_GCC_493\Debug\Node-Beaver_FE3.a(USBUART_1.o)
 .text          0x00000000        0x0 .\CortexM3\ARM_GCC_493\Debug\Node-Beaver_FE3.a(USBUART_1_cdc.o)
 .bss           0x00000000        0x1 .\CortexM3\ARM_GCC_493\Debug\Node-Beaver_FE3.a(USBUART_1_cdc.o)
 .text.USBUART_1_CDC_Init
                0x00000000       0xa8 .\CortexM3\ARM_GCC_493\Debug\Node-Beaver_FE3.a(USBUART_1_cdc.o)
 .text.USBUART_1_PutData
                0x00000000       0x6c .\CortexM3\ARM_GCC_493\Debug\Node-Beaver_FE3.a(USBUART_1_cdc.o)
 .text.USBUART_1_StrLen
                0x00000000       0x30 .\CortexM3\ARM_GCC_493\Debug\Node-Beaver_FE3.a(USBUART_1_cdc.o)
 .text.USBUART_1_PutString
                0x00000000       0xdc .\CortexM3\ARM_GCC_493\Debug\Node-Beaver_FE3.a(USBUART_1_cdc.o)
 .text.USBUART_1_PutChar
                0x00000000       0x38 .\CortexM3\ARM_GCC_493\Debug\Node-Beaver_FE3.a(USBUART_1_cdc.o)
 .rodata        0x00000000        0x4 .\CortexM3\ARM_GCC_493\Debug\Node-Beaver_FE3.a(USBUART_1_cdc.o)
 .text.USBUART_1_PutCRLF
                0x00000000       0x38 .\CortexM3\ARM_GCC_493\Debug\Node-Beaver_FE3.a(USBUART_1_cdc.o)
 .text.USBUART_1_GetCount
                0x00000000       0x50 .\CortexM3\ARM_GCC_493\Debug\Node-Beaver_FE3.a(USBUART_1_cdc.o)
 .text.USBUART_1_DataIsReady
                0x00000000       0x24 .\CortexM3\ARM_GCC_493\Debug\Node-Beaver_FE3.a(USBUART_1_cdc.o)
 .text.USBUART_1_CDCIsReady
                0x00000000       0x24 .\CortexM3\ARM_GCC_493\Debug\Node-Beaver_FE3.a(USBUART_1_cdc.o)
 .text.USBUART_1_GetData
                0x00000000       0x3c .\CortexM3\ARM_GCC_493\Debug\Node-Beaver_FE3.a(USBUART_1_cdc.o)
 .text.USBUART_1_GetAll
                0x00000000       0x50 .\CortexM3\ARM_GCC_493\Debug\Node-Beaver_FE3.a(USBUART_1_cdc.o)
 .text.USBUART_1_GetChar
                0x00000000       0x34 .\CortexM3\ARM_GCC_493\Debug\Node-Beaver_FE3.a(USBUART_1_cdc.o)
 .text.USBUART_1_IsLineChanged
                0x00000000       0x58 .\CortexM3\ARM_GCC_493\Debug\Node-Beaver_FE3.a(USBUART_1_cdc.o)
 .text.USBUART_1_GetDTERate
                0x00000000       0x8c .\CortexM3\ARM_GCC_493\Debug\Node-Beaver_FE3.a(USBUART_1_cdc.o)
 .text.USBUART_1_GetCharFormat
                0x00000000       0x2c .\CortexM3\ARM_GCC_493\Debug\Node-Beaver_FE3.a(USBUART_1_cdc.o)
 .text.USBUART_1_GetParityType
                0x00000000       0x2c .\CortexM3\ARM_GCC_493\Debug\Node-Beaver_FE3.a(USBUART_1_cdc.o)
 .text.USBUART_1_GetDataBits
                0x00000000       0x2c .\CortexM3\ARM_GCC_493\Debug\Node-Beaver_FE3.a(USBUART_1_cdc.o)
 .text.USBUART_1_GetLineControl
                0x00000000       0x24 .\CortexM3\ARM_GCC_493\Debug\Node-Beaver_FE3.a(USBUART_1_cdc.o)
 .text.USBUART_1_SendSerialState
                0x00000000       0xa8 .\CortexM3\ARM_GCC_493\Debug\Node-Beaver_FE3.a(USBUART_1_cdc.o)
 .text.USBUART_1_GetSerialState
                0x00000000       0x24 .\CortexM3\ARM_GCC_493\Debug\Node-Beaver_FE3.a(USBUART_1_cdc.o)
 .text.USBUART_1_NotificationIsReady
                0x00000000       0x38 .\CortexM3\ARM_GCC_493\Debug\Node-Beaver_FE3.a(USBUART_1_cdc.o)
 .text.USBUART_1_SetComPort
                0x00000000       0x30 .\CortexM3\ARM_GCC_493\Debug\Node-Beaver_FE3.a(USBUART_1_cdc.o)
 .text.USBUART_1_GetComPort
                0x00000000       0x18 .\CortexM3\ARM_GCC_493\Debug\Node-Beaver_FE3.a(USBUART_1_cdc.o)
 .text          0x00000000        0x0 .\CortexM3\ARM_GCC_493\Debug\Node-Beaver_FE3.a(USBUART_1_drv.o)
 .data          0x00000000        0x0 .\CortexM3\ARM_GCC_493\Debug\Node-Beaver_FE3.a(USBUART_1_drv.o)
 .bss           0x00000000        0x0 .\CortexM3\ARM_GCC_493\Debug\Node-Beaver_FE3.a(USBUART_1_drv.o)
 .text          0x00000000        0x0 .\CortexM3\ARM_GCC_493\Debug\Node-Beaver_FE3.a(USBUART_1_episr.o)
 .data          0x00000000        0x0 .\CortexM3\ARM_GCC_493\Debug\Node-Beaver_FE3.a(USBUART_1_episr.o)
 .bss           0x00000000        0x0 .\CortexM3\ARM_GCC_493\Debug\Node-Beaver_FE3.a(USBUART_1_episr.o)
 .text          0x00000000        0x0 .\CortexM3\ARM_GCC_493\Debug\Node-Beaver_FE3.a(USBUART_1_pm.o)
 .data          0x00000000        0x0 .\CortexM3\ARM_GCC_493\Debug\Node-Beaver_FE3.a(USBUART_1_pm.o)
 .bss           0x00000000        0x4 .\CortexM3\ARM_GCC_493\Debug\Node-Beaver_FE3.a(USBUART_1_pm.o)
 .text.USBUART_1_SaveConfig
                0x00000000        0xc .\CortexM3\ARM_GCC_493\Debug\Node-Beaver_FE3.a(USBUART_1_pm.o)
 .text.USBUART_1_RestoreConfig
                0x00000000       0x1c .\CortexM3\ARM_GCC_493\Debug\Node-Beaver_FE3.a(USBUART_1_pm.o)
 .text.USBUART_1_Suspend
                0x00000000      0x11c .\CortexM3\ARM_GCC_493\Debug\Node-Beaver_FE3.a(USBUART_1_pm.o)
 .text.USBUART_1_Resume
                0x00000000      0x100 .\CortexM3\ARM_GCC_493\Debug\Node-Beaver_FE3.a(USBUART_1_pm.o)
 .text          0x00000000        0x0 .\CortexM3\ARM_GCC_493\Debug\Node-Beaver_FE3.a(USBUART_1_std.o)
 .data          0x00000000        0x0 .\CortexM3\ARM_GCC_493\Debug\Node-Beaver_FE3.a(USBUART_1_std.o)
 .text.USBUART_1_EpStateInit
                0x00000000       0x68 .\CortexM3\ARM_GCC_493\Debug\Node-Beaver_FE3.a(USBUART_1_std.o)
 .text.USBUART_1_TerminateEP
                0x00000000       0xb4 .\CortexM3\ARM_GCC_493\Debug\Node-Beaver_FE3.a(USBUART_1_std.o)
 .text          0x00000000        0x0 .\CortexM3\ARM_GCC_493\Debug\Node-Beaver_FE3.a(USBUART_1_vnd.o)
 .data          0x00000000        0x0 .\CortexM3\ARM_GCC_493\Debug\Node-Beaver_FE3.a(USBUART_1_vnd.o)
 .bss           0x00000000        0x0 .\CortexM3\ARM_GCC_493\Debug\Node-Beaver_FE3.a(USBUART_1_vnd.o)
 .text          0x00000000        0x0 .\CortexM3\ARM_GCC_493\Debug\Node-Beaver_FE3.a(USBUART_1_Dp.o)
 .data          0x00000000        0x0 .\CortexM3\ARM_GCC_493\Debug\Node-Beaver_FE3.a(USBUART_1_Dp.o)
 .bss           0x00000000        0x0 .\CortexM3\ARM_GCC_493\Debug\Node-Beaver_FE3.a(USBUART_1_Dp.o)
 .text.USBUART_1_Dp_Write
                0x00000000       0x3c .\CortexM3\ARM_GCC_493\Debug\Node-Beaver_FE3.a(USBUART_1_Dp.o)
 .text.USBUART_1_Dp_SetDriveMode
                0x00000000       0x38 .\CortexM3\ARM_GCC_493\Debug\Node-Beaver_FE3.a(USBUART_1_Dp.o)
 .text.USBUART_1_Dp_Read
                0x00000000       0x20 .\CortexM3\ARM_GCC_493\Debug\Node-Beaver_FE3.a(USBUART_1_Dp.o)
 .text.USBUART_1_Dp_ReadDataReg
                0x00000000       0x20 .\CortexM3\ARM_GCC_493\Debug\Node-Beaver_FE3.a(USBUART_1_Dp.o)
 .text.USBUART_1_Dp_SetInterruptMode
                0x00000000       0x30 .\CortexM3\ARM_GCC_493\Debug\Node-Beaver_FE3.a(USBUART_1_Dp.o)
 .text          0x00000000        0x0 .\CortexM3\ARM_GCC_493\Debug\Node-Beaver_FE3.a(power_isr.o)
 .data          0x00000000        0x0 .\CortexM3\ARM_GCC_493\Debug\Node-Beaver_FE3.a(power_isr.o)
 .bss           0x00000000        0x0 .\CortexM3\ARM_GCC_493\Debug\Node-Beaver_FE3.a(power_isr.o)
 .text.power_isr_Start
                0x00000000       0x20 .\CortexM3\ARM_GCC_493\Debug\Node-Beaver_FE3.a(power_isr.o)
 .text.power_isr_Stop
                0x00000000       0x14 .\CortexM3\ARM_GCC_493\Debug\Node-Beaver_FE3.a(power_isr.o)
 .text.power_isr_Interrupt
                0x00000000       0x20 .\CortexM3\ARM_GCC_493\Debug\Node-Beaver_FE3.a(power_isr.o)
 .text.power_isr_GetVector
                0x00000000       0x20 .\CortexM3\ARM_GCC_493\Debug\Node-Beaver_FE3.a(power_isr.o)
 .text.power_isr_GetPriority
                0x00000000       0x24 .\CortexM3\ARM_GCC_493\Debug\Node-Beaver_FE3.a(power_isr.o)
 .text.power_isr_GetState
                0x00000000       0x24 .\CortexM3\ARM_GCC_493\Debug\Node-Beaver_FE3.a(power_isr.o)
 .text.power_isr_SetPending
                0x00000000       0x18 .\CortexM3\ARM_GCC_493\Debug\Node-Beaver_FE3.a(power_isr.o)
 .text          0x00000000        0x0 .\CortexM3\ARM_GCC_493\Debug\Node-Beaver_FE3.a(rtc_i2c.o)
 .data          0x00000000        0x0 .\CortexM3\ARM_GCC_493\Debug\Node-Beaver_FE3.a(rtc_i2c.o)
 .text.rtc_i2c_Stop
                0x00000000      0x10c .\CortexM3\ARM_GCC_493\Debug\Node-Beaver_FE3.a(rtc_i2c.o)
 .text          0x00000000        0x0 .\CortexM3\ARM_GCC_493\Debug\Node-Beaver_FE3.a(rtc_i2c_INT.o)
 .data          0x00000000        0x0 .\CortexM3\ARM_GCC_493\Debug\Node-Beaver_FE3.a(rtc_i2c_INT.o)
 .bss           0x00000000        0x0 .\CortexM3\ARM_GCC_493\Debug\Node-Beaver_FE3.a(rtc_i2c_INT.o)
 .text          0x00000000        0x0 .\CortexM3\ARM_GCC_493\Debug\Node-Beaver_FE3.a(rtc_i2c_PM.o)
 .data          0x00000000        0x8 .\CortexM3\ARM_GCC_493\Debug\Node-Beaver_FE3.a(rtc_i2c_PM.o)
 .bss           0x00000000        0x0 .\CortexM3\ARM_GCC_493\Debug\Node-Beaver_FE3.a(rtc_i2c_PM.o)
 .text.rtc_i2c_SaveConfig
                0x00000000       0x58 .\CortexM3\ARM_GCC_493\Debug\Node-Beaver_FE3.a(rtc_i2c_PM.o)
 .text.rtc_i2c_Sleep
                0x00000000       0x38 .\CortexM3\ARM_GCC_493\Debug\Node-Beaver_FE3.a(rtc_i2c_PM.o)
 .text.rtc_i2c_RestoreConfig
                0x00000000       0x8c .\CortexM3\ARM_GCC_493\Debug\Node-Beaver_FE3.a(rtc_i2c_PM.o)
 .text.rtc_i2c_Wakeup
                0x00000000       0x28 .\CortexM3\ARM_GCC_493\Debug\Node-Beaver_FE3.a(rtc_i2c_PM.o)
 .text          0x00000000        0x0 .\CortexM3\ARM_GCC_493\Debug\Node-Beaver_FE3.a(rtc_i2c_MASTER.o)
 .data          0x00000000        0x0 .\CortexM3\ARM_GCC_493\Debug\Node-Beaver_FE3.a(rtc_i2c_MASTER.o)
 .bss           0x00000000        0x0 .\CortexM3\ARM_GCC_493\Debug\Node-Beaver_FE3.a(rtc_i2c_MASTER.o)
 .text.rtc_i2c_MasterWriteBuf
                0x00000000      0x10c .\CortexM3\ARM_GCC_493\Debug\Node-Beaver_FE3.a(rtc_i2c_MASTER.o)
 .text.rtc_i2c_MasterReadBuf
                0x00000000      0x110 .\CortexM3\ARM_GCC_493\Debug\Node-Beaver_FE3.a(rtc_i2c_MASTER.o)
 .text.rtc_i2c_MasterSendRestart
                0x00000000       0xa4 .\CortexM3\ARM_GCC_493\Debug\Node-Beaver_FE3.a(rtc_i2c_MASTER.o)
 .text.rtc_i2c_MasterStatus
                0x00000000       0x54 .\CortexM3\ARM_GCC_493\Debug\Node-Beaver_FE3.a(rtc_i2c_MASTER.o)
 .text.rtc_i2c_MasterClearStatus
                0x00000000       0x3c .\CortexM3\ARM_GCC_493\Debug\Node-Beaver_FE3.a(rtc_i2c_MASTER.o)
 .text.rtc_i2c_MasterGetReadBufSize
                0x00000000       0x18 .\CortexM3\ARM_GCC_493\Debug\Node-Beaver_FE3.a(rtc_i2c_MASTER.o)
 .text.rtc_i2c_MasterGetWriteBufSize
                0x00000000       0x18 .\CortexM3\ARM_GCC_493\Debug\Node-Beaver_FE3.a(rtc_i2c_MASTER.o)
 .text.rtc_i2c_MasterClearReadBuf
                0x00000000       0x44 .\CortexM3\ARM_GCC_493\Debug\Node-Beaver_FE3.a(rtc_i2c_MASTER.o)
 .text.rtc_i2c_MasterClearWriteBuf
                0x00000000       0x44 .\CortexM3\ARM_GCC_493\Debug\Node-Beaver_FE3.a(rtc_i2c_MASTER.o)
 .text          0x00000000        0x0 .\CortexM3\ARM_GCC_493\Debug\Node-Beaver_FE3.a(time_refresh_isr.o)
 .data          0x00000000        0x0 .\CortexM3\ARM_GCC_493\Debug\Node-Beaver_FE3.a(time_refresh_isr.o)
 .bss           0x00000000        0x0 .\CortexM3\ARM_GCC_493\Debug\Node-Beaver_FE3.a(time_refresh_isr.o)
 .text.time_refresh_isr_Start
                0x00000000       0x20 .\CortexM3\ARM_GCC_493\Debug\Node-Beaver_FE3.a(time_refresh_isr.o)
 .text.time_refresh_isr_Stop
                0x00000000       0x14 .\CortexM3\ARM_GCC_493\Debug\Node-Beaver_FE3.a(time_refresh_isr.o)
 .text.time_refresh_isr_Interrupt
                0x00000000        0xc .\CortexM3\ARM_GCC_493\Debug\Node-Beaver_FE3.a(time_refresh_isr.o)
 .text.time_refresh_isr_GetVector
                0x00000000       0x20 .\CortexM3\ARM_GCC_493\Debug\Node-Beaver_FE3.a(time_refresh_isr.o)
 .text.time_refresh_isr_GetPriority
                0x00000000       0x24 .\CortexM3\ARM_GCC_493\Debug\Node-Beaver_FE3.a(time_refresh_isr.o)
 .text.time_refresh_isr_GetState
                0x00000000       0x24 .\CortexM3\ARM_GCC_493\Debug\Node-Beaver_FE3.a(time_refresh_isr.o)
 .text.time_refresh_isr_SetPending
                0x00000000       0x18 .\CortexM3\ARM_GCC_493\Debug\Node-Beaver_FE3.a(time_refresh_isr.o)
 .text.time_refresh_isr_ClearPending
                0x00000000       0x18 .\CortexM3\ARM_GCC_493\Debug\Node-Beaver_FE3.a(time_refresh_isr.o)
 .text          0x00000000        0x0 .\CortexM3\ARM_GCC_493\Debug\Node-Beaver_FE3.a(millis_timer.o)
 .data          0x00000000        0x0 .\CortexM3\ARM_GCC_493\Debug\Node-Beaver_FE3.a(millis_timer.o)
 .text.millis_timer_Stop
                0x00000000       0x20 .\CortexM3\ARM_GCC_493\Debug\Node-Beaver_FE3.a(millis_timer.o)
 .text.millis_timer_SoftwareCapture
                0x00000000       0x14 .\CortexM3\ARM_GCC_493\Debug\Node-Beaver_FE3.a(millis_timer.o)
 .text.millis_timer_ReadControlRegister
                0x00000000       0x18 .\CortexM3\ARM_GCC_493\Debug\Node-Beaver_FE3.a(millis_timer.o)
 .text.millis_timer_WriteControlRegister
                0x00000000       0x20 .\CortexM3\ARM_GCC_493\Debug\Node-Beaver_FE3.a(millis_timer.o)
 .text.millis_timer_ReadPeriod
                0x00000000       0x18 .\CortexM3\ARM_GCC_493\Debug\Node-Beaver_FE3.a(millis_timer.o)
 .text          0x00000000        0x0 .\CortexM3\ARM_GCC_493\Debug\Node-Beaver_FE3.a(time_refresh_timer.o)
 .data          0x00000000        0x0 .\CortexM3\ARM_GCC_493\Debug\Node-Beaver_FE3.a(time_refresh_timer.o)
 .text.time_refresh_timer_Stop
                0x00000000       0x20 .\CortexM3\ARM_GCC_493\Debug\Node-Beaver_FE3.a(time_refresh_timer.o)
 .text.time_refresh_timer_SoftwareCapture
                0x00000000       0x14 .\CortexM3\ARM_GCC_493\Debug\Node-Beaver_FE3.a(time_refresh_timer.o)
 .text.time_refresh_timer_ReadControlRegister
                0x00000000       0x18 .\CortexM3\ARM_GCC_493\Debug\Node-Beaver_FE3.a(time_refresh_timer.o)
 .text.time_refresh_timer_WriteControlRegister
                0x00000000       0x20 .\CortexM3\ARM_GCC_493\Debug\Node-Beaver_FE3.a(time_refresh_timer.o)
 .text.time_refresh_timer_ReadPeriod
                0x00000000       0x1c .\CortexM3\ARM_GCC_493\Debug\Node-Beaver_FE3.a(time_refresh_timer.o)
 .text.time_refresh_timer_ReadCounter
                0x00000000       0x24 .\CortexM3\ARM_GCC_493\Debug\Node-Beaver_FE3.a(time_refresh_timer.o)
 .text          0x00000000        0x0 .\CortexM3\ARM_GCC_493\Debug\Node-Beaver_FE3.a(xbee_spi.o)
 .data          0x00000000        0x0 .\CortexM3\ARM_GCC_493\Debug\Node-Beaver_FE3.a(xbee_spi.o)
 .text.xbee_spi_Stop
                0x00000000       0x50 .\CortexM3\ARM_GCC_493\Debug\Node-Beaver_FE3.a(xbee_spi.o)
 .text.xbee_spi_DisableRxInt
                0x00000000        0xc .\CortexM3\ARM_GCC_493\Debug\Node-Beaver_FE3.a(xbee_spi.o)
 .text.xbee_spi_SetTxInterruptMode
                0x00000000       0x20 .\CortexM3\ARM_GCC_493\Debug\Node-Beaver_FE3.a(xbee_spi.o)
 .text.xbee_spi_SetRxInterruptMode
                0x00000000       0x20 .\CortexM3\ARM_GCC_493\Debug\Node-Beaver_FE3.a(xbee_spi.o)
 .text.xbee_spi_ReadRxData
                0x00000000       0x20 .\CortexM3\ARM_GCC_493\Debug\Node-Beaver_FE3.a(xbee_spi.o)
 .text.xbee_spi_GetRxBufferSize
                0x00000000       0x30 .\CortexM3\ARM_GCC_493\Debug\Node-Beaver_FE3.a(xbee_spi.o)
 .text.xbee_spi_GetTxBufferSize
                0x00000000       0x6c .\CortexM3\ARM_GCC_493\Debug\Node-Beaver_FE3.a(xbee_spi.o)
 .text.xbee_spi_ClearRxBuffer
                0x00000000       0x28 .\CortexM3\ARM_GCC_493\Debug\Node-Beaver_FE3.a(xbee_spi.o)
 .text.xbee_spi_ClearTxBuffer
                0x00000000       0x7c .\CortexM3\ARM_GCC_493\Debug\Node-Beaver_FE3.a(xbee_spi.o)
 .text.xbee_spi_EnableInt
                0x00000000       0x10 .\CortexM3\ARM_GCC_493\Debug\Node-Beaver_FE3.a(xbee_spi.o)
 .text.xbee_spi_DisableInt
                0x00000000       0x10 .\CortexM3\ARM_GCC_493\Debug\Node-Beaver_FE3.a(xbee_spi.o)
 .text.xbee_spi_SetInterruptMode
                0x00000000       0x30 .\CortexM3\ARM_GCC_493\Debug\Node-Beaver_FE3.a(xbee_spi.o)
 .text.xbee_spi_ReadStatus
                0x00000000       0x70 .\CortexM3\ARM_GCC_493\Debug\Node-Beaver_FE3.a(xbee_spi.o)
 .text          0x00000000        0x0 .\CortexM3\ARM_GCC_493\Debug\Node-Beaver_FE3.a(xbee_spi_INT.o)
 .data          0x00000000        0x0 .\CortexM3\ARM_GCC_493\Debug\Node-Beaver_FE3.a(xbee_spi_INT.o)
 .bss           0x00000000        0x0 .\CortexM3\ARM_GCC_493\Debug\Node-Beaver_FE3.a(xbee_spi_INT.o)
 .text.xbee_spi_RX_ISR
                0x00000000        0xc .\CortexM3\ARM_GCC_493\Debug\Node-Beaver_FE3.a(xbee_spi_INT.o)
 .text          0x00000000        0x0 .\CortexM3\ARM_GCC_493\Debug\Node-Beaver_FE3.a(xbee_spi_IntClock.o)
 .data          0x00000000        0x0 .\CortexM3\ARM_GCC_493\Debug\Node-Beaver_FE3.a(xbee_spi_IntClock.o)
 .bss           0x00000000        0x0 .\CortexM3\ARM_GCC_493\Debug\Node-Beaver_FE3.a(xbee_spi_IntClock.o)
 .text.xbee_spi_IntClock_Stop
                0x00000000       0x34 .\CortexM3\ARM_GCC_493\Debug\Node-Beaver_FE3.a(xbee_spi_IntClock.o)
 .text.xbee_spi_IntClock_StopBlock
                0x00000000       0xb0 .\CortexM3\ARM_GCC_493\Debug\Node-Beaver_FE3.a(xbee_spi_IntClock.o)
 .text.xbee_spi_IntClock_StandbyPower
                0x00000000       0x40 .\CortexM3\ARM_GCC_493\Debug\Node-Beaver_FE3.a(xbee_spi_IntClock.o)
 .text.xbee_spi_IntClock_SetDividerRegister
                0x00000000      0x160 .\CortexM3\ARM_GCC_493\Debug\Node-Beaver_FE3.a(xbee_spi_IntClock.o)
 .text.xbee_spi_IntClock_GetDividerRegister
                0x00000000       0x18 .\CortexM3\ARM_GCC_493\Debug\Node-Beaver_FE3.a(xbee_spi_IntClock.o)
 .text.xbee_spi_IntClock_SetModeRegister
                0x00000000       0x34 .\CortexM3\ARM_GCC_493\Debug\Node-Beaver_FE3.a(xbee_spi_IntClock.o)
 .text.xbee_spi_IntClock_ClearModeRegister
                0x00000000       0x34 .\CortexM3\ARM_GCC_493\Debug\Node-Beaver_FE3.a(xbee_spi_IntClock.o)
 .text.xbee_spi_IntClock_GetModeRegister
                0x00000000       0x20 .\CortexM3\ARM_GCC_493\Debug\Node-Beaver_FE3.a(xbee_spi_IntClock.o)
 .text.xbee_spi_IntClock_SetSourceRegister
                0x00000000       0xbc .\CortexM3\ARM_GCC_493\Debug\Node-Beaver_FE3.a(xbee_spi_IntClock.o)
 .text.xbee_spi_IntClock_GetSourceRegister
                0x00000000       0x20 .\CortexM3\ARM_GCC_493\Debug\Node-Beaver_FE3.a(xbee_spi_IntClock.o)
 .text          0x00000000        0x0 .\CortexM3\ARM_GCC_493\Debug\Node-Beaver_FE3.a(power_comp.o)
 .data          0x00000000        0x0 .\CortexM3\ARM_GCC_493\Debug\Node-Beaver_FE3.a(power_comp.o)
 .text.power_comp_Stop
                0x00000000       0x34 .\CortexM3\ARM_GCC_493\Debug\Node-Beaver_FE3.a(power_comp.o)
 .text.power_comp_GetCompare
                0x00000000       0x20 .\CortexM3\ARM_GCC_493\Debug\Node-Beaver_FE3.a(power_comp.o)
 .text.power_comp_trimAdjust
                0x00000000       0xbc .\CortexM3\ARM_GCC_493\Debug\Node-Beaver_FE3.a(power_comp.o)
 .text.power_comp_ZeroCal
                0x00000000       0xc4 .\CortexM3\ARM_GCC_493\Debug\Node-Beaver_FE3.a(power_comp.o)
 .text.power_comp_LoadTrim
                0x00000000       0x30 .\CortexM3\ARM_GCC_493\Debug\Node-Beaver_FE3.a(power_comp.o)
 .text.power_comp_PwrDwnOverrideEnable
                0x00000000       0x20 .\CortexM3\ARM_GCC_493\Debug\Node-Beaver_FE3.a(power_comp.o)
 .text.power_comp_PwrDwnOverrideDisable
                0x00000000       0x20 .\CortexM3\ARM_GCC_493\Debug\Node-Beaver_FE3.a(power_comp.o)
 .text          0x00000000        0x0 .\CortexM3\ARM_GCC_493\Debug\Node-Beaver_FE3.a(sd_timer.o)
 .data          0x00000000        0x0 .\CortexM3\ARM_GCC_493\Debug\Node-Beaver_FE3.a(sd_timer.o)
 .text.sd_timer_Stop
                0x00000000       0x20 .\CortexM3\ARM_GCC_493\Debug\Node-Beaver_FE3.a(sd_timer.o)
 .text.sd_timer_SoftwareCapture
                0x00000000       0x14 .\CortexM3\ARM_GCC_493\Debug\Node-Beaver_FE3.a(sd_timer.o)
 .text.sd_timer_ReadControlRegister
                0x00000000       0x18 .\CortexM3\ARM_GCC_493\Debug\Node-Beaver_FE3.a(sd_timer.o)
 .text.sd_timer_WriteControlRegister
                0x00000000       0x20 .\CortexM3\ARM_GCC_493\Debug\Node-Beaver_FE3.a(sd_timer.o)
 .text.sd_timer_ReadPeriod
                0x00000000       0x1c .\CortexM3\ARM_GCC_493\Debug\Node-Beaver_FE3.a(sd_timer.o)
 .text.sd_timer_ReadCounter
                0x00000000       0x24 .\CortexM3\ARM_GCC_493\Debug\Node-Beaver_FE3.a(sd_timer.o)
 .text          0x00000000        0x0 .\CortexM3\ARM_GCC_493\Debug\Node-Beaver_FE3.a(sd_isr.o)
 .data          0x00000000        0x0 .\CortexM3\ARM_GCC_493\Debug\Node-Beaver_FE3.a(sd_isr.o)
 .bss           0x00000000        0x0 .\CortexM3\ARM_GCC_493\Debug\Node-Beaver_FE3.a(sd_isr.o)
 .text.sd_isr_Start
                0x00000000       0x20 .\CortexM3\ARM_GCC_493\Debug\Node-Beaver_FE3.a(sd_isr.o)
 .text.sd_isr_Stop
                0x00000000       0x14 .\CortexM3\ARM_GCC_493\Debug\Node-Beaver_FE3.a(sd_isr.o)
 .text.sd_isr_Interrupt
                0x00000000        0xc .\CortexM3\ARM_GCC_493\Debug\Node-Beaver_FE3.a(sd_isr.o)
 .text.sd_isr_GetVector
                0x00000000       0x20 .\CortexM3\ARM_GCC_493\Debug\Node-Beaver_FE3.a(sd_isr.o)
 .text.sd_isr_GetPriority
                0x00000000       0x24 .\CortexM3\ARM_GCC_493\Debug\Node-Beaver_FE3.a(sd_isr.o)
 .text.sd_isr_GetState
                0x00000000       0x24 .\CortexM3\ARM_GCC_493\Debug\Node-Beaver_FE3.a(sd_isr.o)
 .text.sd_isr_SetPending
                0x00000000       0x18 .\CortexM3\ARM_GCC_493\Debug\Node-Beaver_FE3.a(sd_isr.o)
 .text.sd_isr_ClearPending
                0x00000000       0x18 .\CortexM3\ARM_GCC_493\Debug\Node-Beaver_FE3.a(sd_isr.o)
 .data          0x00000000        0x0 .\CortexM3\ARM_GCC_493\Debug\Node-Beaver_FE3.a(CyBootAsmGnu.o)
 .bss           0x00000000        0x0 .\CortexM3\ARM_GCC_493\Debug\Node-Beaver_FE3.a(CyBootAsmGnu.o)
 .text          0x00000000        0x0 .\CortexM3\ARM_GCC_493\Debug\Node-Beaver_FE3.a(CyFlash.o)
 .data          0x00000000        0x0 .\CortexM3\ARM_GCC_493\Debug\Node-Beaver_FE3.a(CyFlash.o)
 .bss           0x00000000        0x4 .\CortexM3\ARM_GCC_493\Debug\Node-Beaver_FE3.a(CyFlash.o)
 .text.CyFlash_Start
                0x00000000       0x8c .\CortexM3\ARM_GCC_493\Debug\Node-Beaver_FE3.a(CyFlash.o)
 .text.CyFlash_Stop
                0x00000000       0x44 .\CortexM3\ARM_GCC_493\Debug\Node-Beaver_FE3.a(CyFlash.o)
 .text.CySetTempInt
                0x00000000       0x7c .\CortexM3\ARM_GCC_493\Debug\Node-Beaver_FE3.a(CyFlash.o)
 .text.CyFlashGetSpcAlgorithm
                0x00000000       0x70 .\CortexM3\ARM_GCC_493\Debug\Node-Beaver_FE3.a(CyFlash.o)
 .text.CySetTemp
                0x00000000       0x24 .\CortexM3\ARM_GCC_493\Debug\Node-Beaver_FE3.a(CyFlash.o)
 .text.CySetFlashEEBuffer
                0x00000000       0x54 .\CortexM3\ARM_GCC_493\Debug\Node-Beaver_FE3.a(CyFlash.o)
 .text.CyWriteRowData
                0x00000000       0x3c .\CortexM3\ARM_GCC_493\Debug\Node-Beaver_FE3.a(CyFlash.o)
 .text.CyWriteRowFull
                0x00000000      0x158 .\CortexM3\ARM_GCC_493\Debug\Node-Beaver_FE3.a(CyFlash.o)
 .text.CyFlash_SetWaitCycles
                0x00000000       0xbc .\CortexM3\ARM_GCC_493\Debug\Node-Beaver_FE3.a(CyFlash.o)
 .text.CyEEPROM_Start
                0x00000000       0x8c .\CortexM3\ARM_GCC_493\Debug\Node-Beaver_FE3.a(CyFlash.o)
 .text.CyEEPROM_Stop
                0x00000000       0x44 .\CortexM3\ARM_GCC_493\Debug\Node-Beaver_FE3.a(CyFlash.o)
 .text.CyEEPROM_ReadReserve
                0x00000000       0x30 .\CortexM3\ARM_GCC_493\Debug\Node-Beaver_FE3.a(CyFlash.o)
 .text.CyEEPROM_ReadRelease
                0x00000000       0x20 .\CortexM3\ARM_GCC_493\Debug\Node-Beaver_FE3.a(CyFlash.o)
 COMMON         0x00000000        0x2 .\CortexM3\ARM_GCC_493\Debug\Node-Beaver_FE3.a(CyFlash.o)
 .text          0x00000000        0x0 .\CortexM3\ARM_GCC_493\Debug\Node-Beaver_FE3.a(CySpc.o)
 .data          0x00000000        0x0 .\CortexM3\ARM_GCC_493\Debug\Node-Beaver_FE3.a(CySpc.o)
 .bss           0x00000000        0x8 .\CortexM3\ARM_GCC_493\Debug\Node-Beaver_FE3.a(CySpc.o)
 .text.CySpcStart
                0x00000000       0x44 .\CortexM3\ARM_GCC_493\Debug\Node-Beaver_FE3.a(CySpc.o)
 .text.CySpcStop
                0x00000000       0x44 .\CortexM3\ARM_GCC_493\Debug\Node-Beaver_FE3.a(CySpc.o)
 .text.CySpcReadData
                0x00000000       0x58 .\CortexM3\ARM_GCC_493\Debug\Node-Beaver_FE3.a(CySpc.o)
 .text.CySpcLoadMultiByte
                0x00000000       0xd4 .\CortexM3\ARM_GCC_493\Debug\Node-Beaver_FE3.a(CySpc.o)
 .text.CySpcLoadRow
                0x00000000       0x8c .\CortexM3\ARM_GCC_493\Debug\Node-Beaver_FE3.a(CySpc.o)
 .text.CySpcLoadRowFull
                0x00000000       0xd0 .\CortexM3\ARM_GCC_493\Debug\Node-Beaver_FE3.a(CySpc.o)
 .text.CySpcWriteRow
                0x00000000       0x98 .\CortexM3\ARM_GCC_493\Debug\Node-Beaver_FE3.a(CySpc.o)
 .text.CySpcEraseSector
                0x00000000       0x70 .\CortexM3\ARM_GCC_493\Debug\Node-Beaver_FE3.a(CySpc.o)
 .text.CySpcGetTemp
                0x00000000       0x64 .\CortexM3\ARM_GCC_493\Debug\Node-Beaver_FE3.a(CySpc.o)
 .text.CySpcLock
                0x00000000       0x68 .\CortexM3\ARM_GCC_493\Debug\Node-Beaver_FE3.a(CySpc.o)
 .text.CySpcUnlock
                0x00000000       0x50 .\CortexM3\ARM_GCC_493\Debug\Node-Beaver_FE3.a(CySpc.o)
 .text.CySpcGetAlgorithm
                0x00000000       0x48 .\CortexM3\ARM_GCC_493\Debug\Node-Beaver_FE3.a(CySpc.o)
 .text          0x00000000        0x0 .\CortexM3\ARM_GCC_493\Debug\Node-Beaver_FE3.a(cyutils.o)
 .data          0x00000000        0x0 .\CortexM3\ARM_GCC_493\Debug\Node-Beaver_FE3.a(cyutils.o)
 .bss           0x00000000        0x0 .\CortexM3\ARM_GCC_493\Debug\Node-Beaver_FE3.a(cyutils.o)
 .text          0x00000000        0x0 .\CortexM3\ARM_GCC_493\Debug\Node-Beaver_FE3.a(USBUART_1_cls.o)
 .data          0x00000000        0x0 .\CortexM3\ARM_GCC_493\Debug\Node-Beaver_FE3.a(USBUART_1_cls.o)
 .bss           0x00000000        0x0 .\CortexM3\ARM_GCC_493\Debug\Node-Beaver_FE3.a(USBUART_1_cls.o)
 .text          0x00000000        0x0 .\CortexM3\ARM_GCC_493\Debug\Node-Beaver_FE3.a(USBUART_1_descr.o)
 .data          0x00000000        0x0 .\CortexM3\ARM_GCC_493\Debug\Node-Beaver_FE3.a(USBUART_1_descr.o)
 .bss           0x00000000        0x0 .\CortexM3\ARM_GCC_493\Debug\Node-Beaver_FE3.a(USBUART_1_descr.o)
 .text          0x00000000        0x0 .\emFile_V322c\LinkLibrary\PSoC5\GCC\libemf16noslfn.a(FAT_LFN.o)
 .data          0x00000000        0x0 .\emFile_V322c\LinkLibrary\PSoC5\GCC\libemf16noslfn.a(FAT_LFN.o)
 .bss           0x00000000        0x0 .\emFile_V322c\LinkLibrary\PSoC5\GCC\libemf16noslfn.a(FAT_LFN.o)
 .text.FS_FAT_DisableLFN
                0x00000000       0x10 .\emFile_V322c\LinkLibrary\PSoC5\GCC\libemf16noslfn.a(FAT_LFN.o)
 .text          0x00000000        0x0 .\emFile_V322c\LinkLibrary\PSoC5\GCC\libemf16noslfn.a(FAT_Misc.o)
 .bss           0x00000000        0x0 .\emFile_V322c\LinkLibrary\PSoC5\GCC\libemf16noslfn.a(FAT_Misc.o)
 .text.FS_FAT_GetIndexOfLastSector
                0x00000000       0x18 .\emFile_V322c\LinkLibrary\PSoC5\GCC\libemf16noslfn.a(FAT_Misc.o)
 .text.FS_FAT_AllocClusterBlock
                0x00000000       0x64 .\emFile_V322c\LinkLibrary\PSoC5\GCC\libemf16noslfn.a(FAT_Misc.o)
 .text.FS_FAT_GrowRootDir
                0x00000000       0xb0 .\emFile_V322c\LinkLibrary\PSoC5\GCC\libemf16noslfn.a(FAT_Misc.o)
 .text.FS_FAT_OpenJournalFile
                0x00000000       0x44 .\emFile_V322c\LinkLibrary\PSoC5\GCC\libemf16noslfn.a(FAT_Misc.o)
 .text.FS_FAT_CreateJournalFile
                0x00000000       0xd4 .\emFile_V322c\LinkLibrary\PSoC5\GCC\libemf16noslfn.a(FAT_Misc.o)
 .rodata.str1.1
                0x00000000        0xc .\emFile_V322c\LinkLibrary\PSoC5\GCC\libemf16noslfn.a(FAT_Misc.o)
 .text          0x00000000        0x0 .\emFile_V322c\LinkLibrary\PSoC5\GCC\libemf16noslfn.a(FAT_Open.o)
 .data          0x00000000        0x0 .\emFile_V322c\LinkLibrary\PSoC5\GCC\libemf16noslfn.a(FAT_Open.o)
 .bss           0x00000000        0x0 .\emFile_V322c\LinkLibrary\PSoC5\GCC\libemf16noslfn.a(FAT_Open.o)
 .text.FS_FAT_WriteDirEntryShort
                0x00000000       0x3c .\emFile_V322c\LinkLibrary\PSoC5\GCC\libemf16noslfn.a(FAT_Open.o)
 .text          0x00000000        0x0 .\emFile_V322c\LinkLibrary\PSoC5\GCC\libemf16noslfn.a(FAT_Write.o)
 .data          0x00000000        0x0 .\emFile_V322c\LinkLibrary\PSoC5\GCC\libemf16noslfn.a(FAT_Write.o)
 .bss           0x00000000        0x0 .\emFile_V322c\LinkLibrary\PSoC5\GCC\libemf16noslfn.a(FAT_Write.o)
 .text          0x00000000        0x0 .\emFile_V322c\LinkLibrary\PSoC5\GCC\libemf16noslfn.a(FS_Attrib.o)
 .data          0x00000000        0x0 .\emFile_V322c\LinkLibrary\PSoC5\GCC\libemf16noslfn.a(FS_Attrib.o)
 .bss           0x00000000        0x0 .\emFile_V322c\LinkLibrary\PSoC5\GCC\libemf16noslfn.a(FS_Attrib.o)
 .text.FS__SetFileAttributes
                0x00000000       0x30 .\emFile_V322c\LinkLibrary\PSoC5\GCC\libemf16noslfn.a(FS_Attrib.o)
 .text.FS_SetFileAttributes
                0x00000000        0x4 .\emFile_V322c\LinkLibrary\PSoC5\GCC\libemf16noslfn.a(FS_Attrib.o)
 .text          0x00000000        0x0 .\emFile_V322c\LinkLibrary\PSoC5\GCC\libemf16noslfn.a(FS_CLib.o)
 .data          0x00000000        0x0 .\emFile_V322c\LinkLibrary\PSoC5\GCC\libemf16noslfn.a(FS_CLib.o)
 .bss           0x00000000        0x0 .\emFile_V322c\LinkLibrary\PSoC5\GCC\libemf16noslfn.a(FS_CLib.o)
 .text.FS__CLIB_strncat
                0x00000000       0x2e .\emFile_V322c\LinkLibrary\PSoC5\GCC\libemf16noslfn.a(FS_CLib.o)
 .text.FS__CLIB_strcat
                0x00000000       0x20 .\emFile_V322c\LinkLibrary\PSoC5\GCC\libemf16noslfn.a(FS_CLib.o)
 .text.FS__CLIB_strcpy
                0x00000000       0x1c .\emFile_V322c\LinkLibrary\PSoC5\GCC\libemf16noslfn.a(FS_CLib.o)
 .text.FS__CLIB_atoi
                0x00000000       0x9c .\emFile_V322c\LinkLibrary\PSoC5\GCC\libemf16noslfn.a(FS_CLib.o)
 .text.FS__CLIB_strncpy
                0x00000000       0x2e .\emFile_V322c\LinkLibrary\PSoC5\GCC\libemf16noslfn.a(FS_CLib.o)
 .text          0x00000000        0x0 .\emFile_V322c\LinkLibrary\PSoC5\GCC\libemf16noslfn.a(FS_Core.o)
 .data          0x00000000        0x0 .\emFile_V322c\LinkLibrary\PSoC5\GCC\libemf16noslfn.a(FS_Core.o)
 .text.FS__DivideU32Up
                0x00000000        0xa .\emFile_V322c\LinkLibrary\PSoC5\GCC\libemf16noslfn.a(FS_Core.o)
 .text.FS_SetMemAccessCallback
                0x00000000        0x2 .\emFile_V322c\LinkLibrary\PSoC5\GCC\libemf16noslfn.a(FS_Core.o)
 .text.FS_LoadU16BE
                0x00000000        0xa .\emFile_V322c\LinkLibrary\PSoC5\GCC\libemf16noslfn.a(FS_Core.o)
 .text.FS_StoreU16BE
                0x00000000        0x8 .\emFile_V322c\LinkLibrary\PSoC5\GCC\libemf16noslfn.a(FS_Core.o)
 .text.FS_StoreU32BE
                0x00000000       0x14 .\emFile_V322c\LinkLibrary\PSoC5\GCC\libemf16noslfn.a(FS_Core.o)
 .text.FS_StoreU24LE
                0x00000000       0x10 .\emFile_V322c\LinkLibrary\PSoC5\GCC\libemf16noslfn.a(FS_Core.o)
 .text.FS_SetMaxSectorSize
                0x00000000       0x18 .\emFile_V322c\LinkLibrary\PSoC5\GCC\libemf16noslfn.a(FS_Core.o)
 .text.FS_SetMemHandler
                0x00000000        0x2 .\emFile_V322c\LinkLibrary\PSoC5\GCC\libemf16noslfn.a(FS_Core.o)
 .text.FS_GetMaxSectorSize
                0x00000000        0xc .\emFile_V322c\LinkLibrary\PSoC5\GCC\libemf16noslfn.a(FS_Core.o)
 .text.FS_BITFIELD_CalcNumBitsUsed
                0x00000000        0xc .\emFile_V322c\LinkLibrary\PSoC5\GCC\libemf16noslfn.a(FS_Core.o)
 .text.FS_BITFIELD_ReadEntry
                0x00000000       0x3e .\emFile_V322c\LinkLibrary\PSoC5\GCC\libemf16noslfn.a(FS_Core.o)
 .text.FS_BITFIELD_WriteEntry
                0x00000000       0x38 .\emFile_V322c\LinkLibrary\PSoC5\GCC\libemf16noslfn.a(FS_Core.o)
 .text.FS_BITFIELD_CalcSize
                0x00000000        0x8 .\emFile_V322c\LinkLibrary\PSoC5\GCC\libemf16noslfn.a(FS_Core.o)
 .text.FS_AllocZeroedPtr
                0x00000000       0x1e .\emFile_V322c\LinkLibrary\PSoC5\GCC\libemf16noslfn.a(FS_Core.o)
 .text.FS_STORAGE_DeInit
                0x00000000       0x20 .\emFile_V322c\LinkLibrary\PSoC5\GCC\libemf16noslfn.a(FS_Core.o)
 .text.FS_DeInit
                0x00000000       0x54 .\emFile_V322c\LinkLibrary\PSoC5\GCC\libemf16noslfn.a(FS_Core.o)
 .text.FS_SetBusyLEDCallback
                0x00000000       0x12 .\emFile_V322c\LinkLibrary\PSoC5\GCC\libemf16noslfn.a(FS_Core.o)
 .text          0x00000000        0x0 .\emFile_V322c\LinkLibrary\PSoC5\GCC\libemf16noslfn.a(FS_Dir.o)
 .data          0x00000000        0x0 .\emFile_V322c\LinkLibrary\PSoC5\GCC\libemf16noslfn.a(FS_Dir.o)
 .bss           0x00000000        0x0 .\emFile_V322c\LinkLibrary\PSoC5\GCC\libemf16noslfn.a(FS_Dir.o)
 .text.FS__FindClose
                0x00000000        0x6 .\emFile_V322c\LinkLibrary\PSoC5\GCC\libemf16noslfn.a(FS_Dir.o)
 .text.FS_FindClose
                0x00000000        0x4 .\emFile_V322c\LinkLibrary\PSoC5\GCC\libemf16noslfn.a(FS_Dir.o)
 .text.FS__FindNextFile
                0x00000000       0x52 .\emFile_V322c\LinkLibrary\PSoC5\GCC\libemf16noslfn.a(FS_Dir.o)
 .text.FS_FindNextFile
                0x00000000        0xa .\emFile_V322c\LinkLibrary\PSoC5\GCC\libemf16noslfn.a(FS_Dir.o)
 .text.FS__FindFirstFileEx
                0x00000000       0x86 .\emFile_V322c\LinkLibrary\PSoC5\GCC\libemf16noslfn.a(FS_Dir.o)
 .text.FS__FindFirstFile
                0x00000000       0x2e .\emFile_V322c\LinkLibrary\PSoC5\GCC\libemf16noslfn.a(FS_Dir.o)
 .text.FS_FindFirstFile
                0x00000000        0xa .\emFile_V322c\LinkLibrary\PSoC5\GCC\libemf16noslfn.a(FS_Dir.o)
 .text.FS__RmDir
                0x00000000       0x58 .\emFile_V322c\LinkLibrary\PSoC5\GCC\libemf16noslfn.a(FS_Dir.o)
 .text.FS_RmDir
                0x00000000        0x4 .\emFile_V322c\LinkLibrary\PSoC5\GCC\libemf16noslfn.a(FS_Dir.o)
 .text          0x00000000        0x0 .\emFile_V322c\LinkLibrary\PSoC5\GCC\libemf16noslfn.a(FS_LogBlock.o)
 .data          0x00000000        0x0 .\emFile_V322c\LinkLibrary\PSoC5\GCC\libemf16noslfn.a(FS_LogBlock.o)
 .bss           0x00000000        0x0 .\emFile_V322c\LinkLibrary\PSoC5\GCC\libemf16noslfn.a(FS_LogBlock.o)
 .text.FS_LB_FreePartSectors
                0x00000000       0x16 .\emFile_V322c\LinkLibrary\PSoC5\GCC\libemf16noslfn.a(FS_LogBlock.o)
 .text          0x00000000        0x0 .\emFile_V322c\LinkLibrary\PSoC5\GCC\libemf16noslfn.a(FS_memcpy.o)
 .data          0x00000000        0x0 .\emFile_V322c\LinkLibrary\PSoC5\GCC\libemf16noslfn.a(FS_memcpy.o)
 .bss           0x00000000        0x0 .\emFile_V322c\LinkLibrary\PSoC5\GCC\libemf16noslfn.a(FS_memcpy.o)
 .text          0x00000000        0x0 .\emFile_V322c\LinkLibrary\PSoC5\GCC\libemf16noslfn.a(FS_Misc.o)
 .data          0x00000000        0x0 .\emFile_V322c\LinkLibrary\PSoC5\GCC\libemf16noslfn.a(FS_Misc.o)
 .bss           0x00000000        0x0 .\emFile_V322c\LinkLibrary\PSoC5\GCC\libemf16noslfn.a(FS_Misc.o)
 .text._CalcSizeInKB
                0x00000000       0x14 .\emFile_V322c\LinkLibrary\PSoC5\GCC\libemf16noslfn.a(FS_Misc.o)
 .text.FS__GetFileObj
                0x00000000        0x4 .\emFile_V322c\LinkLibrary\PSoC5\GCC\libemf16noslfn.a(FS_Misc.o)
 .text.FS__FTell
                0x00000000        0xa .\emFile_V322c\LinkLibrary\PSoC5\GCC\libemf16noslfn.a(FS_Misc.o)
 .text.FS__FSeek
                0x00000000       0x42 .\emFile_V322c\LinkLibrary\PSoC5\GCC\libemf16noslfn.a(FS_Misc.o)
 .text.FS__CalcSizeInBytes
                0x00000000       0x20 .\emFile_V322c\LinkLibrary\PSoC5\GCC\libemf16noslfn.a(FS_Misc.o)
 .text.FS__CalcSizeInKB
                0x00000000        0x4 .\emFile_V322c\LinkLibrary\PSoC5\GCC\libemf16noslfn.a(FS_Misc.o)
 .text.FS_FSeek
                0x00000000        0x4 .\emFile_V322c\LinkLibrary\PSoC5\GCC\libemf16noslfn.a(FS_Misc.o)
 .text.FS_FTell
                0x00000000        0x4 .\emFile_V322c\LinkLibrary\PSoC5\GCC\libemf16noslfn.a(FS_Misc.o)
 .text.FS_FEof  0x00000000       0x20 .\emFile_V322c\LinkLibrary\PSoC5\GCC\libemf16noslfn.a(FS_Misc.o)
 .text.FS_FError
                0x00000000        0xe .\emFile_V322c\LinkLibrary\PSoC5\GCC\libemf16noslfn.a(FS_Misc.o)
 .text.FS_ClearErr
                0x00000000        0xa .\emFile_V322c\LinkLibrary\PSoC5\GCC\libemf16noslfn.a(FS_Misc.o)
 .text.FS_ConfigUpdateDirOnWrite
                0x00000000       0x14 .\emFile_V322c\LinkLibrary\PSoC5\GCC\libemf16noslfn.a(FS_Misc.o)
 .text.FS__RemoveDevices
                0x00000000       0x60 .\emFile_V322c\LinkLibrary\PSoC5\GCC\libemf16noslfn.a(FS_Misc.o)
 .text.FS__RemoveDevice
                0x00000000       0x9c .\emFile_V322c\LinkLibrary\PSoC5\GCC\libemf16noslfn.a(FS_Misc.o)
 .text.FS_RemoveDevice
                0x00000000       0x14 .\emFile_V322c\LinkLibrary\PSoC5\GCC\libemf16noslfn.a(FS_Misc.o)
 .text          0x00000000        0x0 .\emFile_V322c\LinkLibrary\PSoC5\GCC\libemf16noslfn.a(FS_Read.o)
 .data          0x00000000        0x0 .\emFile_V322c\LinkLibrary\PSoC5\GCC\libemf16noslfn.a(FS_Read.o)
 .bss           0x00000000        0x0 .\emFile_V322c\LinkLibrary\PSoC5\GCC\libemf16noslfn.a(FS_Read.o)
 .text          0x00000000        0x0 .\emFile_V322c\LinkLibrary\PSoC5\GCC\libemf16noslfn.a(FS_Storage.o)
 .data          0x00000000        0x0 .\emFile_V322c\LinkLibrary\PSoC5\GCC\libemf16noslfn.a(FS_Storage.o)
 .bss           0x00000000        0x0 .\emFile_V322c\LinkLibrary\PSoC5\GCC\libemf16noslfn.a(FS_Storage.o)
 .text.FS__GetNumVolumes
                0x00000000        0xc .\emFile_V322c\LinkLibrary\PSoC5\GCC\libemf16noslfn.a(FS_Storage.o)
 .text.FS_AddPhysDevice
                0x00000000        0x4 .\emFile_V322c\LinkLibrary\PSoC5\GCC\libemf16noslfn.a(FS_Storage.o)
 .text.FS_STORAGE_ResetCounters
                0x00000000        0x2 .\emFile_V322c\LinkLibrary\PSoC5\GCC\libemf16noslfn.a(FS_Storage.o)
 .text.FS_STORAGE_GetCounters
                0x00000000        0x8 .\emFile_V322c\LinkLibrary\PSoC5\GCC\libemf16noslfn.a(FS_Storage.o)
 .text.FS_GetVolumeName
                0x00000000       0x60 .\emFile_V322c\LinkLibrary\PSoC5\GCC\libemf16noslfn.a(FS_Storage.o)
 .text.FS_FindVolume
                0x00000000       0x58 .\emFile_V322c\LinkLibrary\PSoC5\GCC\libemf16noslfn.a(FS_Storage.o)
 .text.FS_SetOnDeviceActivityHook
                0x00000000       0x10 .\emFile_V322c\LinkLibrary\PSoC5\GCC\libemf16noslfn.a(FS_Storage.o)
 .text.FS__GetVolumeStatus
                0x00000000       0x18 .\emFile_V322c\LinkLibrary\PSoC5\GCC\libemf16noslfn.a(FS_Storage.o)
 .text.FS_GetVolumeStatus
                0x00000000       0x10 .\emFile_V322c\LinkLibrary\PSoC5\GCC\libemf16noslfn.a(FS_Storage.o)
 .text.FS__GetDeviceInfo
                0x00000000       0x28 .\emFile_V322c\LinkLibrary\PSoC5\GCC\libemf16noslfn.a(FS_Storage.o)
 .text.FS_STORAGE_GetDeviceInfo
                0x00000000       0x14 .\emFile_V322c\LinkLibrary\PSoC5\GCC\libemf16noslfn.a(FS_Storage.o)
 .text.FS__ReadSectors
                0x00000000       0x26 .\emFile_V322c\LinkLibrary\PSoC5\GCC\libemf16noslfn.a(FS_Storage.o)
 .text.FS_STORAGE_ReadSectors
                0x00000000       0x1c .\emFile_V322c\LinkLibrary\PSoC5\GCC\libemf16noslfn.a(FS_Storage.o)
 .text.FS__WriteSectors
                0x00000000       0x26 .\emFile_V322c\LinkLibrary\PSoC5\GCC\libemf16noslfn.a(FS_Storage.o)
 .text.FS_STORAGE_WriteSectors
                0x00000000       0x1c .\emFile_V322c\LinkLibrary\PSoC5\GCC\libemf16noslfn.a(FS_Storage.o)
 .text.FS__ReadSector
                0x00000000       0x22 .\emFile_V322c\LinkLibrary\PSoC5\GCC\libemf16noslfn.a(FS_Storage.o)
 .text.FS_STORAGE_ReadSector
                0x00000000       0x18 .\emFile_V322c\LinkLibrary\PSoC5\GCC\libemf16noslfn.a(FS_Storage.o)
 .text.FS__WriteSector
                0x00000000       0x22 .\emFile_V322c\LinkLibrary\PSoC5\GCC\libemf16noslfn.a(FS_Storage.o)
 .text.FS_STORAGE_WriteSector
                0x00000000       0x18 .\emFile_V322c\LinkLibrary\PSoC5\GCC\libemf16noslfn.a(FS_Storage.o)
 .text.FS__UnmountForcedLL
                0x00000000       0x22 .\emFile_V322c\LinkLibrary\PSoC5\GCC\libemf16noslfn.a(FS_Storage.o)
 .text.FS_STORAGE_UnmountForced
                0x00000000       0x14 .\emFile_V322c\LinkLibrary\PSoC5\GCC\libemf16noslfn.a(FS_Storage.o)
 .text.FS__UnmountLL
                0x00000000       0x22 .\emFile_V322c\LinkLibrary\PSoC5\GCC\libemf16noslfn.a(FS_Storage.o)
 .text.FS_STORAGE_Unmount
                0x00000000       0x14 .\emFile_V322c\LinkLibrary\PSoC5\GCC\libemf16noslfn.a(FS_Storage.o)
 .text.FS_IoCtl
                0x00000000       0x1a .\emFile_V322c\LinkLibrary\PSoC5\GCC\libemf16noslfn.a(FS_Storage.o)
 .text.FS_STORAGE_Sync
                0x00000000       0x10 .\emFile_V322c\LinkLibrary\PSoC5\GCC\libemf16noslfn.a(FS_Storage.o)
 .text.FS__IsLLFormatted
                0x00000000       0x20 .\emFile_V322c\LinkLibrary\PSoC5\GCC\libemf16noslfn.a(FS_Storage.o)
 .text.FS_IsLLFormatted
                0x00000000       0x16 .\emFile_V322c\LinkLibrary\PSoC5\GCC\libemf16noslfn.a(FS_Storage.o)
 .text.FS__FormatLow
                0x00000000       0x1a .\emFile_V322c\LinkLibrary\PSoC5\GCC\libemf16noslfn.a(FS_Storage.o)
 .text.FS_FormatLow
                0x00000000       0x16 .\emFile_V322c\LinkLibrary\PSoC5\GCC\libemf16noslfn.a(FS_Storage.o)
 .text.FS_FormatLLIfRequired
                0x00000000       0x16 .\emFile_V322c\LinkLibrary\PSoC5\GCC\libemf16noslfn.a(FS_Storage.o)
 COMMON         0x00000000       0x14 .\emFile_V322c\LinkLibrary\PSoC5\GCC\libemf16noslfn.a(FS_Storage.o)
 .text          0x00000000        0x0 .\emFile_V322c\LinkLibrary\PSoC5\GCC\libemf16noslfn.a(FS_Time.o)
 .data          0x00000000        0x0 .\emFile_V322c\LinkLibrary\PSoC5\GCC\libemf16noslfn.a(FS_Time.o)
 .bss           0x00000000        0x0 .\emFile_V322c\LinkLibrary\PSoC5\GCC\libemf16noslfn.a(FS_Time.o)
 .text.FS_TimeStampToFileTime
                0x00000000       0x36 .\emFile_V322c\LinkLibrary\PSoC5\GCC\libemf16noslfn.a(FS_Time.o)
 .text.FS_SetFileTimeEx
                0x00000000        0x4 .\emFile_V322c\LinkLibrary\PSoC5\GCC\libemf16noslfn.a(FS_Time.o)
 .text.FS__GetFileTimeEx
                0x00000000       0x42 .\emFile_V322c\LinkLibrary\PSoC5\GCC\libemf16noslfn.a(FS_Time.o)
 .text.FS_GetFileTime
                0x00000000        0x6 .\emFile_V322c\LinkLibrary\PSoC5\GCC\libemf16noslfn.a(FS_Time.o)
 .text.FS_GetFileTimeEx
                0x00000000        0x4 .\emFile_V322c\LinkLibrary\PSoC5\GCC\libemf16noslfn.a(FS_Time.o)
 .text          0x00000000        0x0 .\emFile_V322c\LinkLibrary\PSoC5\GCC\libemf16noslfn.a(FS_Unmount.o)
 .data          0x00000000        0x0 .\emFile_V322c\LinkLibrary\PSoC5\GCC\libemf16noslfn.a(FS_Unmount.o)
 .bss           0x00000000        0x0 .\emFile_V322c\LinkLibrary\PSoC5\GCC\libemf16noslfn.a(FS_Unmount.o)
 .text.FS_UnmountForced
                0x00000000       0x14 .\emFile_V322c\LinkLibrary\PSoC5\GCC\libemf16noslfn.a(FS_Unmount.o)
 .text.FS__UnmountNL
                0x00000000       0x4c .\emFile_V322c\LinkLibrary\PSoC5\GCC\libemf16noslfn.a(FS_Unmount.o)
 .text          0x00000000        0x0 .\emFile_V322c\LinkLibrary\PSoC5\GCC\libemf16noslfn.a(FS_Volume.o)
 .data          0x00000000        0x0 .\emFile_V322c\LinkLibrary\PSoC5\GCC\libemf16noslfn.a(FS_Volume.o)
 .bss           0x00000000        0x0 .\emFile_V322c\LinkLibrary\PSoC5\GCC\libemf16noslfn.a(FS_Volume.o)
 .text.FS_SetAutoMount
                0x00000000       0x12 .\emFile_V322c\LinkLibrary\PSoC5\GCC\libemf16noslfn.a(FS_Volume.o)
 .text.FS_IsVolumeMounted
                0x00000000       0x18 .\emFile_V322c\LinkLibrary\PSoC5\GCC\libemf16noslfn.a(FS_Volume.o)
 .text.FS__AutoMountNL
                0x00000000       0x14 .\emFile_V322c\LinkLibrary\PSoC5\GCC\libemf16noslfn.a(FS_Volume.o)
 .text._GetVolumeInfoEx
                0x00000000       0x30 .\emFile_V322c\LinkLibrary\PSoC5\GCC\libemf16noslfn.a(FS_Volume.o)
 .text.FS_CheckDisk
                0x00000000       0x50 .\emFile_V322c\LinkLibrary\PSoC5\GCC\libemf16noslfn.a(FS_Volume.o)
 .text.FS__GetVolumeInfoEx
                0x00000000       0x24 .\emFile_V322c\LinkLibrary\PSoC5\GCC\libemf16noslfn.a(FS_Volume.o)
 .text.FS_GetVolumeSizeKB
                0x00000000       0x28 .\emFile_V322c\LinkLibrary\PSoC5\GCC\libemf16noslfn.a(FS_Volume.o)
 .text.FS_GetVolumeSize
                0x00000000       0x28 .\emFile_V322c\LinkLibrary\PSoC5\GCC\libemf16noslfn.a(FS_Volume.o)
 .text.FS__GetVolumeInfo
                0x00000000        0x6 .\emFile_V322c\LinkLibrary\PSoC5\GCC\libemf16noslfn.a(FS_Volume.o)
 .text.FS_GetVolumeFreeSpaceKB
                0x00000000       0x26 .\emFile_V322c\LinkLibrary\PSoC5\GCC\libemf16noslfn.a(FS_Volume.o)
 .text.FS_GetVolumeFreeSpace
                0x00000000       0x26 .\emFile_V322c\LinkLibrary\PSoC5\GCC\libemf16noslfn.a(FS_Volume.o)
 .text.FS_GetVolumeInfo
                0x00000000        0x4 .\emFile_V322c\LinkLibrary\PSoC5\GCC\libemf16noslfn.a(FS_Volume.o)
 .text.FS_IsHLFormatted
                0x00000000       0x1a .\emFile_V322c\LinkLibrary\PSoC5\GCC\libemf16noslfn.a(FS_Volume.o)
 .text.FS_SetVolumeLabel
                0x00000000       0x2a .\emFile_V322c\LinkLibrary\PSoC5\GCC\libemf16noslfn.a(FS_Volume.o)
 .text.FS_GetVolumeLabel
                0x00000000       0x32 .\emFile_V322c\LinkLibrary\PSoC5\GCC\libemf16noslfn.a(FS_Volume.o)
 .text.FS__MountNL
                0x00000000       0x20 .\emFile_V322c\LinkLibrary\PSoC5\GCC\libemf16noslfn.a(FS_Volume.o)
 .text.FS__Mount
                0x00000000        0x4 .\emFile_V322c\LinkLibrary\PSoC5\GCC\libemf16noslfn.a(FS_Volume.o)
 .text.FS_MountEx
                0x00000000       0x1a .\emFile_V322c\LinkLibrary\PSoC5\GCC\libemf16noslfn.a(FS_Volume.o)
 .text.FS_Mount
                0x00000000       0x18 .\emFile_V322c\LinkLibrary\PSoC5\GCC\libemf16noslfn.a(FS_Volume.o)
 .text          0x00000000        0x0 .\emFile_V322c\LinkLibrary\PSoC5\GCC\libemf16noslfn.a(FS_Write.o)
 .data          0x00000000        0x0 .\emFile_V322c\LinkLibrary\PSoC5\GCC\libemf16noslfn.a(FS_Write.o)
 .bss           0x00000000        0x0 .\emFile_V322c\LinkLibrary\PSoC5\GCC\libemf16noslfn.a(FS_Write.o)
 .text          0x00000000        0x0 .\emFile_V322c\LinkLibrary\PSoC5\GCC\libemf16noslfn.a(FAT_CheckDisk.o)
 .data          0x00000000        0x0 .\emFile_V322c\LinkLibrary\PSoC5\GCC\libemf16noslfn.a(FAT_CheckDisk.o)
 .bss           0x00000000       0x10 .\emFile_V322c\LinkLibrary\PSoC5\GCC\libemf16noslfn.a(FAT_CheckDisk.o)
 .text.FS_FAT_AbortCheckDisk
                0x00000000        0xc .\emFile_V322c\LinkLibrary\PSoC5\GCC\libemf16noslfn.a(FAT_CheckDisk.o)
 .text._IsClusterEOC
                0x00000000       0x42 .\emFile_V322c\LinkLibrary\PSoC5\GCC\libemf16noslfn.a(FAT_CheckDisk.o)
 .text._CheckName
                0x00000000       0x32 .\emFile_V322c\LinkLibrary\PSoC5\GCC\libemf16noslfn.a(FAT_CheckDisk.o)
 .text._IsDotFolderEntryValid
                0x00000000       0x2c .\emFile_V322c\LinkLibrary\PSoC5\GCC\libemf16noslfn.a(FAT_CheckDisk.o)
 .text._CreateDirName
                0x00000000       0x58 .\emFile_V322c\LinkLibrary\PSoC5\GCC\libemf16noslfn.a(FAT_CheckDisk.o)
 .text._CreateFileName
                0x00000000       0x6c .\emFile_V322c\LinkLibrary\PSoC5\GCC\libemf16noslfn.a(FAT_CheckDisk.o)
 .text._SetFileLen
                0x00000000       0x2e .\emFile_V322c\LinkLibrary\PSoC5\GCC\libemf16noslfn.a(FAT_CheckDisk.o)
 .text._CheckFile
                0x00000000      0x21e .\emFile_V322c\LinkLibrary\PSoC5\GCC\libemf16noslfn.a(FAT_CheckDisk.o)
 .text._CheckDir
                0x00000000      0x374 .\emFile_V322c\LinkLibrary\PSoC5\GCC\libemf16noslfn.a(FAT_CheckDisk.o)
 .text.FS_FAT__CheckDisk
                0x00000000      0x388 .\emFile_V322c\LinkLibrary\PSoC5\GCC\libemf16noslfn.a(FAT_CheckDisk.o)
 .rodata.str1.1
                0x00000000       0x29 .\emFile_V322c\LinkLibrary\PSoC5\GCC\libemf16noslfn.a(FAT_CheckDisk.o)
 .text          0x00000000        0x0 .\emFile_V322c\LinkLibrary\PSoC5\GCC\libemf16noslfn.a(FAT_Dir.o)
 .data          0x00000000        0x0 .\emFile_V322c\LinkLibrary\PSoC5\GCC\libemf16noslfn.a(FAT_Dir.o)
 .bss           0x00000000        0x0 .\emFile_V322c\LinkLibrary\PSoC5\GCC\libemf16noslfn.a(FAT_Dir.o)
 .text.FS_FAT_CloseDir
                0x00000000        0xc .\emFile_V322c\LinkLibrary\PSoC5\GCC\libemf16noslfn.a(FAT_Dir.o)
 .text.FS_FAT_ReadDir
                0x00000000       0x38 .\emFile_V322c\LinkLibrary\PSoC5\GCC\libemf16noslfn.a(FAT_Dir.o)
 .text.FS_FAT_RemoveDir
                0x00000000       0x88 .\emFile_V322c\LinkLibrary\PSoC5\GCC\libemf16noslfn.a(FAT_Dir.o)
 .text.FS_FAT_OpenDir
                0x00000000       0x72 .\emFile_V322c\LinkLibrary\PSoC5\GCC\libemf16noslfn.a(FAT_Dir.o)
 .text          0x00000000        0x0 .\emFile_V322c\LinkLibrary\PSoC5\GCC\libemf16noslfn.a(FAT_DirEntry.o)
 .data          0x00000000        0x0 .\emFile_V322c\LinkLibrary\PSoC5\GCC\libemf16noslfn.a(FAT_DirEntry.o)
 .bss           0x00000000        0x0 .\emFile_V322c\LinkLibrary\PSoC5\GCC\libemf16noslfn.a(FAT_DirEntry.o)
 .text          0x00000000        0x0 .\emFile_V322c\LinkLibrary\PSoC5\GCC\libemf16noslfn.a(FAT_DiskInfo.o)
 .data          0x00000000        0x0 .\emFile_V322c\LinkLibrary\PSoC5\GCC\libemf16noslfn.a(FAT_DiskInfo.o)
 .bss           0x00000000        0x0 .\emFile_V322c\LinkLibrary\PSoC5\GCC\libemf16noslfn.a(FAT_DiskInfo.o)
 .text.FS_FAT_GetDiskSpace
                0x00000000        0xe .\emFile_V322c\LinkLibrary\PSoC5\GCC\libemf16noslfn.a(FAT_DiskInfo.o)
 .text.FS_FAT_GetDiskInfo
                0x00000000       0x84 .\emFile_V322c\LinkLibrary\PSoC5\GCC\libemf16noslfn.a(FAT_DiskInfo.o)
 .text          0x00000000        0x0 .\emFile_V322c\LinkLibrary\PSoC5\GCC\libemf16noslfn.a(FAT_Read.o)
 .data          0x00000000        0x0 .\emFile_V322c\LinkLibrary\PSoC5\GCC\libemf16noslfn.a(FAT_Read.o)
 .bss           0x00000000        0x0 .\emFile_V322c\LinkLibrary\PSoC5\GCC\libemf16noslfn.a(FAT_Read.o)
 .text          0x00000000        0x0 .\emFile_V322c\LinkLibrary\PSoC5\GCC\libemf16noslfn.a(FAT_VolumeLabel.o)
 .data          0x00000000        0x0 .\emFile_V322c\LinkLibrary\PSoC5\GCC\libemf16noslfn.a(FAT_VolumeLabel.o)
 .bss           0x00000000        0x0 .\emFile_V322c\LinkLibrary\PSoC5\GCC\libemf16noslfn.a(FAT_VolumeLabel.o)
 .text._FindVolumeDirEntry
                0x00000000       0x3e .\emFile_V322c\LinkLibrary\PSoC5\GCC\libemf16noslfn.a(FAT_VolumeLabel.o)
 .text.FS_FAT_SetVolumeLabel
                0x00000000       0xd6 .\emFile_V322c\LinkLibrary\PSoC5\GCC\libemf16noslfn.a(FAT_VolumeLabel.o)
 .text.FS_FAT_GetVolumeLabel
                0x00000000       0x5c .\emFile_V322c\LinkLibrary\PSoC5\GCC\libemf16noslfn.a(FAT_VolumeLabel.o)
 .text          0x00000000        0x0 .\emFile_V322c\LinkLibrary\PSoC5\GCC\libemf16noslfn.a(FS_Partition.o)
 .data          0x00000000        0x0 .\emFile_V322c\LinkLibrary\PSoC5\GCC\libemf16noslfn.a(FS_Partition.o)
 .bss           0x00000000        0x0 .\emFile_V322c\LinkLibrary\PSoC5\GCC\libemf16noslfn.a(FS_Partition.o)
 .text.FS__GetMediaStartSec
                0x00000000       0x2a .\emFile_V322c\LinkLibrary\PSoC5\GCC\libemf16noslfn.a(FS_Partition.o)
 .text          0x00000000        0x0 .\CortexM3\ARM_GCC_493\Debug\Node-Beaver_FE3.a(emFile_1_ConfigMMC_SPI.o)
 .data          0x00000000        0x0 .\CortexM3\ARM_GCC_493\Debug\Node-Beaver_FE3.a(emFile_1_ConfigMMC_SPI.o)
 .text          0x00000000        0x0 .\emFile_V322c\LinkLibrary\PSoC5\GCC\libemf16noslfn.a(MMC_Drv.o)
 .text.FS_MMC_ActivateCRC
                0x00000000       0x10 .\emFile_V322c\LinkLibrary\PSoC5\GCC\libemf16noslfn.a(MMC_Drv.o)
 .text.FS_MMC_DeactivateCRC
                0x00000000       0x10 .\emFile_V322c\LinkLibrary\PSoC5\GCC\libemf16noslfn.a(MMC_Drv.o)
 .text._CalcDataCRC16ViaTable
                0x00000000        0x6 .\emFile_V322c\LinkLibrary\PSoC5\GCC\libemf16noslfn.a(MMC_Drv.o)
 .text.FS_MMC_GetCardId
                0x00000000       0x78 .\emFile_V322c\LinkLibrary\PSoC5\GCC\libemf16noslfn.a(MMC_Drv.o)
 .text          0x00000000        0x0 .\emFile_V322c\LinkLibrary\PSoC5\GCC\libemf16noslfn.a(FS_CRC16.o)
 .data          0x00000000        0x0 .\emFile_V322c\LinkLibrary\PSoC5\GCC\libemf16noslfn.a(FS_CRC16.o)
 .bss           0x00000000        0x0 .\emFile_V322c\LinkLibrary\PSoC5\GCC\libemf16noslfn.a(FS_CRC16.o)
 .text.FS_CRC16_Calc
                0x00000000       0x30 .\emFile_V322c\LinkLibrary\PSoC5\GCC\libemf16noslfn.a(FS_CRC16.o)
 .text.FS_CRC16_CalcBitByBit
                0x00000000       0x30 .\emFile_V322c\LinkLibrary\PSoC5\GCC\libemf16noslfn.a(FS_CRC16.o)
 .text.FS_CRC16_Validate
                0x00000000       0x32 .\emFile_V322c\LinkLibrary\PSoC5\GCC\libemf16noslfn.a(FS_CRC16.o)
 .rodata        0x00000000      0x200 .\emFile_V322c\LinkLibrary\PSoC5\GCC\libemf16noslfn.a(FS_CRC16.o)
 .text          0x00000000        0x0 .\CortexM3\ARM_GCC_493\Debug\Node-Beaver_FE3.a(emFile_1_MMC_HW_SPI.o)
 .data          0x00000000        0x0 .\CortexM3\ARM_GCC_493\Debug\Node-Beaver_FE3.a(emFile_1_MMC_HW_SPI.o)
 .text          0x00000000        0x0 .\CortexM3\ARM_GCC_493\Debug\Node-Beaver_FE3.a(emFile_1_SPI0.o)
 .data          0x00000000        0x0 .\CortexM3\ARM_GCC_493\Debug\Node-Beaver_FE3.a(emFile_1_SPI0.o)
 .text.emFile_1_SPI0_Stop
                0x00000000       0x4c .\CortexM3\ARM_GCC_493\Debug\Node-Beaver_FE3.a(emFile_1_SPI0.o)
 .text.emFile_1_SPI0_DisableTxInt
                0x00000000        0xc .\CortexM3\ARM_GCC_493\Debug\Node-Beaver_FE3.a(emFile_1_SPI0.o)
 .text.emFile_1_SPI0_DisableRxInt
                0x00000000        0xc .\CortexM3\ARM_GCC_493\Debug\Node-Beaver_FE3.a(emFile_1_SPI0.o)
 .text.emFile_1_SPI0_SetTxInterruptMode
                0x00000000       0x20 .\CortexM3\ARM_GCC_493\Debug\Node-Beaver_FE3.a(emFile_1_SPI0.o)
 .text.emFile_1_SPI0_SetRxInterruptMode
                0x00000000       0x20 .\CortexM3\ARM_GCC_493\Debug\Node-Beaver_FE3.a(emFile_1_SPI0.o)
 .text.emFile_1_SPI0_GetRxBufferSize
                0x00000000       0x30 .\CortexM3\ARM_GCC_493\Debug\Node-Beaver_FE3.a(emFile_1_SPI0.o)
 .text.emFile_1_SPI0_GetTxBufferSize
                0x00000000       0x44 .\CortexM3\ARM_GCC_493\Debug\Node-Beaver_FE3.a(emFile_1_SPI0.o)
 .text.emFile_1_SPI0_ClearRxBuffer
                0x00000000       0x28 .\CortexM3\ARM_GCC_493\Debug\Node-Beaver_FE3.a(emFile_1_SPI0.o)
 .text.emFile_1_SPI0_ClearTxBuffer
                0x00000000       0x40 .\CortexM3\ARM_GCC_493\Debug\Node-Beaver_FE3.a(emFile_1_SPI0.o)
 .text.emFile_1_SPI0_PutArray
                0x00000000       0x38 .\CortexM3\ARM_GCC_493\Debug\Node-Beaver_FE3.a(emFile_1_SPI0.o)
 .text.emFile_1_SPI0_EnableInt
                0x00000000       0x10 .\CortexM3\ARM_GCC_493\Debug\Node-Beaver_FE3.a(emFile_1_SPI0.o)
 .text.emFile_1_SPI0_DisableInt
                0x00000000       0x10 .\CortexM3\ARM_GCC_493\Debug\Node-Beaver_FE3.a(emFile_1_SPI0.o)
 .text.emFile_1_SPI0_SetInterruptMode
                0x00000000       0x30 .\CortexM3\ARM_GCC_493\Debug\Node-Beaver_FE3.a(emFile_1_SPI0.o)
 .text.emFile_1_SPI0_ReadStatus
                0x00000000       0x38 .\CortexM3\ARM_GCC_493\Debug\Node-Beaver_FE3.a(emFile_1_SPI0.o)
 COMMON         0x00000000        0x2 .\CortexM3\ARM_GCC_493\Debug\Node-Beaver_FE3.a(emFile_1_SPI0.o)
 .text          0x00000000        0x0 .\CortexM3\ARM_GCC_493\Debug\Node-Beaver_FE3.a(emFile_1_Clock_1.o)
 .data          0x00000000        0x0 .\CortexM3\ARM_GCC_493\Debug\Node-Beaver_FE3.a(emFile_1_Clock_1.o)
 .bss           0x00000000        0x0 .\CortexM3\ARM_GCC_493\Debug\Node-Beaver_FE3.a(emFile_1_Clock_1.o)
 .text.emFile_1_Clock_1_StopBlock
                0x00000000       0xb0 .\CortexM3\ARM_GCC_493\Debug\Node-Beaver_FE3.a(emFile_1_Clock_1.o)
 .text.emFile_1_Clock_1_StandbyPower
                0x00000000       0x40 .\CortexM3\ARM_GCC_493\Debug\Node-Beaver_FE3.a(emFile_1_Clock_1.o)
 .text.emFile_1_Clock_1_SetModeRegister
                0x00000000       0x34 .\CortexM3\ARM_GCC_493\Debug\Node-Beaver_FE3.a(emFile_1_Clock_1.o)
 .text.emFile_1_Clock_1_ClearModeRegister
                0x00000000       0x34 .\CortexM3\ARM_GCC_493\Debug\Node-Beaver_FE3.a(emFile_1_Clock_1.o)
 .text.emFile_1_Clock_1_GetModeRegister
                0x00000000       0x20 .\CortexM3\ARM_GCC_493\Debug\Node-Beaver_FE3.a(emFile_1_Clock_1.o)
 .text.emFile_1_Clock_1_SetSourceRegister
                0x00000000       0xbc .\CortexM3\ARM_GCC_493\Debug\Node-Beaver_FE3.a(emFile_1_Clock_1.o)
 .text          0x00000000        0x0 .\CortexM3\ARM_GCC_493\Debug\Node-Beaver_FE3.a(emFile_1_SPI0_CS.o)
 .data          0x00000000        0x0 .\CortexM3\ARM_GCC_493\Debug\Node-Beaver_FE3.a(emFile_1_SPI0_CS.o)
 .bss           0x00000000        0x0 .\CortexM3\ARM_GCC_493\Debug\Node-Beaver_FE3.a(emFile_1_SPI0_CS.o)
 .text.emFile_1_SPI0_CS_SetDriveMode
                0x00000000       0x38 .\CortexM3\ARM_GCC_493\Debug\Node-Beaver_FE3.a(emFile_1_SPI0_CS.o)
 .text.emFile_1_SPI0_CS_Read
                0x00000000       0x20 .\CortexM3\ARM_GCC_493\Debug\Node-Beaver_FE3.a(emFile_1_SPI0_CS.o)
 .text.emFile_1_SPI0_CS_ReadDataReg
                0x00000000       0x20 .\CortexM3\ARM_GCC_493\Debug\Node-Beaver_FE3.a(emFile_1_SPI0_CS.o)
 .text          0x00000000        0x0 d:/programming/cypress/psoc creator/4.0/psoc creator/import/gnu/arm/4.9.3/bin/../lib/gcc/arm-none-eabi/4.9.3/../../../../arm-none-eabi/lib/armv7-m\libg_nano.a(lib_a-atoi.o)
 .data          0x00000000        0x0 d:/programming/cypress/psoc creator/4.0/psoc creator/import/gnu/arm/4.9.3/bin/../lib/gcc/arm-none-eabi/4.9.3/../../../../arm-none-eabi/lib/armv7-m\libg_nano.a(lib_a-atoi.o)
 .bss           0x00000000        0x0 d:/programming/cypress/psoc creator/4.0/psoc creator/import/gnu/arm/4.9.3/bin/../lib/gcc/arm-none-eabi/4.9.3/../../../../arm-none-eabi/lib/armv7-m\libg_nano.a(lib_a-atoi.o)
 .text._atoi_r  0x00000000        0x8 d:/programming/cypress/psoc creator/4.0/psoc creator/import/gnu/arm/4.9.3/bin/../lib/gcc/arm-none-eabi/4.9.3/../../../../arm-none-eabi/lib/armv7-m\libg_nano.a(lib_a-atoi.o)
 .text          0x00000000        0x0 d:/programming/cypress/psoc creator/4.0/psoc creator/import/gnu/arm/4.9.3/bin/../lib/gcc/arm-none-eabi/4.9.3/../../../../arm-none-eabi/lib/armv7-m\libg_nano.a(lib_a-errno.o)
 .data          0x00000000        0x0 d:/programming/cypress/psoc creator/4.0/psoc creator/import/gnu/arm/4.9.3/bin/../lib/gcc/arm-none-eabi/4.9.3/../../../../arm-none-eabi/lib/armv7-m\libg_nano.a(lib_a-errno.o)
 .bss           0x00000000        0x0 d:/programming/cypress/psoc creator/4.0/psoc creator/import/gnu/arm/4.9.3/bin/../lib/gcc/arm-none-eabi/4.9.3/../../../../arm-none-eabi/lib/armv7-m\libg_nano.a(lib_a-errno.o)
 .text          0x00000000        0x0 d:/programming/cypress/psoc creator/4.0/psoc creator/import/gnu/arm/4.9.3/bin/../lib/gcc/arm-none-eabi/4.9.3/../../../../arm-none-eabi/lib/armv7-m\libg_nano.a(lib_a-exit.o)
 .data          0x00000000        0x0 d:/programming/cypress/psoc creator/4.0/psoc creator/import/gnu/arm/4.9.3/bin/../lib/gcc/arm-none-eabi/4.9.3/../../../../arm-none-eabi/lib/armv7-m\libg_nano.a(lib_a-exit.o)
 .bss           0x00000000        0x0 d:/programming/cypress/psoc creator/4.0/psoc creator/import/gnu/arm/4.9.3/bin/../lib/gcc/arm-none-eabi/4.9.3/../../../../arm-none-eabi/lib/armv7-m\libg_nano.a(lib_a-exit.o)
 .text.exit     0x00000000       0x28 d:/programming/cypress/psoc creator/4.0/psoc creator/import/gnu/arm/4.9.3/bin/../lib/gcc/arm-none-eabi/4.9.3/../../../../arm-none-eabi/lib/armv7-m\libg_nano.a(lib_a-exit.o)
 .text          0x00000000        0x0 d:/programming/cypress/psoc creator/4.0/psoc creator/import/gnu/arm/4.9.3/bin/../lib/gcc/arm-none-eabi/4.9.3/../../../../arm-none-eabi/lib/armv7-m\libg_nano.a(lib_a-impure.o)
 .data          0x00000000        0x0 d:/programming/cypress/psoc creator/4.0/psoc creator/import/gnu/arm/4.9.3/bin/../lib/gcc/arm-none-eabi/4.9.3/../../../../arm-none-eabi/lib/armv7-m\libg_nano.a(lib_a-impure.o)
 .bss           0x00000000        0x0 d:/programming/cypress/psoc creator/4.0/psoc creator/import/gnu/arm/4.9.3/bin/../lib/gcc/arm-none-eabi/4.9.3/../../../../arm-none-eabi/lib/armv7-m\libg_nano.a(lib_a-impure.o)
 .rodata._global_impure_ptr
                0x00000000        0x4 d:/programming/cypress/psoc creator/4.0/psoc creator/import/gnu/arm/4.9.3/bin/../lib/gcc/arm-none-eabi/4.9.3/../../../../arm-none-eabi/lib/armv7-m\libg_nano.a(lib_a-impure.o)
 .text          0x00000000        0x0 d:/programming/cypress/psoc creator/4.0/psoc creator/import/gnu/arm/4.9.3/bin/../lib/gcc/arm-none-eabi/4.9.3/../../../../arm-none-eabi/lib/armv7-m\libg_nano.a(lib_a-init.o)
 .data          0x00000000        0x0 d:/programming/cypress/psoc creator/4.0/psoc creator/import/gnu/arm/4.9.3/bin/../lib/gcc/arm-none-eabi/4.9.3/../../../../arm-none-eabi/lib/armv7-m\libg_nano.a(lib_a-init.o)
 .bss           0x00000000        0x0 d:/programming/cypress/psoc creator/4.0/psoc creator/import/gnu/arm/4.9.3/bin/../lib/gcc/arm-none-eabi/4.9.3/../../../../arm-none-eabi/lib/armv7-m\libg_nano.a(lib_a-init.o)
 .text          0x00000000        0x0 d:/programming/cypress/psoc creator/4.0/psoc creator/import/gnu/arm/4.9.3/bin/../lib/gcc/arm-none-eabi/4.9.3/../../../../arm-none-eabi/lib/armv7-m\libg_nano.a(lib_a-memcmp.o)
 .data          0x00000000        0x0 d:/programming/cypress/psoc creator/4.0/psoc creator/import/gnu/arm/4.9.3/bin/../lib/gcc/arm-none-eabi/4.9.3/../../../../arm-none-eabi/lib/armv7-m\libg_nano.a(lib_a-memcmp.o)
 .bss           0x00000000        0x0 d:/programming/cypress/psoc creator/4.0/psoc creator/import/gnu/arm/4.9.3/bin/../lib/gcc/arm-none-eabi/4.9.3/../../../../arm-none-eabi/lib/armv7-m\libg_nano.a(lib_a-memcmp.o)
 .text.memcmp   0x00000000       0x20 d:/programming/cypress/psoc creator/4.0/psoc creator/import/gnu/arm/4.9.3/bin/../lib/gcc/arm-none-eabi/4.9.3/../../../../arm-none-eabi/lib/armv7-m\libg_nano.a(lib_a-memcmp.o)
 .text          0x00000000        0x0 d:/programming/cypress/psoc creator/4.0/psoc creator/import/gnu/arm/4.9.3/bin/../lib/gcc/arm-none-eabi/4.9.3/../../../../arm-none-eabi/lib/armv7-m\libg_nano.a(lib_a-memcpy.o)
 .data          0x00000000        0x0 d:/programming/cypress/psoc creator/4.0/psoc creator/import/gnu/arm/4.9.3/bin/../lib/gcc/arm-none-eabi/4.9.3/../../../../arm-none-eabi/lib/armv7-m\libg_nano.a(lib_a-memcpy.o)
 .bss           0x00000000        0x0 d:/programming/cypress/psoc creator/4.0/psoc creator/import/gnu/arm/4.9.3/bin/../lib/gcc/arm-none-eabi/4.9.3/../../../../arm-none-eabi/lib/armv7-m\libg_nano.a(lib_a-memcpy.o)
 .text          0x00000000        0x0 d:/programming/cypress/psoc creator/4.0/psoc creator/import/gnu/arm/4.9.3/bin/../lib/gcc/arm-none-eabi/4.9.3/../../../../arm-none-eabi/lib/armv7-m\libg_nano.a(lib_a-memset.o)
 .data          0x00000000        0x0 d:/programming/cypress/psoc creator/4.0/psoc creator/import/gnu/arm/4.9.3/bin/../lib/gcc/arm-none-eabi/4.9.3/../../../../arm-none-eabi/lib/armv7-m\libg_nano.a(lib_a-memset.o)
 .bss           0x00000000        0x0 d:/programming/cypress/psoc creator/4.0/psoc creator/import/gnu/arm/4.9.3/bin/../lib/gcc/arm-none-eabi/4.9.3/../../../../arm-none-eabi/lib/armv7-m\libg_nano.a(lib_a-memset.o)
 .text          0x00000000        0x0 d:/programming/cypress/psoc creator/4.0/psoc creator/import/gnu/arm/4.9.3/bin/../lib/gcc/arm-none-eabi/4.9.3/../../../../arm-none-eabi/lib/armv7-m\libg_nano.a(lib_a-sprintf.o)
 .data          0x00000000        0x0 d:/programming/cypress/psoc creator/4.0/psoc creator/import/gnu/arm/4.9.3/bin/../lib/gcc/arm-none-eabi/4.9.3/../../../../arm-none-eabi/lib/armv7-m\libg_nano.a(lib_a-sprintf.o)
 .bss           0x00000000        0x0 d:/programming/cypress/psoc creator/4.0/psoc creator/import/gnu/arm/4.9.3/bin/../lib/gcc/arm-none-eabi/4.9.3/../../../../arm-none-eabi/lib/armv7-m\libg_nano.a(lib_a-sprintf.o)
 .text._sprintf_r
                0x00000000       0x40 d:/programming/cypress/psoc creator/4.0/psoc creator/import/gnu/arm/4.9.3/bin/../lib/gcc/arm-none-eabi/4.9.3/../../../../arm-none-eabi/lib/armv7-m\libg_nano.a(lib_a-sprintf.o)
 .text          0x00000000        0x0 d:/programming/cypress/psoc creator/4.0/psoc creator/import/gnu/arm/4.9.3/bin/../lib/gcc/arm-none-eabi/4.9.3/../../../../arm-none-eabi/lib/armv7-m\libg_nano.a(lib_a-strlen.o)
 .data          0x00000000        0x0 d:/programming/cypress/psoc creator/4.0/psoc creator/import/gnu/arm/4.9.3/bin/../lib/gcc/arm-none-eabi/4.9.3/../../../../arm-none-eabi/lib/armv7-m\libg_nano.a(lib_a-strlen.o)
 .bss           0x00000000        0x0 d:/programming/cypress/psoc creator/4.0/psoc creator/import/gnu/arm/4.9.3/bin/../lib/gcc/arm-none-eabi/4.9.3/../../../../arm-none-eabi/lib/armv7-m\libg_nano.a(lib_a-strlen.o)
 .text.strlen   0x00000000       0x10 d:/programming/cypress/psoc creator/4.0/psoc creator/import/gnu/arm/4.9.3/bin/../lib/gcc/arm-none-eabi/4.9.3/../../../../arm-none-eabi/lib/armv7-m\libg_nano.a(lib_a-strlen.o)
 .text          0x00000000        0x0 d:/programming/cypress/psoc creator/4.0/psoc creator/import/gnu/arm/4.9.3/bin/../lib/gcc/arm-none-eabi/4.9.3/../../../../arm-none-eabi/lib/armv7-m\libg_nano.a(lib_a-strtok.o)
 .data          0x00000000        0x0 d:/programming/cypress/psoc creator/4.0/psoc creator/import/gnu/arm/4.9.3/bin/../lib/gcc/arm-none-eabi/4.9.3/../../../../arm-none-eabi/lib/armv7-m\libg_nano.a(lib_a-strtok.o)
 .bss           0x00000000        0x0 d:/programming/cypress/psoc creator/4.0/psoc creator/import/gnu/arm/4.9.3/bin/../lib/gcc/arm-none-eabi/4.9.3/../../../../arm-none-eabi/lib/armv7-m\libg_nano.a(lib_a-strtok.o)
 .text          0x00000000        0x0 d:/programming/cypress/psoc creator/4.0/psoc creator/import/gnu/arm/4.9.3/bin/../lib/gcc/arm-none-eabi/4.9.3/../../../../arm-none-eabi/lib/armv7-m\libg_nano.a(lib_a-strtok_r.o)
 .data          0x00000000        0x0 d:/programming/cypress/psoc creator/4.0/psoc creator/import/gnu/arm/4.9.3/bin/../lib/gcc/arm-none-eabi/4.9.3/../../../../arm-none-eabi/lib/armv7-m\libg_nano.a(lib_a-strtok_r.o)
 .bss           0x00000000        0x0 d:/programming/cypress/psoc creator/4.0/psoc creator/import/gnu/arm/4.9.3/bin/../lib/gcc/arm-none-eabi/4.9.3/../../../../arm-none-eabi/lib/armv7-m\libg_nano.a(lib_a-strtok_r.o)
 .text.strtok_r
                0x00000000        0x6 d:/programming/cypress/psoc creator/4.0/psoc creator/import/gnu/arm/4.9.3/bin/../lib/gcc/arm-none-eabi/4.9.3/../../../../arm-none-eabi/lib/armv7-m\libg_nano.a(lib_a-strtok_r.o)
 .text          0x00000000        0x0 d:/programming/cypress/psoc creator/4.0/psoc creator/import/gnu/arm/4.9.3/bin/../lib/gcc/arm-none-eabi/4.9.3/../../../../arm-none-eabi/lib/armv7-m\libg_nano.a(lib_a-strtol.o)
 .data          0x00000000        0x0 d:/programming/cypress/psoc creator/4.0/psoc creator/import/gnu/arm/4.9.3/bin/../lib/gcc/arm-none-eabi/4.9.3/../../../../arm-none-eabi/lib/armv7-m\libg_nano.a(lib_a-strtol.o)
 .bss           0x00000000        0x0 d:/programming/cypress/psoc creator/4.0/psoc creator/import/gnu/arm/4.9.3/bin/../lib/gcc/arm-none-eabi/4.9.3/../../../../arm-none-eabi/lib/armv7-m\libg_nano.a(lib_a-strtol.o)
 .text          0x00000000        0x0 d:/programming/cypress/psoc creator/4.0/psoc creator/import/gnu/arm/4.9.3/bin/../lib/gcc/arm-none-eabi/4.9.3/../../../../arm-none-eabi/lib/armv7-m\libg_nano.a(lib_a-ctype_.o)
 .data          0x00000000        0x0 d:/programming/cypress/psoc creator/4.0/psoc creator/import/gnu/arm/4.9.3/bin/../lib/gcc/arm-none-eabi/4.9.3/../../../../arm-none-eabi/lib/armv7-m\libg_nano.a(lib_a-ctype_.o)
 .bss           0x00000000        0x0 d:/programming/cypress/psoc creator/4.0/psoc creator/import/gnu/arm/4.9.3/bin/../lib/gcc/arm-none-eabi/4.9.3/../../../../arm-none-eabi/lib/armv7-m\libg_nano.a(lib_a-ctype_.o)
 .text          0x00000000        0x0 d:/programming/cypress/psoc creator/4.0/psoc creator/import/gnu/arm/4.9.3/bin/../lib/gcc/arm-none-eabi/4.9.3/../../../../arm-none-eabi/lib/armv7-m\libg_nano.a(lib_a-malloc.o)
 .data          0x00000000        0x0 d:/programming/cypress/psoc creator/4.0/psoc creator/import/gnu/arm/4.9.3/bin/../lib/gcc/arm-none-eabi/4.9.3/../../../../arm-none-eabi/lib/armv7-m\libg_nano.a(lib_a-malloc.o)
 .bss           0x00000000        0x0 d:/programming/cypress/psoc creator/4.0/psoc creator/import/gnu/arm/4.9.3/bin/../lib/gcc/arm-none-eabi/4.9.3/../../../../arm-none-eabi/lib/armv7-m\libg_nano.a(lib_a-malloc.o)
 .text.free     0x00000000       0x10 d:/programming/cypress/psoc creator/4.0/psoc creator/import/gnu/arm/4.9.3/bin/../lib/gcc/arm-none-eabi/4.9.3/../../../../arm-none-eabi/lib/armv7-m\libg_nano.a(lib_a-malloc.o)
 .text          0x00000000        0x0 d:/programming/cypress/psoc creator/4.0/psoc creator/import/gnu/arm/4.9.3/bin/../lib/gcc/arm-none-eabi/4.9.3/../../../../arm-none-eabi/lib/armv7-m\libg_nano.a(lib_a-nano-freer.o)
 .data          0x00000000        0x0 d:/programming/cypress/psoc creator/4.0/psoc creator/import/gnu/arm/4.9.3/bin/../lib/gcc/arm-none-eabi/4.9.3/../../../../arm-none-eabi/lib/armv7-m\libg_nano.a(lib_a-nano-freer.o)
 .bss           0x00000000        0x0 d:/programming/cypress/psoc creator/4.0/psoc creator/import/gnu/arm/4.9.3/bin/../lib/gcc/arm-none-eabi/4.9.3/../../../../arm-none-eabi/lib/armv7-m\libg_nano.a(lib_a-nano-freer.o)
 .text          0x00000000        0x0 d:/programming/cypress/psoc creator/4.0/psoc creator/import/gnu/arm/4.9.3/bin/../lib/gcc/arm-none-eabi/4.9.3/../../../../arm-none-eabi/lib/armv7-m\libg_nano.a(lib_a-nano-mallocr.o)
 .data          0x00000000        0x0 d:/programming/cypress/psoc creator/4.0/psoc creator/import/gnu/arm/4.9.3/bin/../lib/gcc/arm-none-eabi/4.9.3/../../../../arm-none-eabi/lib/armv7-m\libg_nano.a(lib_a-nano-mallocr.o)
 .bss           0x00000000        0x0 d:/programming/cypress/psoc creator/4.0/psoc creator/import/gnu/arm/4.9.3/bin/../lib/gcc/arm-none-eabi/4.9.3/../../../../arm-none-eabi/lib/armv7-m\libg_nano.a(lib_a-nano-mallocr.o)
 .text          0x00000000        0x0 d:/programming/cypress/psoc creator/4.0/psoc creator/import/gnu/arm/4.9.3/bin/../lib/gcc/arm-none-eabi/4.9.3/../../../../arm-none-eabi/lib/armv7-m\libg_nano.a(lib_a-nano-svfprintf.o)
 .data          0x00000000        0x0 d:/programming/cypress/psoc creator/4.0/psoc creator/import/gnu/arm/4.9.3/bin/../lib/gcc/arm-none-eabi/4.9.3/../../../../arm-none-eabi/lib/armv7-m\libg_nano.a(lib_a-nano-svfprintf.o)
 .bss           0x00000000        0x0 d:/programming/cypress/psoc creator/4.0/psoc creator/import/gnu/arm/4.9.3/bin/../lib/gcc/arm-none-eabi/4.9.3/../../../../arm-none-eabi/lib/armv7-m\libg_nano.a(lib_a-nano-svfprintf.o)
 .text.__ssprint_r
                0x00000000       0xfe d:/programming/cypress/psoc creator/4.0/psoc creator/import/gnu/arm/4.9.3/bin/../lib/gcc/arm-none-eabi/4.9.3/../../../../arm-none-eabi/lib/armv7-m\libg_nano.a(lib_a-nano-svfprintf.o)
 .text          0x00000000        0x0 d:/programming/cypress/psoc creator/4.0/psoc creator/import/gnu/arm/4.9.3/bin/../lib/gcc/arm-none-eabi/4.9.3/../../../../arm-none-eabi/lib/armv7-m\libg_nano.a(lib_a-nano-vfprintf_i.o)
 .data          0x00000000        0x0 d:/programming/cypress/psoc creator/4.0/psoc creator/import/gnu/arm/4.9.3/bin/../lib/gcc/arm-none-eabi/4.9.3/../../../../arm-none-eabi/lib/armv7-m\libg_nano.a(lib_a-nano-vfprintf_i.o)
 .bss           0x00000000        0x0 d:/programming/cypress/psoc creator/4.0/psoc creator/import/gnu/arm/4.9.3/bin/../lib/gcc/arm-none-eabi/4.9.3/../../../../arm-none-eabi/lib/armv7-m\libg_nano.a(lib_a-nano-vfprintf_i.o)
 .text          0x00000000        0x0 d:/programming/cypress/psoc creator/4.0/psoc creator/import/gnu/arm/4.9.3/bin/../lib/gcc/arm-none-eabi/4.9.3/../../../../arm-none-eabi/lib/armv7-m\libg_nano.a(lib_a-sbrkr.o)
 .data          0x00000000        0x0 d:/programming/cypress/psoc creator/4.0/psoc creator/import/gnu/arm/4.9.3/bin/../lib/gcc/arm-none-eabi/4.9.3/../../../../arm-none-eabi/lib/armv7-m\libg_nano.a(lib_a-sbrkr.o)
 .bss           0x00000000        0x0 d:/programming/cypress/psoc creator/4.0/psoc creator/import/gnu/arm/4.9.3/bin/../lib/gcc/arm-none-eabi/4.9.3/../../../../arm-none-eabi/lib/armv7-m\libg_nano.a(lib_a-sbrkr.o)
 .text          0x00000000        0x0 d:/programming/cypress/psoc creator/4.0/psoc creator/import/gnu/arm/4.9.3/bin/../lib/gcc/arm-none-eabi/4.9.3/../../../../arm-none-eabi/lib/armv7-m\libg_nano.a(lib_a-memchr.o)
 .data          0x00000000        0x0 d:/programming/cypress/psoc creator/4.0/psoc creator/import/gnu/arm/4.9.3/bin/../lib/gcc/arm-none-eabi/4.9.3/../../../../arm-none-eabi/lib/armv7-m\libg_nano.a(lib_a-memchr.o)
 .bss           0x00000000        0x0 d:/programming/cypress/psoc creator/4.0/psoc creator/import/gnu/arm/4.9.3/bin/../lib/gcc/arm-none-eabi/4.9.3/../../../../arm-none-eabi/lib/armv7-m\libg_nano.a(lib_a-memchr.o)
 .text          0x00000000        0x0 d:/programming/cypress/psoc creator/4.0/psoc creator/import/gnu/arm/4.9.3/bin/../lib/gcc/arm-none-eabi/4.9.3/../../../../arm-none-eabi/lib/armv7-m\libg_nano.a(lib_a-memmove.o)
 .data          0x00000000        0x0 d:/programming/cypress/psoc creator/4.0/psoc creator/import/gnu/arm/4.9.3/bin/../lib/gcc/arm-none-eabi/4.9.3/../../../../arm-none-eabi/lib/armv7-m\libg_nano.a(lib_a-memmove.o)
 .bss           0x00000000        0x0 d:/programming/cypress/psoc creator/4.0/psoc creator/import/gnu/arm/4.9.3/bin/../lib/gcc/arm-none-eabi/4.9.3/../../../../arm-none-eabi/lib/armv7-m\libg_nano.a(lib_a-memmove.o)
 .text          0x00000000        0x0 d:/programming/cypress/psoc creator/4.0/psoc creator/import/gnu/arm/4.9.3/bin/../lib/gcc/arm-none-eabi/4.9.3/../../../../arm-none-eabi/lib/armv7-m\libg_nano.a(lib_a-nano-reallocr.o)
 .data          0x00000000        0x0 d:/programming/cypress/psoc creator/4.0/psoc creator/import/gnu/arm/4.9.3/bin/../lib/gcc/arm-none-eabi/4.9.3/../../../../arm-none-eabi/lib/armv7-m\libg_nano.a(lib_a-nano-reallocr.o)
 .bss           0x00000000        0x0 d:/programming/cypress/psoc creator/4.0/psoc creator/import/gnu/arm/4.9.3/bin/../lib/gcc/arm-none-eabi/4.9.3/../../../../arm-none-eabi/lib/armv7-m\libg_nano.a(lib_a-nano-reallocr.o)
 .text          0x00000000        0x0 d:/programming/cypress/psoc creator/4.0/psoc creator/import/gnu/arm/4.9.3/bin/../lib/gcc/arm-none-eabi/4.9.3/../../../../arm-none-eabi/lib/armv7-m\libg_nano.a(lib_a-reent.o)
 .data          0x00000000        0x0 d:/programming/cypress/psoc creator/4.0/psoc creator/import/gnu/arm/4.9.3/bin/../lib/gcc/arm-none-eabi/4.9.3/../../../../arm-none-eabi/lib/armv7-m\libg_nano.a(lib_a-reent.o)
 .bss           0x00000000        0x0 d:/programming/cypress/psoc creator/4.0/psoc creator/import/gnu/arm/4.9.3/bin/../lib/gcc/arm-none-eabi/4.9.3/../../../../arm-none-eabi/lib/armv7-m\libg_nano.a(lib_a-reent.o)
 .text.cleanup_glue
                0x00000000       0x1a d:/programming/cypress/psoc creator/4.0/psoc creator/import/gnu/arm/4.9.3/bin/../lib/gcc/arm-none-eabi/4.9.3/../../../../arm-none-eabi/lib/armv7-m\libg_nano.a(lib_a-reent.o)
 .text._reclaim_reent
                0x00000000       0xb4 d:/programming/cypress/psoc creator/4.0/psoc creator/import/gnu/arm/4.9.3/bin/../lib/gcc/arm-none-eabi/4.9.3/../../../../arm-none-eabi/lib/armv7-m\libg_nano.a(lib_a-reent.o)
 .text          0x00000000        0x0 d:/programming/cypress/psoc creator/4.0/psoc creator/import/gnu/arm/4.9.3/bin/../lib/gcc/arm-none-eabi/4.9.3/../../../../arm-none-eabi/lib/armv7-m\libg_nano.a(lib_a-nano-msizer.o)
 .data          0x00000000        0x0 d:/programming/cypress/psoc creator/4.0/psoc creator/import/gnu/arm/4.9.3/bin/../lib/gcc/arm-none-eabi/4.9.3/../../../../arm-none-eabi/lib/armv7-m\libg_nano.a(lib_a-nano-msizer.o)
 .bss           0x00000000        0x0 d:/programming/cypress/psoc creator/4.0/psoc creator/import/gnu/arm/4.9.3/bin/../lib/gcc/arm-none-eabi/4.9.3/../../../../arm-none-eabi/lib/armv7-m\libg_nano.a(lib_a-nano-msizer.o)
 .text          0x00000000        0x0 d:/programming/cypress/psoc creator/4.0/psoc creator/import/gnu/arm/4.9.3/bin/../lib/gcc/arm-none-eabi/4.9.3/armv7-m/crtend.o
 .data          0x00000000        0x0 d:/programming/cypress/psoc creator/4.0/psoc creator/import/gnu/arm/4.9.3/bin/../lib/gcc/arm-none-eabi/4.9.3/armv7-m/crtend.o
 .bss           0x00000000        0x0 d:/programming/cypress/psoc creator/4.0/psoc creator/import/gnu/arm/4.9.3/bin/../lib/gcc/arm-none-eabi/4.9.3/armv7-m/crtend.o
 .text          0x00000000        0x0 d:/programming/cypress/psoc creator/4.0/psoc creator/import/gnu/arm/4.9.3/bin/../lib/gcc/arm-none-eabi/4.9.3/armv7-m/crtn.o
 .data          0x00000000        0x0 d:/programming/cypress/psoc creator/4.0/psoc creator/import/gnu/arm/4.9.3/bin/../lib/gcc/arm-none-eabi/4.9.3/armv7-m/crtn.o
 .bss           0x00000000        0x0 d:/programming/cypress/psoc creator/4.0/psoc creator/import/gnu/arm/4.9.3/bin/../lib/gcc/arm-none-eabi/4.9.3/armv7-m/crtn.o

Memory Configuration

Name             Origin             Length             Attributes
rom              0x00000000         0x00040000         xr
ram              0x1fff8000         0x00010000         xrw
*default*        0x00000000         0xffffffff

Linker script and memory map

LOAD d:/programming/cypress/psoc creator/4.0/psoc creator/import/gnu/arm/4.9.3/bin/../lib/gcc/arm-none-eabi/4.9.3/armv7-m/crti.o
LOAD d:/programming/cypress/psoc creator/4.0/psoc creator/import/gnu/arm/4.9.3/bin/../lib/gcc/arm-none-eabi/4.9.3/armv7-m/crtbegin.o
LOAD d:/programming/cypress/psoc creator/4.0/psoc creator/import/gnu/arm/4.9.3/bin/../lib/gcc/arm-none-eabi/4.9.3/../../../../arm-none-eabi/lib/armv7-m/crt0.o
START GROUP
LOAD .\CortexM3\ARM_GCC_493\Debug\main.o
LOAD .\CortexM3\ARM_GCC_493\Debug\can_manager.o
LOAD .\CortexM3\ARM_GCC_493\Debug\sd_manager.o
LOAD .\CortexM3\ARM_GCC_493\Debug\usb_manager.o
LOAD .\CortexM3\ARM_GCC_493\Debug\radio_manager.o
LOAD .\CortexM3\ARM_GCC_493\Debug\time_manager.o
LOAD .\CortexM3\ARM_GCC_493\Debug\cymetadata.o
LOAD .\CortexM3\ARM_GCC_493\Debug\Cm3Start.o
LOAD .\CortexM3\ARM_GCC_493\Debug\Node-Beaver_FE3.a
LOAD D:\Programming\Cypress\PSoC Creator\4.0\PSoC Creator\psoc\content\cycomponentlibrary\CyComponentLibrary.cylib\CortexM3\ARM_GCC_493\Debug\CyComponentLibrary.a
LOAD .\emFile_V322c\LinkLibrary\PSoC5\GCC\libemf16noslfn.a
END GROUP
START GROUP
LOAD d:/programming/cypress/psoc creator/4.0/psoc creator/import/gnu/arm/4.9.3/bin/../lib/gcc/arm-none-eabi/4.9.3/armv7-m\libgcc.a
LOAD d:/programming/cypress/psoc creator/4.0/psoc creator/import/gnu/arm/4.9.3/bin/../lib/gcc/arm-none-eabi/4.9.3/../../../../arm-none-eabi/lib/armv7-m\libg_nano.a
LOAD d:/programming/cypress/psoc creator/4.0/psoc creator/import/gnu/arm/4.9.3/bin/../lib/gcc/arm-none-eabi/4.9.3/../../../../arm-none-eabi/lib/armv7-m\libc_nano.a
END GROUP
START GROUP
LOAD d:/programming/cypress/psoc creator/4.0/psoc creator/import/gnu/arm/4.9.3/bin/../lib/gcc/arm-none-eabi/4.9.3/armv7-m\libgcc.a
LOAD d:/programming/cypress/psoc creator/4.0/psoc creator/import/gnu/arm/4.9.3/bin/../lib/gcc/arm-none-eabi/4.9.3/../../../../arm-none-eabi/lib/armv7-m\libc_nano.a
END GROUP
LOAD d:/programming/cypress/psoc creator/4.0/psoc creator/import/gnu/arm/4.9.3/bin/../lib/gcc/arm-none-eabi/4.9.3/armv7-m/crtend.o
LOAD d:/programming/cypress/psoc creator/4.0/psoc creator/import/gnu/arm/4.9.3/bin/../lib/gcc/arm-none-eabi/4.9.3/armv7-m/crtn.o
START GROUP
LOAD d:/programming/cypress/psoc creator/4.0/psoc creator/import/gnu/arm/4.9.3/bin/../lib/gcc/arm-none-eabi/4.9.3/armv7-m\libgcc.a
LOAD d:/programming/cypress/psoc creator/4.0/psoc creator/import/gnu/arm/4.9.3/bin/../lib/gcc/arm-none-eabi/4.9.3/../../../../arm-none-eabi/lib/armv7-m\libc.a
LOAD d:/programming/cypress/psoc creator/4.0/psoc creator/import/gnu/arm/4.9.3/bin/../lib/gcc/arm-none-eabi/4.9.3/../../../../arm-none-eabi/lib/armv7-m\libnosys.a
END GROUP
                0x00000000                CY_APPL_ORIGIN = 0x0
                0x00000100                CY_FLASH_ROW_SIZE = 0x100
                0x00000020                CY_ECC_ROW_SIZE = 0x20
                0x00000000                CY_EE_IN_BTLDR = 0x0
                0x00000000                CY_APPL_LOADABLE = 0x0
                0x00000800                CY_EE_SIZE = 0x800
                0x00000001                CY_APPL_NUM = 0x1
                0x00000001                CY_APPL_MAX = 0x1
                0x00000040                CY_METADATA_SIZE = 0x40
                0x00000000                CY_APPL_LOADABLE = 0x0
                0x00000000                CY_CHECKSUM_EXCLUDE_SIZE = ALIGN (0x0, CY_FLASH_ROW_SIZE)
                0x1fffd460                PROVIDE (__cy_heap_start, _end)
                0x00000001                PROVIDE (__cy_region_num, ((__cy_regions_end - __cy_regions) / 0x10))
                0x20008000                PROVIDE (__cy_stack, (ORIGIN (ram) + 0x10000))
                0x20004000                PROVIDE (__cy_heap_end, (__cy_stack - 0x4000))

.cybootloader   0x00000000        0x0
 *(.cybootloader)
                0x00000000                appl1_start = CY_APPL_ORIGIN?CY_APPL_ORIGIN:ALIGN (CY_FLASH_ROW_SIZE)
                0x0001ff00                appl2_start = (appl1_start + ALIGN ((((0x40000 - appl1_start) - (0x2 * CY_FLASH_ROW_SIZE)) / 0x2), CY_FLASH_ROW_SIZE))
                0x00000000                appl_start = (CY_APPL_NUM == 0x1)?appl1_start:appl2_start
                0x00000000                ecc_offset = ((appl_start / CY_FLASH_ROW_SIZE) * CY_ECC_ROW_SIZE)
                0x00000000                ee_offset = (CY_APPL_LOADABLE && ! (CY_EE_IN_BTLDR))?((CY_EE_SIZE / CY_APPL_MAX) * (CY_APPL_NUM - 0x1)):0x0
                0x00000800                ee_size = (CY_APPL_LOADABLE && ! (CY_EE_IN_BTLDR))?(CY_EE_SIZE / CY_APPL_MAX):CY_EE_SIZE
                0x00000000                PROVIDE (CY_ECC_OFFSET, ecc_offset)

.text           0x00000000     0x977e
 CREATE_OBJECT_SYMBOLS
                0x00000000                PROVIDE (__cy_interrupt_vector, RomVectors)
 *(.romvectors)
 .romvectors    0x00000000       0x10 .\CortexM3\ARM_GCC_493\Debug\Cm3Start.o
                0x00000000                RomVectors
                0x00000001                ASSERT ((. != __cy_interrupt_vector), No interrupt vector)
                0x00000001                ASSERT (CY_APPL_ORIGIN?(SIZEOF (.cybootloader) <= CY_APPL_ORIGIN):0x1, Wrong image location)
                0x00000010                PROVIDE (__cy_reset, Reset)
 *(.text.Reset)
 .text.Reset    0x00000010       0x18 .\CortexM3\ARM_GCC_493\Debug\Cm3Start.o
                0x00000010                Reset
                0x00000001                ASSERT ((. != __cy_reset), No reset code)
 *(.dma_init)
                0x00000001                ASSERT ((((appl_start + .) <= 0x10000) || 0x1), DMA Init must be within the first 64k of flash)
 *(.text .text.* .gnu.linkonce.t.*)
 .text          0x00000028       0x5c d:/programming/cypress/psoc creator/4.0/psoc creator/import/gnu/arm/4.9.3/bin/../lib/gcc/arm-none-eabi/4.9.3/armv7-m/crtbegin.o
 .text.main     0x00000084       0x34 .\CortexM3\ARM_GCC_493\Debug\main.o
                0x00000084                main
 .text.msg_recieve
                0x000000b8       0x28 .\CortexM3\ARM_GCC_493\Debug\main.o
                0x000000b8                msg_recieve
 .text.can_init
                0x000000e0       0x74 .\CortexM3\ARM_GCC_493\Debug\can_manager.o
                0x000000e0                can_init
 .text.can_msg_init
                0x00000154       0x48 .\CortexM3\ARM_GCC_493\Debug\can_manager.o
                0x00000154                can_msg_init
 .text.can_process
                0x0000019c       0xf0 .\CortexM3\ARM_GCC_493\Debug\can_manager.o
                0x0000019c                can_process
 .text.can_compare
                0x0000028c      0x14c .\CortexM3\ARM_GCC_493\Debug\can_manager.o
                0x0000028c                can_compare
 .text.power_interrupt
                0x000003d8       0x20 .\CortexM3\ARM_GCC_493\Debug\sd_manager.o
                0x000003d8                power_interrupt
 .text.sd_interrupt
                0x000003f8        0xc .\CortexM3\ARM_GCC_493\Debug\sd_manager.o
                0x000003f8                sd_interrupt
 .text.sd_init  0x00000404      0x17c .\CortexM3\ARM_GCC_493\Debug\sd_manager.o
                0x00000404                sd_init
 .text.sd_time_set
                0x00000580      0x190 .\CortexM3\ARM_GCC_493\Debug\sd_manager.o
                0x00000580                sd_time_set
 .text.sd_write
                0x00000710      0x160 .\CortexM3\ARM_GCC_493\Debug\sd_manager.o
                0x00000710                sd_write
 .text.sd_buffer
                0x00000870       0x38 .\CortexM3\ARM_GCC_493\Debug\sd_manager.o
                0x00000870                sd_buffer
 .text.sd_stop  0x000008a8       0x28 .\CortexM3\ARM_GCC_493\Debug\sd_manager.o
                0x000008a8                sd_stop
 .text.usb_init
                0x000008d0       0x10 .\CortexM3\ARM_GCC_493\Debug\usb_manager.o
                0x000008d0                usb_init
 .text.radio_init_SPI
                0x000008e0       0x20 .\CortexM3\ARM_GCC_493\Debug\radio_manager.o
                0x000008e0                radio_init_SPI
 .text.set_des_addr
                0x00000900       0x60 .\CortexM3\ARM_GCC_493\Debug\radio_manager.o
                0x00000900                set_des_addr
 .text.checksum_calc
                0x00000960       0x48 .\CortexM3\ARM_GCC_493\Debug\radio_manager.o
                0x00000960                checksum_calc
 .text.xbee_send
                0x000009a8       0x14 .\CortexM3\ARM_GCC_493\Debug\radio_manager.o
                0x000009a8                xbee_send
 .text.xbee_Tx_req
                0x000009bc      0x110 .\CortexM3\ARM_GCC_493\Debug\radio_manager.o
                0x000009bc                xbee_Tx_req
 .text.time_refresh_vector
                0x00000acc       0x28 .\CortexM3\ARM_GCC_493\Debug\time_manager.o
                0x00000acc                time_refresh_vector
 .text.time_init
                0x00000af4       0x9c .\CortexM3\ARM_GCC_493\Debug\time_manager.o
                0x00000af4                time_init
 .text.time_announce
                0x00000b90       0x7c .\CortexM3\ARM_GCC_493\Debug\time_manager.o
                0x00000b90                time_announce
 .text.time_get
                0x00000c0c       0x34 .\CortexM3\ARM_GCC_493\Debug\time_manager.o
                0x00000c0c                time_get
 .text.time_set
                0x00000c40      0x180 .\CortexM3\ARM_GCC_493\Debug\time_manager.o
                0x00000c40                time_set
 .text.time_retreive
                0x00000dc0      0x154 .\CortexM3\ARM_GCC_493\Debug\time_manager.o
                0x00000dc0                time_retreive
 .text.IntDefaultHandler
                0x00000f14       0x14 .\CortexM3\ARM_GCC_493\Debug\Cm3Start.o
                0x00000f14                IntDefaultHandler
 .text._sbrk    0x00000f28       0x54 .\CortexM3\ARM_GCC_493\Debug\Cm3Start.o
                0x00000f28                _sbrk
 .text.Start_c  0x00000f7c       0x98 .\CortexM3\ARM_GCC_493\Debug\Cm3Start.o
                0x00000f7c                Start_c
 .text.initialize_psoc
                0x00001014       0x8c .\CortexM3\ARM_GCC_493\Debug\Cm3Start.o
                0x00001014                initialize_psoc
 .text.CYMEMZERO
                0x000010a0       0x1c .\CortexM3\ARM_GCC_493\Debug\Node-Beaver_FE3.a(cyfitter_cfg.o)
 .text.CYCONFIGCPY
                0x000010bc       0x1c .\CortexM3\ARM_GCC_493\Debug\Node-Beaver_FE3.a(cyfitter_cfg.o)
 .text.CyClockStartupError
                0x000010d8        0xc .\CortexM3\ARM_GCC_493\Debug\Node-Beaver_FE3.a(cyfitter_cfg.o)
 .text.cfg_write_bytes32
                0x000010e4       0x74 .\CortexM3\ARM_GCC_493\Debug\Node-Beaver_FE3.a(cyfitter_cfg.o)
 .text.ClockSetup
                0x00001158      0x140 .\CortexM3\ARM_GCC_493\Debug\Node-Beaver_FE3.a(cyfitter_cfg.o)
 .text.AnalogSetDefault
                0x00001298       0x60 .\CortexM3\ARM_GCC_493\Debug\Node-Beaver_FE3.a(cyfitter_cfg.o)
 .text.cyfitter_cfg
                0x000012f8      0x17c .\CortexM3\ARM_GCC_493\Debug\Node-Beaver_FE3.a(cyfitter_cfg.o)
                0x000012f8                cyfitter_cfg
 .text.CyHalt   0x00001474       0x18 .\CortexM3\ARM_GCC_493\Debug\Node-Beaver_FE3.a(CyLib.o)
                0x00001474                CyHalt
 .text.CySoftwareReset
                0x0000148c       0x20 .\CortexM3\ARM_GCC_493\Debug\Node-Beaver_FE3.a(CyLib.o)
                0x0000148c                CySoftwareReset
 .text.CyDelay  0x000014ac       0x44 .\CortexM3\ARM_GCC_493\Debug\Node-Beaver_FE3.a(CyLib.o)
                0x000014ac                CyDelay
 .text.CyDelayUs
                0x000014f0       0x24 .\CortexM3\ARM_GCC_493\Debug\Node-Beaver_FE3.a(CyLib.o)
                0x000014f0                CyDelayUs
 .text.CyIntSetVector
                0x00001514       0x50 .\CortexM3\ARM_GCC_493\Debug\Node-Beaver_FE3.a(CyLib.o)
                0x00001514                CyIntSetVector
 .text.CyIntSetPriority
                0x00001564       0x44 .\CortexM3\ARM_GCC_493\Debug\Node-Beaver_FE3.a(CyLib.o)
                0x00001564                CyIntSetPriority
 .text.CyGetUniqueId
                0x000015a8       0xc4 .\CortexM3\ARM_GCC_493\Debug\Node-Beaver_FE3.a(CyLib.o)
                0x000015a8                CyGetUniqueId
 .text.CAN_1_RxTxBuffersConfig
                0x0000166c       0x80 .\CortexM3\ARM_GCC_493\Debug\Node-Beaver_FE3.a(CAN_1.o)
                0x0000166c                CAN_1_RxTxBuffersConfig
 .text.CAN_1_Init
                0x000016ec      0x128 .\CortexM3\ARM_GCC_493\Debug\Node-Beaver_FE3.a(CAN_1.o)
                0x000016ec                CAN_1_Init
 .text.CAN_1_Enable
                0x00001814       0xa4 .\CortexM3\ARM_GCC_493\Debug\Node-Beaver_FE3.a(CAN_1.o)
                0x00001814                CAN_1_Enable
 .text.CAN_1_Start
                0x000018b8       0x3c .\CortexM3\ARM_GCC_493\Debug\Node-Beaver_FE3.a(CAN_1.o)
                0x000018b8                CAN_1_Start
 .text.CAN_1_GlobalIntEnable
                0x000018f4       0x40 .\CortexM3\ARM_GCC_493\Debug\Node-Beaver_FE3.a(CAN_1.o)
                0x000018f4                CAN_1_GlobalIntEnable
 .text.CAN_1_SetPreScaler
                0x00001934       0x44 .\CortexM3\ARM_GCC_493\Debug\Node-Beaver_FE3.a(CAN_1.o)
                0x00001934                CAN_1_SetPreScaler
 .text.CAN_1_SetArbiter
                0x00001978       0x6c .\CortexM3\ARM_GCC_493\Debug\Node-Beaver_FE3.a(CAN_1.o)
                0x00001978                CAN_1_SetArbiter
 .text.CAN_1_SetTsegSample
                0x000019e4       0xd4 .\CortexM3\ARM_GCC_493\Debug\Node-Beaver_FE3.a(CAN_1.o)
                0x000019e4                CAN_1_SetTsegSample
 .text.CAN_1_SetRestartType
                0x00001ab8       0x6c .\CortexM3\ARM_GCC_493\Debug\Node-Beaver_FE3.a(CAN_1.o)
                0x00001ab8                CAN_1_SetRestartType
 .text.CAN_1_SetEdgeMode
                0x00001b24       0x6c .\CortexM3\ARM_GCC_493\Debug\Node-Beaver_FE3.a(CAN_1.o)
                0x00001b24                CAN_1_SetEdgeMode
 .text.CAN_1_SetIrqMask
                0x00001b90       0x38 .\CortexM3\ARM_GCC_493\Debug\Node-Beaver_FE3.a(CAN_1.o)
                0x00001b90                CAN_1_SetIrqMask
 .text.CAN_1_RxBufConfig
                0x00001bc8       0xec .\CortexM3\ARM_GCC_493\Debug\Node-Beaver_FE3.a(CAN_1.o)
                0x00001bc8                CAN_1_RxBufConfig
 .text.CAN_1_TxBufConfig
                0x00001cb4       0x88 .\CortexM3\ARM_GCC_493\Debug\Node-Beaver_FE3.a(CAN_1.o)
                0x00001cb4                CAN_1_TxBufConfig
 .text.CAN_1_MsgRXIsr
                0x00001d3c       0x68 .\CortexM3\ARM_GCC_493\Debug\Node-Beaver_FE3.a(CAN_1_INT.o)
                0x00001d3c                CAN_1_MsgRXIsr
 .text.CAN_1_ISR
                0x00001da4       0x1c .\CortexM3\ARM_GCC_493\Debug\Node-Beaver_FE3.a(CAN_1_INT.o)
                0x00001da4                CAN_1_ISR
 .text.CAN_1_ReceiveMsg
                0x00001dc0       0xd8 .\CortexM3\ARM_GCC_493\Debug\Node-Beaver_FE3.a(CAN_1_TX_RX_func.o)
                0x00001dc0                CAN_1_ReceiveMsg
 .text.LED_Write
                0x00001e98       0x34 .\CortexM3\ARM_GCC_493\Debug\Node-Beaver_FE3.a(LED.o)
                0x00001e98                LED_Write
 .text.USBUART_1_Start
                0x00001ecc       0x38 .\CortexM3\ARM_GCC_493\Debug\Node-Beaver_FE3.a(USBUART_1.o)
                0x00001ecc                USBUART_1_Start
 .text.USBUART_1_Init
                0x00001f04      0x1a0 .\CortexM3\ARM_GCC_493\Debug\Node-Beaver_FE3.a(USBUART_1.o)
                0x00001f04                USBUART_1_Init
 .text.USBUART_1_InitComponent
                0x000020a4      0x100 .\CortexM3\ARM_GCC_493\Debug\Node-Beaver_FE3.a(USBUART_1.o)
                0x000020a4                USBUART_1_InitComponent
 .text.USBUART_1_ReInitComponent
                0x000021a4       0x68 .\CortexM3\ARM_GCC_493\Debug\Node-Beaver_FE3.a(USBUART_1.o)
                0x000021a4                USBUART_1_ReInitComponent
 .text.USBUART_1_DispatchCDCClassRqst
                0x0000220c       0xe8 .\CortexM3\ARM_GCC_493\Debug\Node-Beaver_FE3.a(USBUART_1_cdc.o)
                0x0000220c                USBUART_1_DispatchCDCClassRqst
 .text.USBUART_1_GetInterfaceComPort
                0x000022f4       0x60 .\CortexM3\ARM_GCC_493\Debug\Node-Beaver_FE3.a(USBUART_1_cdc.o)
                0x000022f4                USBUART_1_GetInterfaceComPort
 .text.USBUART_1_Cdc_EpInit
                0x00002354       0x94 .\CortexM3\ARM_GCC_493\Debug\Node-Beaver_FE3.a(USBUART_1_cdc.o)
                0x00002354                USBUART_1_Cdc_EpInit
 .text.USBUART_1_EP_0_ISR
                0x000023e8       0xf8 .\CortexM3\ARM_GCC_493\Debug\Node-Beaver_FE3.a(USBUART_1_drv.o)
                0x000023e8                USBUART_1_EP_0_ISR
 .text.USBUART_1_HandleSetup
                0x000024e0       0x88 .\CortexM3\ARM_GCC_493\Debug\Node-Beaver_FE3.a(USBUART_1_drv.o)
                0x000024e0                USBUART_1_HandleSetup
 .text.USBUART_1_HandleIN
                0x00002568       0x4c .\CortexM3\ARM_GCC_493\Debug\Node-Beaver_FE3.a(USBUART_1_drv.o)
                0x00002568                USBUART_1_HandleIN
 .text.USBUART_1_HandleOUT
                0x000025b4       0x58 .\CortexM3\ARM_GCC_493\Debug\Node-Beaver_FE3.a(USBUART_1_drv.o)
                0x000025b4                USBUART_1_HandleOUT
 .text.USBUART_1_LoadEP0
                0x0000260c       0xd0 .\CortexM3\ARM_GCC_493\Debug\Node-Beaver_FE3.a(USBUART_1_drv.o)
                0x0000260c                USBUART_1_LoadEP0
 .text.USBUART_1_InitControlRead
                0x000026dc       0x70 .\CortexM3\ARM_GCC_493\Debug\Node-Beaver_FE3.a(USBUART_1_drv.o)
                0x000026dc                USBUART_1_InitControlRead
 .text.USBUART_1_InitZeroLengthControlTransfer
                0x0000274c       0x44 .\CortexM3\ARM_GCC_493\Debug\Node-Beaver_FE3.a(USBUART_1_drv.o)
                0x0000274c                USBUART_1_InitZeroLengthControlTransfer
 .text.USBUART_1_ControlReadDataStage
                0x00002790        0xc .\CortexM3\ARM_GCC_493\Debug\Node-Beaver_FE3.a(USBUART_1_drv.o)
                0x00002790                USBUART_1_ControlReadDataStage
 .text.USBUART_1_ControlReadStatusStage
                0x0000279c       0x40 .\CortexM3\ARM_GCC_493\Debug\Node-Beaver_FE3.a(USBUART_1_drv.o)
                0x0000279c                USBUART_1_ControlReadStatusStage
 .text.USBUART_1_InitControlWrite
                0x000027dc       0x64 .\CortexM3\ARM_GCC_493\Debug\Node-Beaver_FE3.a(USBUART_1_drv.o)
                0x000027dc                USBUART_1_InitControlWrite
 .text.USBUART_1_ControlWriteDataStage
                0x00002840       0xb4 .\CortexM3\ARM_GCC_493\Debug\Node-Beaver_FE3.a(USBUART_1_drv.o)
                0x00002840                USBUART_1_ControlWriteDataStage
 .text.USBUART_1_ControlWriteStatusStage
                0x000028f4       0x20 .\CortexM3\ARM_GCC_493\Debug\Node-Beaver_FE3.a(USBUART_1_drv.o)
                0x000028f4                USBUART_1_ControlWriteStatusStage
 .text.USBUART_1_InitNoDataControlTransfer
                0x00002914       0x38 .\CortexM3\ARM_GCC_493\Debug\Node-Beaver_FE3.a(USBUART_1_drv.o)
                0x00002914                USBUART_1_InitNoDataControlTransfer
 .text.USBUART_1_NoDataControlStatusStage
                0x0000294c       0x48 .\CortexM3\ARM_GCC_493\Debug\Node-Beaver_FE3.a(USBUART_1_drv.o)
                0x0000294c                USBUART_1_NoDataControlStatusStage
 .text.USBUART_1_UpdateStatusBlock
                0x00002994       0x40 .\CortexM3\ARM_GCC_493\Debug\Node-Beaver_FE3.a(USBUART_1_drv.o)
                0x00002994                USBUART_1_UpdateStatusBlock
 .text.USBUART_1_InitializeStatusBlock
                0x000029d4       0x34 .\CortexM3\ARM_GCC_493\Debug\Node-Beaver_FE3.a(USBUART_1_drv.o)
                0x000029d4                USBUART_1_InitializeStatusBlock
 .text.USBUART_1_EP_1_ISR
                0x00002a08       0x48 .\CortexM3\ARM_GCC_493\Debug\Node-Beaver_FE3.a(USBUART_1_episr.o)
                0x00002a08                USBUART_1_EP_1_ISR
 .text.USBUART_1_EP_2_ISR
                0x00002a50       0x4c .\CortexM3\ARM_GCC_493\Debug\Node-Beaver_FE3.a(USBUART_1_episr.o)
                0x00002a50                USBUART_1_EP_2_ISR
 .text.USBUART_1_EP_3_ISR
                0x00002a9c       0x54 .\CortexM3\ARM_GCC_493\Debug\Node-Beaver_FE3.a(USBUART_1_episr.o)
                0x00002a9c                USBUART_1_EP_3_ISR
 .text.USBUART_1_SOF_ISR
                0x00002af0        0xc .\CortexM3\ARM_GCC_493\Debug\Node-Beaver_FE3.a(USBUART_1_episr.o)
                0x00002af0                USBUART_1_SOF_ISR
 .text.USBUART_1_BUS_RESET_ISR
                0x00002afc        0xc .\CortexM3\ARM_GCC_493\Debug\Node-Beaver_FE3.a(USBUART_1_episr.o)
                0x00002afc                USBUART_1_BUS_RESET_ISR
 .text.USBUART_1_DP_ISR
                0x00002b08        0xc .\CortexM3\ARM_GCC_493\Debug\Node-Beaver_FE3.a(USBUART_1_pm.o)
                0x00002b08                USBUART_1_DP_ISR
 .text.USBUART_1_HandleStandardRqst
                0x00002b14      0x48c .\CortexM3\ARM_GCC_493\Debug\Node-Beaver_FE3.a(USBUART_1_std.o)
                0x00002b14                USBUART_1_HandleStandardRqst
 .text.USBUART_1_ReadDieID
                0x00002fa0       0xd4 .\CortexM3\ARM_GCC_493\Debug\Node-Beaver_FE3.a(USBUART_1_std.o)
                0x00002fa0                USBUART_1_ReadDieID
 .text.USBUART_1_ConfigReg
                0x00003074      0x11c .\CortexM3\ARM_GCC_493\Debug\Node-Beaver_FE3.a(USBUART_1_std.o)
                0x00003074                USBUART_1_ConfigReg
 .text.USBUART_1_Config
                0x00003190      0x394 .\CortexM3\ARM_GCC_493\Debug\Node-Beaver_FE3.a(USBUART_1_std.o)
                0x00003190                USBUART_1_Config
 .text.USBUART_1_ConfigAltChanged
                0x00003524      0x23c .\CortexM3\ARM_GCC_493\Debug\Node-Beaver_FE3.a(USBUART_1_std.o)
                0x00003524                USBUART_1_ConfigAltChanged
 .text.USBUART_1_GetConfigTablePtr
                0x00003760       0x54 .\CortexM3\ARM_GCC_493\Debug\Node-Beaver_FE3.a(USBUART_1_std.o)
                0x00003760                USBUART_1_GetConfigTablePtr
 .text.USBUART_1_GetDeviceTablePtr
                0x000037b4       0x24 .\CortexM3\ARM_GCC_493\Debug\Node-Beaver_FE3.a(USBUART_1_std.o)
                0x000037b4                USBUART_1_GetDeviceTablePtr
 .text.USBUART_1_GetInterfaceClassTablePtr
                0x000037d8       0x4c .\CortexM3\ARM_GCC_493\Debug\Node-Beaver_FE3.a(USBUART_1_std.o)
                0x000037d8                USBUART_1_GetInterfaceClassTablePtr
 .text.USBUART_1_SetEndpointHalt
                0x00003824       0xdc .\CortexM3\ARM_GCC_493\Debug\Node-Beaver_FE3.a(USBUART_1_std.o)
                0x00003824                USBUART_1_SetEndpointHalt
 .text.USBUART_1_ClearEndpointHalt
                0x00003900      0x130 .\CortexM3\ARM_GCC_493\Debug\Node-Beaver_FE3.a(USBUART_1_std.o)
                0x00003900                USBUART_1_ClearEndpointHalt
 .text.USBUART_1_ValidateAlternateSetting
                0x00003a30       0x70 .\CortexM3\ARM_GCC_493\Debug\Node-Beaver_FE3.a(USBUART_1_std.o)
                0x00003a30                USBUART_1_ValidateAlternateSetting
 .text.USBUART_1_HandleVendorRqst
                0x00003aa0       0x54 .\CortexM3\ARM_GCC_493\Debug\Node-Beaver_FE3.a(USBUART_1_vnd.o)
                0x00003aa0                USBUART_1_HandleVendorRqst
 .text.USBUART_1_Dp_ClearInterrupt
                0x00003af4       0x20 .\CortexM3\ARM_GCC_493\Debug\Node-Beaver_FE3.a(USBUART_1_Dp.o)
                0x00003af4                USBUART_1_Dp_ClearInterrupt
 .text.power_isr_StartEx
                0x00003b14       0x24 .\CortexM3\ARM_GCC_493\Debug\Node-Beaver_FE3.a(power_isr.o)
                0x00003b14                power_isr_StartEx
 .text.power_isr_SetVector
                0x00003b38       0x24 .\CortexM3\ARM_GCC_493\Debug\Node-Beaver_FE3.a(power_isr.o)
                0x00003b38                power_isr_SetVector
 .text.power_isr_SetPriority
                0x00003b5c       0x24 .\CortexM3\ARM_GCC_493\Debug\Node-Beaver_FE3.a(power_isr.o)
                0x00003b5c                power_isr_SetPriority
 .text.power_isr_Enable
                0x00003b80       0x18 .\CortexM3\ARM_GCC_493\Debug\Node-Beaver_FE3.a(power_isr.o)
                0x00003b80                power_isr_Enable
 .text.power_isr_Disable
                0x00003b98       0x18 .\CortexM3\ARM_GCC_493\Debug\Node-Beaver_FE3.a(power_isr.o)
                0x00003b98                power_isr_Disable
 .text.power_isr_ClearPending
                0x00003bb0       0x18 .\CortexM3\ARM_GCC_493\Debug\Node-Beaver_FE3.a(power_isr.o)
                0x00003bb0                power_isr_ClearPending
 .text.rtc_i2c_Init
                0x00003bc8       0x80 .\CortexM3\ARM_GCC_493\Debug\Node-Beaver_FE3.a(rtc_i2c.o)
                0x00003bc8                rtc_i2c_Init
 .text.rtc_i2c_Enable
                0x00003c48       0x44 .\CortexM3\ARM_GCC_493\Debug\Node-Beaver_FE3.a(rtc_i2c.o)
                0x00003c48                rtc_i2c_Enable
 .text.rtc_i2c_Start
                0x00003c8c       0x2c .\CortexM3\ARM_GCC_493\Debug\Node-Beaver_FE3.a(rtc_i2c.o)
                0x00003c8c                rtc_i2c_Start
 .text.rtc_i2c_ISR
                0x00003cb8      0x3ac .\CortexM3\ARM_GCC_493\Debug\Node-Beaver_FE3.a(rtc_i2c_INT.o)
                0x00003cb8                rtc_i2c_ISR
 .text.rtc_i2c_MasterSendStart
                0x00004064       0xbc .\CortexM3\ARM_GCC_493\Debug\Node-Beaver_FE3.a(rtc_i2c_MASTER.o)
                0x00004064                rtc_i2c_MasterSendStart
 .text.rtc_i2c_MasterSendStop
                0x00004120       0x58 .\CortexM3\ARM_GCC_493\Debug\Node-Beaver_FE3.a(rtc_i2c_MASTER.o)
                0x00004120                rtc_i2c_MasterSendStop
 .text.rtc_i2c_MasterWriteByte
                0x00004178       0x80 .\CortexM3\ARM_GCC_493\Debug\Node-Beaver_FE3.a(rtc_i2c_MASTER.o)
                0x00004178                rtc_i2c_MasterWriteByte
 .text.rtc_i2c_MasterReadByte
                0x000041f8       0x7c .\CortexM3\ARM_GCC_493\Debug\Node-Beaver_FE3.a(rtc_i2c_MASTER.o)
                0x000041f8                rtc_i2c_MasterReadByte
 .text.time_refresh_isr_StartEx
                0x00004274       0x24 .\CortexM3\ARM_GCC_493\Debug\Node-Beaver_FE3.a(time_refresh_isr.o)
                0x00004274                time_refresh_isr_StartEx
 .text.time_refresh_isr_SetVector
                0x00004298       0x24 .\CortexM3\ARM_GCC_493\Debug\Node-Beaver_FE3.a(time_refresh_isr.o)
                0x00004298                time_refresh_isr_SetVector
 .text.time_refresh_isr_SetPriority
                0x000042bc       0x24 .\CortexM3\ARM_GCC_493\Debug\Node-Beaver_FE3.a(time_refresh_isr.o)
                0x000042bc                time_refresh_isr_SetPriority
 .text.time_refresh_isr_Enable
                0x000042e0       0x18 .\CortexM3\ARM_GCC_493\Debug\Node-Beaver_FE3.a(time_refresh_isr.o)
                0x000042e0                time_refresh_isr_Enable
 .text.time_refresh_isr_Disable
                0x000042f8       0x18 .\CortexM3\ARM_GCC_493\Debug\Node-Beaver_FE3.a(time_refresh_isr.o)
                0x000042f8                time_refresh_isr_Disable
 .text.millis_timer_Init
                0x00004310       0x4c .\CortexM3\ARM_GCC_493\Debug\Node-Beaver_FE3.a(millis_timer.o)
                0x00004310                millis_timer_Init
 .text.millis_timer_Enable
                0x0000435c       0x20 .\CortexM3\ARM_GCC_493\Debug\Node-Beaver_FE3.a(millis_timer.o)
                0x0000435c                millis_timer_Enable
 .text.millis_timer_Start
                0x0000437c       0x20 .\CortexM3\ARM_GCC_493\Debug\Node-Beaver_FE3.a(millis_timer.o)
                0x0000437c                millis_timer_Start
 .text.millis_timer_SetInterruptMode
                0x0000439c       0x20 .\CortexM3\ARM_GCC_493\Debug\Node-Beaver_FE3.a(millis_timer.o)
                0x0000439c                millis_timer_SetInterruptMode
 .text.millis_timer_ReadStatusRegister
                0x000043bc       0x18 .\CortexM3\ARM_GCC_493\Debug\Node-Beaver_FE3.a(millis_timer.o)
                0x000043bc                millis_timer_ReadStatusRegister
 .text.millis_timer_WritePeriod
                0x000043d4       0x1c .\CortexM3\ARM_GCC_493\Debug\Node-Beaver_FE3.a(millis_timer.o)
                0x000043d4                millis_timer_WritePeriod
 .text.millis_timer_ReadCapture
                0x000043f0       0x18 .\CortexM3\ARM_GCC_493\Debug\Node-Beaver_FE3.a(millis_timer.o)
                0x000043f0                millis_timer_ReadCapture
 .text.millis_timer_WriteCounter
                0x00004408       0x1c .\CortexM3\ARM_GCC_493\Debug\Node-Beaver_FE3.a(millis_timer.o)
                0x00004408                millis_timer_WriteCounter
 .text.millis_timer_ReadCounter
                0x00004424       0x20 .\CortexM3\ARM_GCC_493\Debug\Node-Beaver_FE3.a(millis_timer.o)
                0x00004424                millis_timer_ReadCounter
 .text.millis_timer_ClearFIFO
                0x00004444       0x1c .\CortexM3\ARM_GCC_493\Debug\Node-Beaver_FE3.a(millis_timer.o)
                0x00004444                millis_timer_ClearFIFO
 .text.time_refresh_timer_Init
                0x00004460       0x4c .\CortexM3\ARM_GCC_493\Debug\Node-Beaver_FE3.a(time_refresh_timer.o)
                0x00004460                time_refresh_timer_Init
 .text.time_refresh_timer_Enable
                0x000044ac       0x20 .\CortexM3\ARM_GCC_493\Debug\Node-Beaver_FE3.a(time_refresh_timer.o)
                0x000044ac                time_refresh_timer_Enable
 .text.time_refresh_timer_Start
                0x000044cc       0x20 .\CortexM3\ARM_GCC_493\Debug\Node-Beaver_FE3.a(time_refresh_timer.o)
                0x000044cc                time_refresh_timer_Start
 .text.time_refresh_timer_SetInterruptMode
                0x000044ec       0x20 .\CortexM3\ARM_GCC_493\Debug\Node-Beaver_FE3.a(time_refresh_timer.o)
                0x000044ec                time_refresh_timer_SetInterruptMode
 .text.time_refresh_timer_ReadStatusRegister
                0x0000450c       0x18 .\CortexM3\ARM_GCC_493\Debug\Node-Beaver_FE3.a(time_refresh_timer.o)
                0x0000450c                time_refresh_timer_ReadStatusRegister
 .text.time_refresh_timer_WritePeriod
                0x00004524       0x1c .\CortexM3\ARM_GCC_493\Debug\Node-Beaver_FE3.a(time_refresh_timer.o)
                0x00004524                time_refresh_timer_WritePeriod
 .text.time_refresh_timer_ReadCapture
                0x00004540       0x1c .\CortexM3\ARM_GCC_493\Debug\Node-Beaver_FE3.a(time_refresh_timer.o)
                0x00004540                time_refresh_timer_ReadCapture
 .text.time_refresh_timer_WriteCounter
                0x0000455c       0x1c .\CortexM3\ARM_GCC_493\Debug\Node-Beaver_FE3.a(time_refresh_timer.o)
                0x0000455c                time_refresh_timer_WriteCounter
 .text.time_refresh_timer_ClearFIFO
                0x00004578       0x1c .\CortexM3\ARM_GCC_493\Debug\Node-Beaver_FE3.a(time_refresh_timer.o)
                0x00004578                time_refresh_timer_ClearFIFO
 .text.xbee_spi_Init
                0x00004594       0x6c .\CortexM3\ARM_GCC_493\Debug\Node-Beaver_FE3.a(xbee_spi.o)
                0x00004594                xbee_spi_Init
 .text.xbee_spi_Enable
                0x00004600       0x64 .\CortexM3\ARM_GCC_493\Debug\Node-Beaver_FE3.a(xbee_spi.o)
                0x00004600                xbee_spi_Enable
 .text.xbee_spi_Start
                0x00004664       0x20 .\CortexM3\ARM_GCC_493\Debug\Node-Beaver_FE3.a(xbee_spi.o)
                0x00004664                xbee_spi_Start
 .text.xbee_spi_EnableTxInt
                0x00004684       0x18 .\CortexM3\ARM_GCC_493\Debug\Node-Beaver_FE3.a(xbee_spi.o)
                0x00004684                xbee_spi_EnableTxInt
 .text.xbee_spi_EnableRxInt
                0x0000469c        0xc .\CortexM3\ARM_GCC_493\Debug\Node-Beaver_FE3.a(xbee_spi.o)
                0x0000469c                xbee_spi_EnableRxInt
 .text.xbee_spi_DisableTxInt
                0x000046a8       0x18 .\CortexM3\ARM_GCC_493\Debug\Node-Beaver_FE3.a(xbee_spi.o)
                0x000046a8                xbee_spi_DisableTxInt
 .text.xbee_spi_ReadTxStatus
                0x000046c0       0x3c .\CortexM3\ARM_GCC_493\Debug\Node-Beaver_FE3.a(xbee_spi.o)
                0x000046c0                xbee_spi_ReadTxStatus
 .text.xbee_spi_ReadRxStatus
                0x000046fc       0x20 .\CortexM3\ARM_GCC_493\Debug\Node-Beaver_FE3.a(xbee_spi.o)
                0x000046fc                xbee_spi_ReadRxStatus
 .text.xbee_spi_WriteTxData
                0x0000471c      0x110 .\CortexM3\ARM_GCC_493\Debug\Node-Beaver_FE3.a(xbee_spi.o)
                0x0000471c                xbee_spi_WriteTxData
 .text.xbee_spi_PutArray
                0x0000482c       0x38 .\CortexM3\ARM_GCC_493\Debug\Node-Beaver_FE3.a(xbee_spi.o)
                0x0000482c                xbee_spi_PutArray
 .text.xbee_spi_ClearFIFO
                0x00004864       0x5c .\CortexM3\ARM_GCC_493\Debug\Node-Beaver_FE3.a(xbee_spi.o)
                0x00004864                xbee_spi_ClearFIFO
 .text.xbee_spi_TX_ISR
                0x000048c0       0xd4 .\CortexM3\ARM_GCC_493\Debug\Node-Beaver_FE3.a(xbee_spi_INT.o)
                0x000048c0                xbee_spi_TX_ISR
 .text.xbee_spi_IntClock_Start
                0x00004994       0x34 .\CortexM3\ARM_GCC_493\Debug\Node-Beaver_FE3.a(xbee_spi_IntClock.o)
                0x00004994                xbee_spi_IntClock_Start
 .text.power_comp_Init
                0x000049c8       0x64 .\CortexM3\ARM_GCC_493\Debug\Node-Beaver_FE3.a(power_comp.o)
                0x000049c8                power_comp_Init
 .text.power_comp_Enable
                0x00004a2c       0x34 .\CortexM3\ARM_GCC_493\Debug\Node-Beaver_FE3.a(power_comp.o)
                0x00004a2c                power_comp_Enable
 .text.power_comp_Start
                0x00004a60       0x20 .\CortexM3\ARM_GCC_493\Debug\Node-Beaver_FE3.a(power_comp.o)
                0x00004a60                power_comp_Start
 .text.power_comp_SetSpeed
                0x00004a80       0x80 .\CortexM3\ARM_GCC_493\Debug\Node-Beaver_FE3.a(power_comp.o)
                0x00004a80                power_comp_SetSpeed
 .text.sd_timer_Init
                0x00004b00       0x4c .\CortexM3\ARM_GCC_493\Debug\Node-Beaver_FE3.a(sd_timer.o)
                0x00004b00                sd_timer_Init
 .text.sd_timer_Enable
                0x00004b4c       0x20 .\CortexM3\ARM_GCC_493\Debug\Node-Beaver_FE3.a(sd_timer.o)
                0x00004b4c                sd_timer_Enable
 .text.sd_timer_Start
                0x00004b6c       0x20 .\CortexM3\ARM_GCC_493\Debug\Node-Beaver_FE3.a(sd_timer.o)
                0x00004b6c                sd_timer_Start
 .text.sd_timer_SetInterruptMode
                0x00004b8c       0x20 .\CortexM3\ARM_GCC_493\Debug\Node-Beaver_FE3.a(sd_timer.o)
                0x00004b8c                sd_timer_SetInterruptMode
 .text.sd_timer_ReadStatusRegister
                0x00004bac       0x18 .\CortexM3\ARM_GCC_493\Debug\Node-Beaver_FE3.a(sd_timer.o)
                0x00004bac                sd_timer_ReadStatusRegister
 .text.sd_timer_WritePeriod
                0x00004bc4       0x1c .\CortexM3\ARM_GCC_493\Debug\Node-Beaver_FE3.a(sd_timer.o)
                0x00004bc4                sd_timer_WritePeriod
 .text.sd_timer_ReadCapture
                0x00004be0       0x1c .\CortexM3\ARM_GCC_493\Debug\Node-Beaver_FE3.a(sd_timer.o)
                0x00004be0                sd_timer_ReadCapture
 .text.sd_timer_WriteCounter
                0x00004bfc       0x1c .\CortexM3\ARM_GCC_493\Debug\Node-Beaver_FE3.a(sd_timer.o)
                0x00004bfc                sd_timer_WriteCounter
 .text.sd_timer_ClearFIFO
                0x00004c18       0x1c .\CortexM3\ARM_GCC_493\Debug\Node-Beaver_FE3.a(sd_timer.o)
                0x00004c18                sd_timer_ClearFIFO
 .text.sd_isr_StartEx
                0x00004c34       0x24 .\CortexM3\ARM_GCC_493\Debug\Node-Beaver_FE3.a(sd_isr.o)
                0x00004c34                sd_isr_StartEx
 .text.sd_isr_SetVector
                0x00004c58       0x24 .\CortexM3\ARM_GCC_493\Debug\Node-Beaver_FE3.a(sd_isr.o)
                0x00004c58                sd_isr_SetVector
 .text.sd_isr_SetPriority
                0x00004c7c       0x24 .\CortexM3\ARM_GCC_493\Debug\Node-Beaver_FE3.a(sd_isr.o)
                0x00004c7c                sd_isr_SetPriority
 .text.sd_isr_Enable
                0x00004ca0       0x18 .\CortexM3\ARM_GCC_493\Debug\Node-Beaver_FE3.a(sd_isr.o)
                0x00004ca0                sd_isr_Enable
 .text.sd_isr_Disable
                0x00004cb8       0x18 .\CortexM3\ARM_GCC_493\Debug\Node-Beaver_FE3.a(sd_isr.o)
                0x00004cb8                sd_isr_Disable
 .text          0x00004cd0       0x20 .\CortexM3\ARM_GCC_493\Debug\Node-Beaver_FE3.a(CyBootAsmGnu.o)
                0x00004cd0                CyDelayCycles
                0x00004ce0                CyEnterCriticalSection
                0x00004ce8                CyExitCriticalSection
 .text.CySetReg24
                0x00004cf0       0x38 .\CortexM3\ARM_GCC_493\Debug\Node-Beaver_FE3.a(cyutils.o)
                0x00004cf0                CySetReg24
 .text.USBUART_1_DispatchClassRqst
                0x00004d28       0x7c .\CortexM3\ARM_GCC_493\Debug\Node-Beaver_FE3.a(USBUART_1_cls.o)
                0x00004d28                USBUART_1_DispatchClassRqst
 .text._CopyString
                0x00004da4       0x1c .\emFile_V322c\LinkLibrary\PSoC5\GCC\libemf16noslfn.a(FAT_LFN.o)
 .text._CalcNumChar
                0x00004dc0       0x1e .\emFile_V322c\LinkLibrary\PSoC5\GCC\libemf16noslfn.a(FAT_LFN.o)
 .text._WriteName
                0x00004dde       0x32 .\emFile_V322c\LinkLibrary\PSoC5\GCC\libemf16noslfn.a(FAT_LFN.o)
 .text._ToUpper
                0x00004e10       0x10 .\emFile_V322c\LinkLibrary\PSoC5\GCC\libemf16noslfn.a(FAT_LFN.o)
 .text._CompareChar
                0x00004e20       0x44 .\emFile_V322c\LinkLibrary\PSoC5\GCC\libemf16noslfn.a(FAT_LFN.o)
 .text._CalcCheckSum
                0x00004e64       0x24 .\emFile_V322c\LinkLibrary\PSoC5\GCC\libemf16noslfn.a(FAT_LFN.o)
 .text._SetDirPosIndex
                0x00004e88        0x8 .\emFile_V322c\LinkLibrary\PSoC5\GCC\libemf16noslfn.a(FAT_LFN.o)
 .text.FS_FAT_SupportLFN
                0x00004e90       0x10 .\emFile_V322c\LinkLibrary\PSoC5\GCC\libemf16noslfn.a(FAT_LFN.o)
                0x00004e90                FS_FAT_SupportLFN
 .text._LFN_DelLongEntry
                0x00004ea0       0x5e .\emFile_V322c\LinkLibrary\PSoC5\GCC\libemf16noslfn.a(FAT_LFN.o)
 .text._CorrectTrail
                0x00004efe       0x28 .\emFile_V322c\LinkLibrary\PSoC5\GCC\libemf16noslfn.a(FAT_LFN.o)
 .text._CalcNumLongEntries
                0x00004f26       0x16 .\emFile_V322c\LinkLibrary\PSoC5\GCC\libemf16noslfn.a(FAT_LFN.o)
 .text._ComputeLongDirEntry
                0x00004f3c       0x88 .\emFile_V322c\LinkLibrary\PSoC5\GCC\libemf16noslfn.a(FAT_LFN.o)
 .text._LFN_FindDirEntry
                0x00004fc4      0x146 .\emFile_V322c\LinkLibrary\PSoC5\GCC\libemf16noslfn.a(FAT_LFN.o)
 .text._GenerateShortEntry
                0x0000510a       0xce .\emFile_V322c\LinkLibrary\PSoC5\GCC\libemf16noslfn.a(FAT_LFN.o)
 .text._LFN_ReadDirEntryInfo
                0x000051d8      0x1c6 .\emFile_V322c\LinkLibrary\PSoC5\GCC\libemf16noslfn.a(FAT_LFN.o)
 .text._LFN_CreateDirEntry
                0x0000539e      0x2a4 .\emFile_V322c\LinkLibrary\PSoC5\GCC\libemf16noslfn.a(FAT_LFN.o)
 .text._ClusterId2FATOff
                0x00005642       0x18 .\emFile_V322c\LinkLibrary\PSoC5\GCC\libemf16noslfn.a(FAT_Misc.o)
 .text._CalcLogClusterPos
                0x0000565a        0xe .\emFile_V322c\LinkLibrary\PSoC5\GCC\libemf16noslfn.a(FAT_Misc.o)
 .text._ReadFromFreeClusterCache
                0x00005668       0x46 .\emFile_V322c\LinkLibrary\PSoC5\GCC\libemf16noslfn.a(FAT_Misc.o)
 .text.FS_FAT_GetFATType
                0x000056ae       0x1a .\emFile_V322c\LinkLibrary\PSoC5\GCC\libemf16noslfn.a(FAT_Misc.o)
                0x000056ae                FS_FAT_GetFATType
 .text.FS_FAT_ClusterId2SectorNo
                0x000056c8        0xc .\emFile_V322c\LinkLibrary\PSoC5\GCC\libemf16noslfn.a(FAT_Misc.o)
                0x000056c8                FS_FAT_ClusterId2SectorNo
 .text.FS_FAT_IsValidShortNameChar
                0x000056d4       0x34 .\emFile_V322c\LinkLibrary\PSoC5\GCC\libemf16noslfn.a(FAT_Misc.o)
                0x000056d4                FS_FAT_IsValidShortNameChar
 .text.FS_FAT_CopyShortName
                0x00005708       0x56 .\emFile_V322c\LinkLibrary\PSoC5\GCC\libemf16noslfn.a(FAT_Misc.o)
                0x00005708                FS_FAT_CopyShortName
 .text._SFN_CreateDirEntry
                0x0000575e       0x5a .\emFile_V322c\LinkLibrary\PSoC5\GCC\libemf16noslfn.a(FAT_Misc.o)
 .text._SFN_FindDirEntry
                0x000057b8       0x10 .\emFile_V322c\LinkLibrary\PSoC5\GCC\libemf16noslfn.a(FAT_Misc.o)
 .text.FS_FAT_FindDirEntry
                0x000057c8       0x60 .\emFile_V322c\LinkLibrary\PSoC5\GCC\libemf16noslfn.a(FAT_Misc.o)
                0x000057c8                FS_FAT_FindDirEntry
 .text.FS_FAT_CopyDirEntryInfo
                0x00005828       0x50 .\emFile_V322c\LinkLibrary\PSoC5\GCC\libemf16noslfn.a(FAT_Misc.o)
                0x00005828                FS_FAT_CopyDirEntryInfo
 .text._SFN_ReadDirEntryInfo
                0x00005878       0x6e .\emFile_V322c\LinkLibrary\PSoC5\GCC\libemf16noslfn.a(FAT_Misc.o)
 .text._SetFATSector
                0x000058e6        0x6 .\emFile_V322c\LinkLibrary\PSoC5\GCC\libemf16noslfn.a(FAT_Misc.o)
 .text._WriteFATEntry
                0x000058ec      0x152 .\emFile_V322c\LinkLibrary\PSoC5\GCC\libemf16noslfn.a(FAT_Misc.o)
 .text.FS_FAT_MarkClusterEOC
                0x00005a3e        0x8 .\emFile_V322c\LinkLibrary\PSoC5\GCC\libemf16noslfn.a(FAT_Misc.o)
                0x00005a3e                FS_FAT_MarkClusterEOC
 .text.FS_FAT_SyncFAT
                0x00005a46       0x3c .\emFile_V322c\LinkLibrary\PSoC5\GCC\libemf16noslfn.a(FAT_Misc.o)
                0x00005a46                FS_FAT_SyncFAT
 .text.FS_FAT_LinkCluster
                0x00005a82       0x1c .\emFile_V322c\LinkLibrary\PSoC5\GCC\libemf16noslfn.a(FAT_Misc.o)
                0x00005a82                FS_FAT_LinkCluster
 .text.FS_FAT_ReadFATEntry
                0x00005a9e       0xb2 .\emFile_V322c\LinkLibrary\PSoC5\GCC\libemf16noslfn.a(FAT_Misc.o)
                0x00005a9e                FS_FAT_ReadFATEntry
 .text.FS_FAT_GetNumAdjClustersInChain
                0x00005b50       0x64 .\emFile_V322c\LinkLibrary\PSoC5\GCC\libemf16noslfn.a(FAT_Misc.o)
                0x00005b50                FS_FAT_GetNumAdjClustersInChain
 .text.FS_FAT_WalkClusterEx
                0x00005bb4       0x5c .\emFile_V322c\LinkLibrary\PSoC5\GCC\libemf16noslfn.a(FAT_Misc.o)
                0x00005bb4                FS_FAT_WalkClusterEx
 .text.FS_FAT_GotoCluster
                0x00005c10       0x88 .\emFile_V322c\LinkLibrary\PSoC5\GCC\libemf16noslfn.a(FAT_Misc.o)
                0x00005c10                FS_FAT_GotoCluster
 .text.FS_FAT_WalkCluster
                0x00005c98       0x18 .\emFile_V322c\LinkLibrary\PSoC5\GCC\libemf16noslfn.a(FAT_Misc.o)
                0x00005c98                FS_FAT_WalkCluster
 .text.FS_FAT_FindLastCluster
                0x00005cb0       0x34 .\emFile_V322c\LinkLibrary\PSoC5\GCC\libemf16noslfn.a(FAT_Misc.o)
                0x00005cb0                FS_FAT_FindLastCluster
 .text._CalcFreeClusterCnt
                0x00005ce4       0x88 .\emFile_V322c\LinkLibrary\PSoC5\GCC\libemf16noslfn.a(FAT_Misc.o)
 .text.FS_FAT_FindFreeCluster
                0x00005d6c       0xa8 .\emFile_V322c\LinkLibrary\PSoC5\GCC\libemf16noslfn.a(FAT_Misc.o)
                0x00005d6c                FS_FAT_FindFreeCluster
 .text.FS_FAT_AllocCluster
                0x00005e14       0x20 .\emFile_V322c\LinkLibrary\PSoC5\GCC\libemf16noslfn.a(FAT_Misc.o)
                0x00005e14                FS_FAT_AllocCluster
 .text._WriteEmptyFATSectors
                0x00005e34       0x3c .\emFile_V322c\LinkLibrary\PSoC5\GCC\libemf16noslfn.a(FAT_Misc.o)
 .text.FS_FAT_FreeClusterChain
                0x00005e70       0xe0 .\emFile_V322c\LinkLibrary\PSoC5\GCC\libemf16noslfn.a(FAT_Misc.o)
                0x00005e70                FS_FAT_FreeClusterChain
 .text.FS_FAT_CheckBPB
                0x00005f50      0x14c .\emFile_V322c\LinkLibrary\PSoC5\GCC\libemf16noslfn.a(FAT_Misc.o)
                0x00005f50                FS_FAT_CheckBPB
 .text.FS_FAT_InitDirEntryScan
                0x0000609c       0x14 .\emFile_V322c\LinkLibrary\PSoC5\GCC\libemf16noslfn.a(FAT_Open.o)
                0x0000609c                FS_FAT_InitDirEntryScan
 .text.FS_FAT_IncDirPos
                0x000060b0        0x8 .\emFile_V322c\LinkLibrary\PSoC5\GCC\libemf16noslfn.a(FAT_Open.o)
                0x000060b0                FS_FAT_IncDirPos
 .text._CopyDirText
                0x000060b8       0x44 .\emFile_V322c\LinkLibrary\PSoC5\GCC\libemf16noslfn.a(FAT_Open.o)
 .text.FS_FAT_Make83Name
                0x000060fc       0xb0 .\emFile_V322c\LinkLibrary\PSoC5\GCC\libemf16noslfn.a(FAT_Open.o)
                0x000060fc                FS_FAT_Make83Name
 .text.FS_FAT_GetDirEntry
                0x000061ac       0xb2 .\emFile_V322c\LinkLibrary\PSoC5\GCC\libemf16noslfn.a(FAT_Open.o)
                0x000061ac                FS_FAT_GetDirEntry
 .text.FS_FAT_FindDirEntryShortEx
                0x0000625e       0x5a .\emFile_V322c\LinkLibrary\PSoC5\GCC\libemf16noslfn.a(FAT_Open.o)
                0x0000625e                FS_FAT_FindDirEntryShortEx
 .text.FS_FAT_FindDirEntryShort
                0x000062b8       0x36 .\emFile_V322c\LinkLibrary\PSoC5\GCC\libemf16noslfn.a(FAT_Open.o)
                0x000062b8                FS_FAT_FindDirEntryShort
 .text.FS_FAT_FindEmptyDirEntry
                0x000062ee       0xb0 .\emFile_V322c\LinkLibrary\PSoC5\GCC\libemf16noslfn.a(FAT_Open.o)
                0x000062ee                FS_FAT_FindEmptyDirEntry
 .text.FS_FAT_GetFirstCluster
                0x0000639e       0x1a .\emFile_V322c\LinkLibrary\PSoC5\GCC\libemf16noslfn.a(FAT_Open.o)
                0x0000639e                FS_FAT_GetFirstCluster
 .text.FS_FAT_FindPath
                0x000063b8       0x7a .\emFile_V322c\LinkLibrary\PSoC5\GCC\libemf16noslfn.a(FAT_Open.o)
                0x000063b8                FS_FAT_FindPath
 .text.FS_FAT_DeleteFileOrDir
                0x00006432       0x48 .\emFile_V322c\LinkLibrary\PSoC5\GCC\libemf16noslfn.a(FAT_Open.o)
                0x00006432                FS_FAT_DeleteFileOrDir
 *fill*         0x0000647a        0x2 
 .text.FS_FAT_Open
                0x0000647c      0x1dc .\emFile_V322c\LinkLibrary\PSoC5\GCC\libemf16noslfn.a(FAT_Open.o)
                0x0000647c                FS_FAT_Open
 .text.FS_FAT_WriteDirEntryCluster
                0x00006658       0x1c .\emFile_V322c\LinkLibrary\PSoC5\GCC\libemf16noslfn.a(FAT_Open.o)
                0x00006658                FS_FAT_WriteDirEntryCluster
 .text.FS_FAT_WriteDirEntry83
                0x00006674       0x6c .\emFile_V322c\LinkLibrary\PSoC5\GCC\libemf16noslfn.a(FAT_Open.o)
                0x00006674                FS_FAT_WriteDirEntry83
 .text.FS_FAT_Clean
                0x000066e0        0x2 .\emFile_V322c\LinkLibrary\PSoC5\GCC\libemf16noslfn.a(FAT_Write.o)
                0x000066e0                FS_FAT_Clean
 .text._WriteBurst
                0x000066e2       0x24 .\emFile_V322c\LinkLibrary\PSoC5\GCC\libemf16noslfn.a(FAT_Write.o)
 *fill*         0x00006706        0x2 
 .text.FS_FAT_GotoClusterAllocIfReq
                0x00006708       0xa8 .\emFile_V322c\LinkLibrary\PSoC5\GCC\libemf16noslfn.a(FAT_Write.o)
                0x00006708                FS_FAT_GotoClusterAllocIfReq
 .text.FS_FAT_UpdateDirEntry
                0x000067b0       0x68 .\emFile_V322c\LinkLibrary\PSoC5\GCC\libemf16noslfn.a(FAT_Write.o)
                0x000067b0                FS_FAT_UpdateDirEntry
 .text.FS_FAT_Close
                0x00006818       0x44 .\emFile_V322c\LinkLibrary\PSoC5\GCC\libemf16noslfn.a(FAT_Write.o)
                0x00006818                FS_FAT_Close
 .text.FS_FAT_Write
                0x0000685c      0x1c8 .\emFile_V322c\LinkLibrary\PSoC5\GCC\libemf16noslfn.a(FAT_Write.o)
                0x0000685c                FS_FAT_Write
 .text.FS__GetFileAttributes
                0x00006a24       0x38 .\emFile_V322c\LinkLibrary\PSoC5\GCC\libemf16noslfn.a(FS_Attrib.o)
                0x00006a24                FS__GetFileAttributes
 .text.FS_GetFileAttributes
                0x00006a5c        0x4 .\emFile_V322c\LinkLibrary\PSoC5\GCC\libemf16noslfn.a(FS_Attrib.o)
                0x00006a5c                FS_GetFileAttributes
 .text.FS__CLIB_memcmp
                0x00006a60       0x20 .\emFile_V322c\LinkLibrary\PSoC5\GCC\libemf16noslfn.a(FS_CLib.o)
                0x00006a60                FS__CLIB_memcmp
 .text.FS__CLIB_memset
                0x00006a80       0x6c .\emFile_V322c\LinkLibrary\PSoC5\GCC\libemf16noslfn.a(FS_CLib.o)
                0x00006a80                FS__CLIB_memset
 .text.FS__CLIB_strcmp
                0x00006aec       0x1a .\emFile_V322c\LinkLibrary\PSoC5\GCC\libemf16noslfn.a(FS_CLib.o)
                0x00006aec                FS__CLIB_strcmp
 .text.FS__CLIB_strlen
                0x00006b06       0x10 .\emFile_V322c\LinkLibrary\PSoC5\GCC\libemf16noslfn.a(FS_CLib.o)
                0x00006b06                FS__CLIB_strlen
 .text.FS__CLIB_strncmp
                0x00006b16       0x26 .\emFile_V322c\LinkLibrary\PSoC5\GCC\libemf16noslfn.a(FS_CLib.o)
                0x00006b16                FS__CLIB_strncmp
 .text.FS__CLIB_toupper
                0x00006b3c        0xe .\emFile_V322c\LinkLibrary\PSoC5\GCC\libemf16noslfn.a(FS_CLib.o)
                0x00006b3c                FS__CLIB_toupper
 .text.FS__strchr
                0x00006b4a       0x14 .\emFile_V322c\LinkLibrary\PSoC5\GCC\libemf16noslfn.a(FS_Core.o)
                0x00006b4a                FS__strchr
 .text.FS_LoadU32BE
                0x00006b5e       0x18 .\emFile_V322c\LinkLibrary\PSoC5\GCC\libemf16noslfn.a(FS_Core.o)
                0x00006b5e                FS_LoadU32BE
 .text.FS_LoadU32LE
                0x00006b76       0x16 .\emFile_V322c\LinkLibrary\PSoC5\GCC\libemf16noslfn.a(FS_Core.o)
                0x00006b76                FS_LoadU32LE
 .text.FS_StoreU32LE
                0x00006b8c       0x14 .\emFile_V322c\LinkLibrary\PSoC5\GCC\libemf16noslfn.a(FS_Core.o)
                0x00006b8c                FS_StoreU32LE
 .text.FS_StoreU16LE
                0x00006ba0        0x8 .\emFile_V322c\LinkLibrary\PSoC5\GCC\libemf16noslfn.a(FS_Core.o)
                0x00006ba0                FS_StoreU16LE
 .text.FS_LoadU16LE
                0x00006ba8        0xa .\emFile_V322c\LinkLibrary\PSoC5\GCC\libemf16noslfn.a(FS_Core.o)
                0x00006ba8                FS_LoadU16LE
 *fill*         0x00006bb2        0x2 
 .text._Alloc   0x00006bb4       0x30 .\emFile_V322c\LinkLibrary\PSoC5\GCC\libemf16noslfn.a(FS_Core.o)
 .text.FS_Alloc
                0x00006be4        0xc .\emFile_V322c\LinkLibrary\PSoC5\GCC\libemf16noslfn.a(FS_Core.o)
                0x00006be4                FS_Alloc
 .text.FS_TryAlloc
                0x00006bf0        0x4 .\emFile_V322c\LinkLibrary\PSoC5\GCC\libemf16noslfn.a(FS_Core.o)
                0x00006bf0                FS_TryAlloc
 .text.FS_Free  0x00006bf4       0x1c .\emFile_V322c\LinkLibrary\PSoC5\GCC\libemf16noslfn.a(FS_Core.o)
                0x00006bf4                FS_Free
 .text.FS_AssignMemory
                0x00006c10        0xc .\emFile_V322c\LinkLibrary\PSoC5\GCC\libemf16noslfn.a(FS_Core.o)
                0x00006c10                FS_AssignMemory
 .text.FS_AllocZeroed
                0x00006c1c       0x16 .\emFile_V322c\LinkLibrary\PSoC5\GCC\libemf16noslfn.a(FS_Core.o)
                0x00006c1c                FS_AllocZeroed
 *fill*         0x00006c32        0x2 
 .text.FS_STORAGE_Init
                0x00006c34       0x28 .\emFile_V322c\LinkLibrary\PSoC5\GCC\libemf16noslfn.a(FS_Core.o)
                0x00006c34                FS_STORAGE_Init
 .text.FS__MkDir
                0x00006c5c       0x24 .\emFile_V322c\LinkLibrary\PSoC5\GCC\libemf16noslfn.a(FS_Dir.o)
                0x00006c5c                FS__MkDir
 .text.FS_MkDir
                0x00006c80        0x4 .\emFile_V322c\LinkLibrary\PSoC5\GCC\libemf16noslfn.a(FS_Dir.o)
                0x00006c80                FS_MkDir
 .text._ClrBusyLED
                0x00006c84        0xc .\emFile_V322c\LinkLibrary\PSoC5\GCC\libemf16noslfn.a(FS_LogBlock.o)
 .text._SetBusyLED
                0x00006c90        0xc .\emFile_V322c\LinkLibrary\PSoC5\GCC\libemf16noslfn.a(FS_LogBlock.o)
 .text._Read    0x00006c9c        0xc .\emFile_V322c\LinkLibrary\PSoC5\GCC\libemf16noslfn.a(FS_LogBlock.o)
 .text._Write   0x00006ca8       0x12 .\emFile_V322c\LinkLibrary\PSoC5\GCC\libemf16noslfn.a(FS_LogBlock.o)
 .text.FS_LB_GetStatus
                0x00006cba        0xc .\emFile_V322c\LinkLibrary\PSoC5\GCC\libemf16noslfn.a(FS_LogBlock.o)
                0x00006cba                FS_LB_GetStatus
 .text.FS_LB_InitMedium
                0x00006cc6       0x1a .\emFile_V322c\LinkLibrary\PSoC5\GCC\libemf16noslfn.a(FS_LogBlock.o)
                0x00006cc6                FS_LB_InitMedium
 .text.FS_LB_InitMediumIfRequired
                0x00006ce0       0x10 .\emFile_V322c\LinkLibrary\PSoC5\GCC\libemf16noslfn.a(FS_LogBlock.o)
                0x00006ce0                FS_LB_InitMediumIfRequired
 .text.FS_LB_ReadDevice
                0x00006cf0       0x2e .\emFile_V322c\LinkLibrary\PSoC5\GCC\libemf16noslfn.a(FS_LogBlock.o)
                0x00006cf0                FS_LB_ReadDevice
 .text.FS_LB_ReadPart
                0x00006d1e        0xe .\emFile_V322c\LinkLibrary\PSoC5\GCC\libemf16noslfn.a(FS_LogBlock.o)
                0x00006d1e                FS_LB_ReadPart
 .text.FS_LB_ReadBurst
                0x00006d2c       0x38 .\emFile_V322c\LinkLibrary\PSoC5\GCC\libemf16noslfn.a(FS_LogBlock.o)
                0x00006d2c                FS_LB_ReadBurst
 .text.FS_LB_ReadBurstPart
                0x00006d64       0x14 .\emFile_V322c\LinkLibrary\PSoC5\GCC\libemf16noslfn.a(FS_LogBlock.o)
                0x00006d64                FS_LB_ReadBurstPart
 .text.FS_LB_WriteBurst
                0x00006d78       0x30 .\emFile_V322c\LinkLibrary\PSoC5\GCC\libemf16noslfn.a(FS_LogBlock.o)
                0x00006d78                FS_LB_WriteBurst
 .text.FS_LB_WriteBurstPart
                0x00006da8       0x14 .\emFile_V322c\LinkLibrary\PSoC5\GCC\libemf16noslfn.a(FS_LogBlock.o)
                0x00006da8                FS_LB_WriteBurstPart
 .text.FS_LB_WriteMultiple
                0x00006dbc       0x30 .\emFile_V322c\LinkLibrary\PSoC5\GCC\libemf16noslfn.a(FS_LogBlock.o)
                0x00006dbc                FS_LB_WriteMultiple
 .text.FS_LB_WriteMultiplePart
                0x00006dec       0x14 .\emFile_V322c\LinkLibrary\PSoC5\GCC\libemf16noslfn.a(FS_LogBlock.o)
                0x00006dec                FS_LB_WriteMultiplePart
 .text.FS_LB_WriteDevice
                0x00006e00       0x36 .\emFile_V322c\LinkLibrary\PSoC5\GCC\libemf16noslfn.a(FS_LogBlock.o)
                0x00006e00                FS_LB_WriteDevice
 .text.FS_LB_WritePart
                0x00006e36        0xe .\emFile_V322c\LinkLibrary\PSoC5\GCC\libemf16noslfn.a(FS_LogBlock.o)
                0x00006e36                FS_LB_WritePart
 .text.FS_LB_Ioctl
                0x00006e44       0x2a .\emFile_V322c\LinkLibrary\PSoC5\GCC\libemf16noslfn.a(FS_LogBlock.o)
                0x00006e44                FS_LB_Ioctl
 .text.FS_GetSectorSize
                0x00006e6e       0x28 .\emFile_V322c\LinkLibrary\PSoC5\GCC\libemf16noslfn.a(FS_LogBlock.o)
                0x00006e6e                FS_GetSectorSize
 .text.FS_LB_GetDeviceInfo
                0x00006e96       0x26 .\emFile_V322c\LinkLibrary\PSoC5\GCC\libemf16noslfn.a(FS_LogBlock.o)
                0x00006e96                FS_LB_GetDeviceInfo
 .text.FS_memcpy
                0x00006ebc      0x120 .\emFile_V322c\LinkLibrary\PSoC5\GCC\libemf16noslfn.a(FS_memcpy.o)
                0x00006ebc                FS_memcpy
 .text.FS__AllocSectorBuffer
                0x00006fdc       0x2c .\emFile_V322c\LinkLibrary\PSoC5\GCC\libemf16noslfn.a(FS_Misc.o)
                0x00006fdc                FS__AllocSectorBuffer
 .text.FS__FreeSectorBuffer
                0x00007008       0x28 .\emFile_V322c\LinkLibrary\PSoC5\GCC\libemf16noslfn.a(FS_Misc.o)
                0x00007008                FS__FreeSectorBuffer
 .text.FS__SB_MarkDirty
                0x00007030        0x6 .\emFile_V322c\LinkLibrary\PSoC5\GCC\libemf16noslfn.a(FS_Misc.o)
                0x00007030                FS__SB_MarkDirty
 .text.FS__SB_MarkNotDirty
                0x00007036        0x6 .\emFile_V322c\LinkLibrary\PSoC5\GCC\libemf16noslfn.a(FS_Misc.o)
                0x00007036                FS__SB_MarkNotDirty
 .text.FS__FreeFileHandle
                0x0000703c        0xa .\emFile_V322c\LinkLibrary\PSoC5\GCC\libemf16noslfn.a(FS_Misc.o)
                0x0000703c                FS__FreeFileHandle
 .text.FS__FreeFileObj
                0x00007046        0xc .\emFile_V322c\LinkLibrary\PSoC5\GCC\libemf16noslfn.a(FS_Misc.o)
                0x00007046                FS__FreeFileObj
 *fill*         0x00007052        0x2 
 .text.FS_SetFileWriteMode
                0x00007054        0xc .\emFile_V322c\LinkLibrary\PSoC5\GCC\libemf16noslfn.a(FS_Misc.o)
                0x00007054                FS_SetFileWriteMode
 .text.FS_Init  0x00007060       0x58 .\emFile_V322c\LinkLibrary\PSoC5\GCC\libemf16noslfn.a(FS_Misc.o)
                0x00007060                FS_Init
 .text.FS__SB_Create
                0x000070b8       0x28 .\emFile_V322c\LinkLibrary\PSoC5\GCC\libemf16noslfn.a(FS_Misc.o)
                0x000070b8                FS__SB_Create
 .text.FS__FCloseNL
                0x000070e0       0x1e .\emFile_V322c\LinkLibrary\PSoC5\GCC\libemf16noslfn.a(FS_Misc.o)
                0x000070e0                FS__FCloseNL
 .text.FS__FClose
                0x000070fe       0x1a .\emFile_V322c\LinkLibrary\PSoC5\GCC\libemf16noslfn.a(FS_Misc.o)
                0x000070fe                FS__FClose
 .text.FS_FClose
                0x00007118        0xa .\emFile_V322c\LinkLibrary\PSoC5\GCC\libemf16noslfn.a(FS_Misc.o)
                0x00007118                FS_FClose
 *fill*         0x00007122        0x2 
 .text.FS__AllocFileObj
                0x00007124       0x48 .\emFile_V322c\LinkLibrary\PSoC5\GCC\libemf16noslfn.a(FS_Misc.o)
                0x00007124                FS__AllocFileObj
 .text.FS__AllocFileHandle
                0x0000716c       0x40 .\emFile_V322c\LinkLibrary\PSoC5\GCC\libemf16noslfn.a(FS_Misc.o)
                0x0000716c                FS__AllocFileHandle
 .text.FS__OpenEx
                0x000071ac       0x58 .\emFile_V322c\LinkLibrary\PSoC5\GCC\libemf16noslfn.a(FS_Misc.o)
                0x000071ac                FS__OpenEx
 .text.FS__FOpenEx
                0x00007204       0x56 .\emFile_V322c\LinkLibrary\PSoC5\GCC\libemf16noslfn.a(FS_Misc.o)
                0x00007204                FS__FOpenEx
 *fill*         0x0000725a        0x2 
 .text.FS__FOpen
                0x0000725c       0x48 .\emFile_V322c\LinkLibrary\PSoC5\GCC\libemf16noslfn.a(FS_Misc.o)
                0x0000725c                FS__FOpen
 .text.FS_FOpen
                0x000072a4        0x4 .\emFile_V322c\LinkLibrary\PSoC5\GCC\libemf16noslfn.a(FS_Misc.o)
                0x000072a4                FS_FOpen
 .text.FS__Remove
                0x000072a8       0x28 .\emFile_V322c\LinkLibrary\PSoC5\GCC\libemf16noslfn.a(FS_Misc.o)
                0x000072a8                FS__Remove
 .text.FS_Remove
                0x000072d0        0x4 .\emFile_V322c\LinkLibrary\PSoC5\GCC\libemf16noslfn.a(FS_Misc.o)
                0x000072d0                FS_Remove
 .text.FS__SB_Write
                0x000072d4       0x24 .\emFile_V322c\LinkLibrary\PSoC5\GCC\libemf16noslfn.a(FS_Misc.o)
                0x000072d4                FS__SB_Write
 .text._SB_Clean
                0x000072f8       0x24 .\emFile_V322c\LinkLibrary\PSoC5\GCC\libemf16noslfn.a(FS_Misc.o)
 .text.FS__SB_SetSector
                0x0000731c       0x20 .\emFile_V322c\LinkLibrary\PSoC5\GCC\libemf16noslfn.a(FS_Misc.o)
                0x0000731c                FS__SB_SetSector
 .text.FS__SB_MarkValid
                0x0000733c       0x10 .\emFile_V322c\LinkLibrary\PSoC5\GCC\libemf16noslfn.a(FS_Misc.o)
                0x0000733c                FS__SB_MarkValid
 .text.FS__SB_Clean
                0x0000734c        0x4 .\emFile_V322c\LinkLibrary\PSoC5\GCC\libemf16noslfn.a(FS_Misc.o)
                0x0000734c                FS__SB_Clean
 .text.FS__SB_Delete
                0x00007350       0x12 .\emFile_V322c\LinkLibrary\PSoC5\GCC\libemf16noslfn.a(FS_Misc.o)
                0x00007350                FS__SB_Delete
 .text.FS__SB_Flush
                0x00007362        0x8 .\emFile_V322c\LinkLibrary\PSoC5\GCC\libemf16noslfn.a(FS_Misc.o)
                0x00007362                FS__SB_Flush
 .text.FS__SB_Read
                0x0000736a       0x2a .\emFile_V322c\LinkLibrary\PSoC5\GCC\libemf16noslfn.a(FS_Misc.o)
                0x0000736a                FS__SB_Read
 .text.FS__Read
                0x00007394       0x2e .\emFile_V322c\LinkLibrary\PSoC5\GCC\libemf16noslfn.a(FS_Read.o)
                0x00007394                FS__Read
 .text.FS_Read  0x000073c2        0x4 .\emFile_V322c\LinkLibrary\PSoC5\GCC\libemf16noslfn.a(FS_Read.o)
                0x000073c2                FS_Read
 .text.FS__AddPhysDevice
                0x000073c6       0x10 .\emFile_V322c\LinkLibrary\PSoC5\GCC\libemf16noslfn.a(FS_Storage.o)
                0x000073c6                FS__AddPhysDevice
 *fill*         0x000073d6        0x2 
 .text.FS_GetNumVolumes
                0x000073d8        0xc .\emFile_V322c\LinkLibrary\PSoC5\GCC\libemf16noslfn.a(FS_Storage.o)
                0x000073d8                FS_GetNumVolumes
 .text.FS__FindVolume
                0x000073e4       0x78 .\emFile_V322c\LinkLibrary\PSoC5\GCC\libemf16noslfn.a(FS_Storage.o)
                0x000073e4                FS__FindVolume
 .text.FS__AddDevice
                0x0000745c       0x68 .\emFile_V322c\LinkLibrary\PSoC5\GCC\libemf16noslfn.a(FS_Storage.o)
                0x0000745c                FS__AddDevice
 .text.FS_AddDevice
                0x000074c4        0x4 .\emFile_V322c\LinkLibrary\PSoC5\GCC\libemf16noslfn.a(FS_Storage.o)
                0x000074c4                FS_AddDevice
 .text.FS__IoCtlNL
                0x000074c8       0x36 .\emFile_V322c\LinkLibrary\PSoC5\GCC\libemf16noslfn.a(FS_Storage.o)
                0x000074c8                FS__IoCtlNL
 .text.FS__IoCtl
                0x000074fe        0xa .\emFile_V322c\LinkLibrary\PSoC5\GCC\libemf16noslfn.a(FS_Storage.o)
                0x000074fe                FS__IoCtl
 .text.FS__STORAGE_Sync
                0x00007508       0x10 .\emFile_V322c\LinkLibrary\PSoC5\GCC\libemf16noslfn.a(FS_Storage.o)
                0x00007508                FS__STORAGE_Sync
 .text.FS_FileTimeToTimeStamp
                0x00007518       0x34 .\emFile_V322c\LinkLibrary\PSoC5\GCC\libemf16noslfn.a(FS_Time.o)
                0x00007518                FS_FileTimeToTimeStamp
 .text.FS__SetFileTimeEx
                0x0000754c       0x44 .\emFile_V322c\LinkLibrary\PSoC5\GCC\libemf16noslfn.a(FS_Time.o)
                0x0000754c                FS__SetFileTimeEx
 .text.FS_SetFileTime
                0x00007590        0x6 .\emFile_V322c\LinkLibrary\PSoC5\GCC\libemf16noslfn.a(FS_Time.o)
                0x00007590                FS_SetFileTime
 *fill*         0x00007596        0x2 
 .text.FS__UnmountForcedNL
                0x00007598       0x54 .\emFile_V322c\LinkLibrary\PSoC5\GCC\libemf16noslfn.a(FS_Unmount.o)
                0x00007598                FS__UnmountForcedNL
 .text.FS__UnmountForced
                0x000075ec        0x4 .\emFile_V322c\LinkLibrary\PSoC5\GCC\libemf16noslfn.a(FS_Unmount.o)
                0x000075ec                FS__UnmountForced
 .text.FS__Unmount
                0x000075f0       0x60 .\emFile_V322c\LinkLibrary\PSoC5\GCC\libemf16noslfn.a(FS_Unmount.o)
                0x000075f0                FS__Unmount
 .text.FS_Unmount
                0x00007650       0x14 .\emFile_V322c\LinkLibrary\PSoC5\GCC\libemf16noslfn.a(FS_Unmount.o)
                0x00007650                FS_Unmount
 .text.FS__Sync
                0x00007664       0x40 .\emFile_V322c\LinkLibrary\PSoC5\GCC\libemf16noslfn.a(FS_Volume.o)
                0x00007664                FS__Sync
 .text.FS_Sync  0x000076a4       0x16 .\emFile_V322c\LinkLibrary\PSoC5\GCC\libemf16noslfn.a(FS_Volume.o)
                0x000076a4                FS_Sync
 .text._Mount   0x000076ba       0x2e .\emFile_V322c\LinkLibrary\PSoC5\GCC\libemf16noslfn.a(FS_Volume.o)
 .text.FS__AutoMount
                0x000076e8       0x14 .\emFile_V322c\LinkLibrary\PSoC5\GCC\libemf16noslfn.a(FS_Volume.o)
                0x000076e8                FS__AutoMount
 .text.FS__Write
                0x000076fc       0x3a .\emFile_V322c\LinkLibrary\PSoC5\GCC\libemf16noslfn.a(FS_Write.o)
                0x000076fc                FS__Write
 .text.FS_Write
                0x00007736        0x4 .\emFile_V322c\LinkLibrary\PSoC5\GCC\libemf16noslfn.a(FS_Write.o)
                0x00007736                FS_Write
 *fill*         0x0000773a        0x2 
 .text.FS_FAT_CreateDirEx
                0x0000773c      0x110 .\emFile_V322c\LinkLibrary\PSoC5\GCC\libemf16noslfn.a(FAT_Dir.o)
                0x0000773c                FS_FAT_CreateDirEx
 .text.FS_FAT_CreateDir
                0x0000784c       0x64 .\emFile_V322c\LinkLibrary\PSoC5\GCC\libemf16noslfn.a(FAT_Dir.o)
                0x0000784c                FS_FAT_CreateDir
 .text.FS_FAT_SetDirEntryInfo
                0x000078b0       0xb2 .\emFile_V322c\LinkLibrary\PSoC5\GCC\libemf16noslfn.a(FAT_DirEntry.o)
                0x000078b0                FS_FAT_SetDirEntryInfo
 .text.FS_FAT_GetDirEntryInfo
                0x00007962       0x90 .\emFile_V322c\LinkLibrary\PSoC5\GCC\libemf16noslfn.a(FAT_DirEntry.o)
                0x00007962                FS_FAT_GetDirEntryInfo
 .text._ReadBurst
                0x000079f2       0x24 .\emFile_V322c\LinkLibrary\PSoC5\GCC\libemf16noslfn.a(FAT_Read.o)
 .text.FS_FAT_Read
                0x00007a16      0x194 .\emFile_V322c\LinkLibrary\PSoC5\GCC\libemf16noslfn.a(FAT_Read.o)
                0x00007a16                FS_FAT_Read
 .text._IsBPB   0x00007baa       0x1e .\emFile_V322c\LinkLibrary\PSoC5\GCC\libemf16noslfn.a(FS_Partition.o)
 .text._HasSignature
                0x00007bc8       0x18 .\emFile_V322c\LinkLibrary\PSoC5\GCC\libemf16noslfn.a(FS_Partition.o)
 .text._GetPartitionStartSector
                0x00007be0        0xc .\emFile_V322c\LinkLibrary\PSoC5\GCC\libemf16noslfn.a(FS_Partition.o)
 .text.FS__GetMediaStartSecEx
                0x00007bec       0x6e .\emFile_V322c\LinkLibrary\PSoC5\GCC\libemf16noslfn.a(FS_Partition.o)
                0x00007bec                FS__GetMediaStartSecEx
 *fill*         0x00007c5a        0x2 
 .text.FS__LocatePartition
                0x00007c5c       0x44 .\emFile_V322c\LinkLibrary\PSoC5\GCC\libemf16noslfn.a(FS_Partition.o)
                0x00007c5c                FS__LocatePartition
 .text.FS_X_AddDevices
                0x00007ca0       0x20 .\CortexM3\ARM_GCC_493\Debug\Node-Beaver_FE3.a(emFile_1_ConfigMMC_SPI.o)
                0x00007ca0                FS_X_AddDevices
 .text.FS_X_GetTimeDate
                0x00007cc0       0x58 .\CortexM3\ARM_GCC_493\Debug\Node-Beaver_FE3.a(emFile_1_ConfigMMC_SPI.o)
                0x00007cc0                FS_X_GetTimeDate
 .text._CalcDataCRC16Dummy
                0x00007d18        0x6 .\emFile_V322c\LinkLibrary\PSoC5\GCC\libemf16noslfn.a(MMC_Drv.o)
 *fill*         0x00007d1e        0x2 
 .text._MMC_GetNumUnits
                0x00007d20        0xc .\emFile_V322c\LinkLibrary\PSoC5\GCC\libemf16noslfn.a(MMC_Drv.o)
 .text._MMC_GetDriverName
                0x00007d2c        0x8 .\emFile_V322c\LinkLibrary\PSoC5\GCC\libemf16noslfn.a(MMC_Drv.o)
 .text._MMC_GetStatus
                0x00007d34        0x4 .\emFile_V322c\LinkLibrary\PSoC5\GCC\libemf16noslfn.a(MMC_Drv.o)
 .text._CheckR1
                0x00007d38       0x38 .\emFile_V322c\LinkLibrary\PSoC5\GCC\libemf16noslfn.a(MMC_Drv.o)
 .text._WaitToGetReady
                0x00007d70       0x26 .\emFile_V322c\LinkLibrary\PSoC5\GCC\libemf16noslfn.a(MMC_Drv.o)
 .text._SendEmptyCycles
                0x00007d96       0x24 .\emFile_V322c\LinkLibrary\PSoC5\GCC\libemf16noslfn.a(MMC_Drv.o)
 *fill*         0x00007dba        0x2 
 .text._MMC_AddDevice
                0x00007dbc       0x2c .\emFile_V322c\LinkLibrary\PSoC5\GCC\libemf16noslfn.a(MMC_Drv.o)
 .text.T.53     0x00007de8       0x14 .\emFile_V322c\LinkLibrary\PSoC5\GCC\libemf16noslfn.a(MMC_Drv.o)
 .text._GetFromCSD
                0x00007dfc       0x34 .\emFile_V322c\LinkLibrary\PSoC5\GCC\libemf16noslfn.a(MMC_Drv.o)
 .text._ExecCmdR1
                0x00007e30       0x98 .\emFile_V322c\LinkLibrary\PSoC5\GCC\libemf16noslfn.a(MMC_Drv.o)
 .text._ReadCSD
                0x00007ec8       0x86 .\emFile_V322c\LinkLibrary\PSoC5\GCC\libemf16noslfn.a(MMC_Drv.o)
 *fill*         0x00007f4e        0x2 
 .text._MMC_Read
                0x00007f50      0x130 .\emFile_V322c\LinkLibrary\PSoC5\GCC\libemf16noslfn.a(MMC_Drv.o)
 .text._MMC_Write
                0x00008080      0x13c .\emFile_V322c\LinkLibrary\PSoC5\GCC\libemf16noslfn.a(MMC_Drv.o)
 .text._ApplyCSD
                0x000081bc      0x228 .\emFile_V322c\LinkLibrary\PSoC5\GCC\libemf16noslfn.a(MMC_Drv.o)
 .text._MMC_Init
                0x000083e4      0x1c0 .\emFile_V322c\LinkLibrary\PSoC5\GCC\libemf16noslfn.a(MMC_Drv.o)
 .text._MMC_InitMedium
                0x000085a4       0x28 .\emFile_V322c\LinkLibrary\PSoC5\GCC\libemf16noslfn.a(MMC_Drv.o)
 .text._MMC_IoCtl
                0x000085cc       0x60 .\emFile_V322c\LinkLibrary\PSoC5\GCC\libemf16noslfn.a(MMC_Drv.o)
 .text.emFile_1_Init
                0x0000862c       0x64 .\CortexM3\ARM_GCC_493\Debug\Node-Beaver_FE3.a(emFile_1_MMC_HW_SPI.o)
 .text.emFile_1_ReadWriteSPI
                0x00008690       0x68 .\CortexM3\ARM_GCC_493\Debug\Node-Beaver_FE3.a(emFile_1_MMC_HW_SPI.o)
 .text.FS_MMC_HW_X_EnableCS
                0x000086f8       0x28 .\CortexM3\ARM_GCC_493\Debug\Node-Beaver_FE3.a(emFile_1_MMC_HW_SPI.o)
                0x000086f8                FS_MMC_HW_X_EnableCS
 .text.FS_MMC_HW_X_DisableCS
                0x00008720       0x28 .\CortexM3\ARM_GCC_493\Debug\Node-Beaver_FE3.a(emFile_1_MMC_HW_SPI.o)
                0x00008720                FS_MMC_HW_X_DisableCS
 .text.FS_MMC_HW_X_IsWriteProtected
                0x00008748       0x2c .\CortexM3\ARM_GCC_493\Debug\Node-Beaver_FE3.a(emFile_1_MMC_HW_SPI.o)
                0x00008748                FS_MMC_HW_X_IsWriteProtected
 .text.FS_MMC_HW_X_SetMaxSpeed
                0x00008774       0x88 .\CortexM3\ARM_GCC_493\Debug\Node-Beaver_FE3.a(emFile_1_MMC_HW_SPI.o)
                0x00008774                FS_MMC_HW_X_SetMaxSpeed
 .text.FS_MMC_HW_X_SetVoltage
                0x000087fc       0x68 .\CortexM3\ARM_GCC_493\Debug\Node-Beaver_FE3.a(emFile_1_MMC_HW_SPI.o)
                0x000087fc                FS_MMC_HW_X_SetVoltage
 .text.FS_MMC_HW_X_IsPresent
                0x00008864       0x30 .\CortexM3\ARM_GCC_493\Debug\Node-Beaver_FE3.a(emFile_1_MMC_HW_SPI.o)
                0x00008864                FS_MMC_HW_X_IsPresent
 .text.FS_MMC_HW_X_Read
                0x00008894       0x34 .\CortexM3\ARM_GCC_493\Debug\Node-Beaver_FE3.a(emFile_1_MMC_HW_SPI.o)
                0x00008894                FS_MMC_HW_X_Read
 .text.FS_MMC_HW_X_Write
                0x000088c8       0x34 .\CortexM3\ARM_GCC_493\Debug\Node-Beaver_FE3.a(emFile_1_MMC_HW_SPI.o)
                0x000088c8                FS_MMC_HW_X_Write
 .text.emFile_1_SPI0_Init
                0x000088fc       0x30 .\CortexM3\ARM_GCC_493\Debug\Node-Beaver_FE3.a(emFile_1_SPI0.o)
                0x000088fc                emFile_1_SPI0_Init
 .text.emFile_1_SPI0_Enable
                0x0000892c       0x60 .\CortexM3\ARM_GCC_493\Debug\Node-Beaver_FE3.a(emFile_1_SPI0.o)
                0x0000892c                emFile_1_SPI0_Enable
 .text.emFile_1_SPI0_Start
                0x0000898c       0x20 .\CortexM3\ARM_GCC_493\Debug\Node-Beaver_FE3.a(emFile_1_SPI0.o)
                0x0000898c                emFile_1_SPI0_Start
 .text.emFile_1_SPI0_EnableTxInt
                0x000089ac        0xc .\CortexM3\ARM_GCC_493\Debug\Node-Beaver_FE3.a(emFile_1_SPI0.o)
                0x000089ac                emFile_1_SPI0_EnableTxInt
 .text.emFile_1_SPI0_EnableRxInt
                0x000089b8        0xc .\CortexM3\ARM_GCC_493\Debug\Node-Beaver_FE3.a(emFile_1_SPI0.o)
                0x000089b8                emFile_1_SPI0_EnableRxInt
 .text.emFile_1_SPI0_ReadTxStatus
                0x000089c4       0x20 .\CortexM3\ARM_GCC_493\Debug\Node-Beaver_FE3.a(emFile_1_SPI0.o)
                0x000089c4                emFile_1_SPI0_ReadTxStatus
 .text.emFile_1_SPI0_ReadRxStatus
                0x000089e4       0x20 .\CortexM3\ARM_GCC_493\Debug\Node-Beaver_FE3.a(emFile_1_SPI0.o)
                0x000089e4                emFile_1_SPI0_ReadRxStatus
 .text.emFile_1_SPI0_WriteTxData
                0x00008a04       0x34 .\CortexM3\ARM_GCC_493\Debug\Node-Beaver_FE3.a(emFile_1_SPI0.o)
                0x00008a04                emFile_1_SPI0_WriteTxData
 .text.emFile_1_SPI0_ReadRxData
                0x00008a38       0x20 .\CortexM3\ARM_GCC_493\Debug\Node-Beaver_FE3.a(emFile_1_SPI0.o)
                0x00008a38                emFile_1_SPI0_ReadRxData
 .text.emFile_1_SPI0_ClearFIFO
                0x00008a58       0x5c .\CortexM3\ARM_GCC_493\Debug\Node-Beaver_FE3.a(emFile_1_SPI0.o)
                0x00008a58                emFile_1_SPI0_ClearFIFO
 .text.emFile_1_Clock_1_Start
                0x00008ab4       0x34 .\CortexM3\ARM_GCC_493\Debug\Node-Beaver_FE3.a(emFile_1_Clock_1.o)
                0x00008ab4                emFile_1_Clock_1_Start
 .text.emFile_1_Clock_1_Stop
                0x00008ae8       0x34 .\CortexM3\ARM_GCC_493\Debug\Node-Beaver_FE3.a(emFile_1_Clock_1.o)
                0x00008ae8                emFile_1_Clock_1_Stop
 .text.emFile_1_Clock_1_SetDividerRegister
                0x00008b1c      0x160 .\CortexM3\ARM_GCC_493\Debug\Node-Beaver_FE3.a(emFile_1_Clock_1.o)
                0x00008b1c                emFile_1_Clock_1_SetDividerRegister
 .text.emFile_1_Clock_1_GetDividerRegister
                0x00008c7c       0x18 .\CortexM3\ARM_GCC_493\Debug\Node-Beaver_FE3.a(emFile_1_Clock_1.o)
                0x00008c7c                emFile_1_Clock_1_GetDividerRegister
 .text.emFile_1_Clock_1_GetSourceRegister
                0x00008c94       0x20 .\CortexM3\ARM_GCC_493\Debug\Node-Beaver_FE3.a(emFile_1_Clock_1.o)
                0x00008c94                emFile_1_Clock_1_GetSourceRegister
 .text.emFile_1_SPI0_CS_Write
                0x00008cb4       0x3c .\CortexM3\ARM_GCC_493\Debug\Node-Beaver_FE3.a(emFile_1_SPI0_CS.o)
                0x00008cb4                emFile_1_SPI0_CS_Write
 .text.atoi     0x00008cf0        0x8 d:/programming/cypress/psoc creator/4.0/psoc creator/import/gnu/arm/4.9.3/bin/../lib/gcc/arm-none-eabi/4.9.3/../../../../arm-none-eabi/lib/armv7-m\libg_nano.a(lib_a-atoi.o)
                0x00008cf0                atoi
 .text.__errno  0x00008cf8        0xc d:/programming/cypress/psoc creator/4.0/psoc creator/import/gnu/arm/4.9.3/bin/../lib/gcc/arm-none-eabi/4.9.3/../../../../arm-none-eabi/lib/armv7-m\libg_nano.a(lib_a-errno.o)
                0x00008cf8                __errno
 .text.__libc_init_array
                0x00008d04       0x4c d:/programming/cypress/psoc creator/4.0/psoc creator/import/gnu/arm/4.9.3/bin/../lib/gcc/arm-none-eabi/4.9.3/../../../../arm-none-eabi/lib/armv7-m\libg_nano.a(lib_a-init.o)
                0x00008d04                __libc_init_array
 .text.memcpy   0x00008d50       0x16 d:/programming/cypress/psoc creator/4.0/psoc creator/import/gnu/arm/4.9.3/bin/../lib/gcc/arm-none-eabi/4.9.3/../../../../arm-none-eabi/lib/armv7-m\libg_nano.a(lib_a-memcpy.o)
                0x00008d50                memcpy
 .text.memset   0x00008d66       0x10 d:/programming/cypress/psoc creator/4.0/psoc creator/import/gnu/arm/4.9.3/bin/../lib/gcc/arm-none-eabi/4.9.3/../../../../arm-none-eabi/lib/armv7-m\libg_nano.a(lib_a-memset.o)
                0x00008d66                memset
 *fill*         0x00008d76        0x2 
 .text.sprintf  0x00008d78       0x48 d:/programming/cypress/psoc creator/4.0/psoc creator/import/gnu/arm/4.9.3/bin/../lib/gcc/arm-none-eabi/4.9.3/../../../../arm-none-eabi/lib/armv7-m\libg_nano.a(lib_a-sprintf.o)
                0x00008d78                siprintf
                0x00008d78                sprintf
 .text.strtok   0x00008dc0       0x64 d:/programming/cypress/psoc creator/4.0/psoc creator/import/gnu/arm/4.9.3/bin/../lib/gcc/arm-none-eabi/4.9.3/../../../../arm-none-eabi/lib/armv7-m\libg_nano.a(lib_a-strtok.o)
                0x00008dc0                strtok
 .text.__strtok_r
                0x00008e24       0x56 d:/programming/cypress/psoc creator/4.0/psoc creator/import/gnu/arm/4.9.3/bin/../lib/gcc/arm-none-eabi/4.9.3/../../../../arm-none-eabi/lib/armv7-m\libg_nano.a(lib_a-strtok_r.o)
                0x00008e24                __strtok_r
 *fill*         0x00008e7a        0x2 
 .text._strtol_r
                0x00008e7c      0x10c d:/programming/cypress/psoc creator/4.0/psoc creator/import/gnu/arm/4.9.3/bin/../lib/gcc/arm-none-eabi/4.9.3/../../../../arm-none-eabi/lib/armv7-m\libg_nano.a(lib_a-strtol.o)
                0x00008e7c                _strtol_r
 .text.strtol   0x00008f88       0x1c d:/programming/cypress/psoc creator/4.0/psoc creator/import/gnu/arm/4.9.3/bin/../lib/gcc/arm-none-eabi/4.9.3/../../../../arm-none-eabi/lib/armv7-m\libg_nano.a(lib_a-strtol.o)
                0x00008f88                strtol
 .text.malloc   0x00008fa4       0x10 d:/programming/cypress/psoc creator/4.0/psoc creator/import/gnu/arm/4.9.3/bin/../lib/gcc/arm-none-eabi/4.9.3/../../../../arm-none-eabi/lib/armv7-m\libg_nano.a(lib_a-malloc.o)
                0x00008fa4                malloc
 .text._free_r  0x00008fb4       0x88 d:/programming/cypress/psoc creator/4.0/psoc creator/import/gnu/arm/4.9.3/bin/../lib/gcc/arm-none-eabi/4.9.3/../../../../arm-none-eabi/lib/armv7-m\libg_nano.a(lib_a-nano-freer.o)
                0x00008fb4                _free_r
 .text._malloc_r
                0x0000903c       0xac d:/programming/cypress/psoc creator/4.0/psoc creator/import/gnu/arm/4.9.3/bin/../lib/gcc/arm-none-eabi/4.9.3/../../../../arm-none-eabi/lib/armv7-m\libg_nano.a(lib_a-nano-mallocr.o)
                0x0000903c                _malloc_r
 .text.__ssputs_r
                0x000090e8       0xb2 d:/programming/cypress/psoc creator/4.0/psoc creator/import/gnu/arm/4.9.3/bin/../lib/gcc/arm-none-eabi/4.9.3/../../../../arm-none-eabi/lib/armv7-m\libg_nano.a(lib_a-nano-svfprintf.o)
                0x000090e8                __ssputs_r
 *fill*         0x0000919a        0x2 
 .text._svfprintf_r
                0x0000919c      0x1e4 d:/programming/cypress/psoc creator/4.0/psoc creator/import/gnu/arm/4.9.3/bin/../lib/gcc/arm-none-eabi/4.9.3/../../../../arm-none-eabi/lib/armv7-m\libg_nano.a(lib_a-nano-svfprintf.o)
                0x0000919c                _svfiprintf_r
                0x0000919c                _svfprintf_r
 .text._printf_common
                0x00009380       0xea d:/programming/cypress/psoc creator/4.0/psoc creator/import/gnu/arm/4.9.3/bin/../lib/gcc/arm-none-eabi/4.9.3/../../../../arm-none-eabi/lib/armv7-m\libg_nano.a(lib_a-nano-vfprintf_i.o)
                0x00009380                _printf_common
 *fill*         0x0000946a        0x2 
 .text._printf_i
                0x0000946c      0x240 d:/programming/cypress/psoc creator/4.0/psoc creator/import/gnu/arm/4.9.3/bin/../lib/gcc/arm-none-eabi/4.9.3/../../../../arm-none-eabi/lib/armv7-m\libg_nano.a(lib_a-nano-vfprintf_i.o)
                0x0000946c                _printf_i
 .text._sbrk_r  0x000096ac       0x20 d:/programming/cypress/psoc creator/4.0/psoc creator/import/gnu/arm/4.9.3/bin/../lib/gcc/arm-none-eabi/4.9.3/../../../../arm-none-eabi/lib/armv7-m\libg_nano.a(lib_a-sbrkr.o)
                0x000096ac                _sbrk_r
 .text.memchr   0x000096cc       0x1c d:/programming/cypress/psoc creator/4.0/psoc creator/import/gnu/arm/4.9.3/bin/../lib/gcc/arm-none-eabi/4.9.3/../../../../arm-none-eabi/lib/armv7-m\libg_nano.a(lib_a-memchr.o)
                0x000096cc                memchr
 .text.memmove  0x000096e8       0x36 d:/programming/cypress/psoc creator/4.0/psoc creator/import/gnu/arm/4.9.3/bin/../lib/gcc/arm-none-eabi/4.9.3/../../../../arm-none-eabi/lib/armv7-m\libg_nano.a(lib_a-memmove.o)
                0x000096e8                memmove
 .text._realloc_r
                0x0000971e       0x4c d:/programming/cypress/psoc creator/4.0/psoc creator/import/gnu/arm/4.9.3/bin/../lib/gcc/arm-none-eabi/4.9.3/../../../../arm-none-eabi/lib/armv7-m\libg_nano.a(lib_a-nano-reallocr.o)
                0x0000971e                _realloc_r
 .text._malloc_usable_size_r
                0x0000976a       0x14 d:/programming/cypress/psoc creator/4.0/psoc creator/import/gnu/arm/4.9.3/bin/../lib/gcc/arm-none-eabi/4.9.3/../../../../arm-none-eabi/lib/armv7-m\libg_nano.a(lib_a-nano-msizer.o)
                0x0000976a                _malloc_usable_size_r
 *(.plt)
 *(.gnu.warning)
 *(.glue_7t)
 .glue_7t       0x00000000        0x0 linker stubs
 *(.glue_7)
 .glue_7        0x00000000        0x0 linker stubs
 *(.vfp11_veneer)
 .vfp11_veneer  0x00000000        0x0 linker stubs
 *(.bootloader)
 *(.ARM.extab* .gnu.linkonce.armextab.*)
 *(.gcc_except_table)

.v4_bx          0x00009780        0x0
 .v4_bx         0x00000000        0x0 linker stubs

.iplt           0x00009780        0x0
 .iplt          0x00000000        0x0 d:/programming/cypress/psoc creator/4.0/psoc creator/import/gnu/arm/4.9.3/bin/../lib/gcc/arm-none-eabi/4.9.3/armv7-m/crtbegin.o

.eh_frame_hdr
 *(.eh_frame_hdr)

.eh_frame       0x00009780        0x4
 *(.eh_frame)
 .eh_frame      0x00009780        0x0 d:/programming/cypress/psoc creator/4.0/psoc creator/import/gnu/arm/4.9.3/bin/../lib/gcc/arm-none-eabi/4.9.3/armv7-m/crtbegin.o
 .eh_frame      0x00009780        0x4 d:/programming/cypress/psoc creator/4.0/psoc creator/import/gnu/arm/4.9.3/bin/../lib/gcc/arm-none-eabi/4.9.3/armv7-m/crtend.o
                0x00009784                PROVIDE (__exidx_start, .)

.ARM.exidx
 *(.ARM.exidx* .gnu.linkonce.armexidx.*)
                0x00009784                __exidx_end = .

.rodata         0x00009784      0x6bc
 *(.rodata .rodata.* .gnu.linkonce.r.*)
 .rodata        0x00009784       0xc4 .\CortexM3\ARM_GCC_493\Debug\sd_manager.o
                0x00009784                set_time_file
 .rodata        0x00009848       0x2c .\CortexM3\ARM_GCC_493\Debug\Node-Beaver_FE3.a(cyfitter_cfg.o)
 .rodata        0x00009874      0x160 .\CortexM3\ARM_GCC_493\Debug\Node-Beaver_FE3.a(CAN_1.o)
 .rodata        0x000099d4       0x14 .\CortexM3\ARM_GCC_493\Debug\Node-Beaver_FE3.a(USBUART_1_std.o)
 .rodata        0x000099e8      0x19c .\CortexM3\ARM_GCC_493\Debug\Node-Beaver_FE3.a(USBUART_1_descr.o)
                0x000099e8                USBUART_1_DEVICE0_DESCR
                0x000099fc                USBUART_1_DEVICE0_CONFIGURATION0_DESCR
                0x00009a40                USBUART_1_STRING_DESCRIPTORS
                0x00009ae0                USBUART_1_SN_STRING_DESCRIPTOR
                0x00009ae4                USBUART_1_DEVICE0_CONFIGURATION0_EP_SETTINGS_TABLE
                0x00009afc                USBUART_1_DEVICE0_CONFIGURATION0_INTERFACE_CLASS
                0x00009b00                USBUART_1_DEVICE0_CONFIGURATION0_TABLE
                0x00009b28                USBUART_1_DEVICE0_TABLE
                0x00009b40                USBUART_1_TABLE
                0x00009b48                USBUART_1_MSOS_DESCRIPTOR
                0x00009b5c                USBUART_1_MSOS_CONFIGURATION_DESCR
 .rodata        0x00009b84       0x10 .\emFile_V322c\LinkLibrary\PSoC5\GCC\libemf16noslfn.a(FAT_LFN.o)
                0x00009b84                FAT_LFN_API
 .rodata        0x00009b94       0x10 .\emFile_V322c\LinkLibrary\PSoC5\GCC\libemf16noslfn.a(FAT_Misc.o)
                0x00009b94                FAT_SFN_API
 .rodata.str1.1
                0x00009ba4        0x3 .\emFile_V322c\LinkLibrary\PSoC5\GCC\libemf16noslfn.a(FAT_Open.o)
 *fill*         0x00009ba7        0x1 
 .rodata        0x00009ba8       0x78 .\emFile_V322c\LinkLibrary\PSoC5\GCC\libemf16noslfn.a(FS_Misc.o)
 .rodata.str1.1
                0x00009c20       0x30 .\emFile_V322c\LinkLibrary\PSoC5\GCC\libemf16noslfn.a(FS_Misc.o)
 .rodata        0x00009c50       0x18 .\emFile_V322c\LinkLibrary\PSoC5\GCC\libemf16noslfn.a(FAT_Dir.o)
 .rodata        0x00009c68       0x68 .\emFile_V322c\LinkLibrary\PSoC5\GCC\libemf16noslfn.a(MMC_Drv.o)
                0x00009cb0                FS_MMC_SPI_Driver
 .rodata.str1.1
                0x00009cd0        0x4 .\emFile_V322c\LinkLibrary\PSoC5\GCC\libemf16noslfn.a(MMC_Drv.o)
 .rodata.str1.1
                0x00009cd4        0x2 d:/programming/cypress/psoc creator/4.0/psoc creator/import/gnu/arm/4.9.3/bin/../lib/gcc/arm-none-eabi/4.9.3/../../../../arm-none-eabi/lib/armv7-m\libg_nano.a(lib_a-impure.o)
 .rodata._ctype_
                0x00009cd6      0x101 d:/programming/cypress/psoc creator/4.0/psoc creator/import/gnu/arm/4.9.3/bin/../lib/gcc/arm-none-eabi/4.9.3/../../../../arm-none-eabi/lib/armv7-m\libg_nano.a(lib_a-ctype_.o)
                0x00009cd6                _ctype_
 .rodata.str1.1
                0x00009dd7       0x11 d:/programming/cypress/psoc creator/4.0/psoc creator/import/gnu/arm/4.9.3/bin/../lib/gcc/arm-none-eabi/4.9.3/../../../../arm-none-eabi/lib/armv7-m\libg_nano.a(lib_a-nano-svfprintf.o)
 .rodata.str1.1
                0x00009de8       0x22 d:/programming/cypress/psoc creator/4.0/psoc creator/import/gnu/arm/4.9.3/bin/../lib/gcc/arm-none-eabi/4.9.3/../../../../arm-none-eabi/lib/armv7-m\libg_nano.a(lib_a-nano-vfprintf_i.o)
                0x00009e0c                . = ALIGN (0x4)
 *fill*         0x00009e0a        0x2 
 *(.init)
 .init          0x00009e0c        0x4 d:/programming/cypress/psoc creator/4.0/psoc creator/import/gnu/arm/4.9.3/bin/../lib/gcc/arm-none-eabi/4.9.3/armv7-m/crti.o
                0x00009e0c                _init
 .init          0x00009e10        0x8 d:/programming/cypress/psoc creator/4.0/psoc creator/import/gnu/arm/4.9.3/bin/../lib/gcc/arm-none-eabi/4.9.3/armv7-m/crtn.o
                0x00009e18                . = ALIGN (0x4)
                0x00009e18                __preinit_array_start = .
 *(.preinit_array)
                0x00009e18                __preinit_array_end = .
                0x00009e18                . = ALIGN (0x4)
                0x00009e18                __init_array_start = .
 *(SORT(.init_array.*))
 *(.init_array)
 .init_array    0x00009e18        0x4 d:/programming/cypress/psoc creator/4.0/psoc creator/import/gnu/arm/4.9.3/bin/../lib/gcc/arm-none-eabi/4.9.3/armv7-m/crtbegin.o
 .init_array    0x00009e1c        0x4 .\CortexM3\ARM_GCC_493\Debug\Cm3Start.o
                0x00009e20                __init_array_end = .
                0x00009e20                . = ALIGN (0x4)
 *(.fini)
 .fini          0x00009e20        0x4 d:/programming/cypress/psoc creator/4.0/psoc creator/import/gnu/arm/4.9.3/bin/../lib/gcc/arm-none-eabi/4.9.3/armv7-m/crti.o
                0x00009e20                _fini
 .fini          0x00009e24        0x8 d:/programming/cypress/psoc creator/4.0/psoc creator/import/gnu/arm/4.9.3/bin/../lib/gcc/arm-none-eabi/4.9.3/armv7-m/crtn.o
                0x00009e2c                . = ALIGN (0x4)
                0x00009e2c                __fini_array_start = .
 *(.fini_array)
 .fini_array    0x00009e2c        0x4 d:/programming/cypress/psoc creator/4.0/psoc creator/import/gnu/arm/4.9.3/bin/../lib/gcc/arm-none-eabi/4.9.3/armv7-m/crtbegin.o
 *(SORT(.fini_array.*))
                0x00009e30                __fini_array_end = .
                0x00009e30                . = ALIGN (0x4)
 *crtbegin.o(.ctors)
 *(EXCLUDE_FILE(*crtend.o) .ctors)
 *(SORT(.ctors.*))
 *crtend.o(.ctors)
                0x00009e30                . = ALIGN (0x4)
 *crtbegin.o(.dtors)
 *(EXCLUDE_FILE(*crtend.o) .dtors)
 *(SORT(.dtors.*))
 *crtend.o(.dtors)
                0x00009e30                . = ALIGN (0x4)
                0x00009e30                __cy_regions = .
                0x00009e30        0x4 LONG 0x9e40 __cy_region_init_ram
                0x00009e34        0x4 LONG 0x1fff8108 __cy_region_start_data
                0x00009e38        0x4 LONG 0xa8 __cy_region_init_size_ram
                0x00009e3c        0x4 LONG 0x52b0 __cy_region_zero_size_ram
                0x00009e40                __cy_regions_end = .
                0x00009e40                . = ALIGN (0x8)
                0x00009e40                _etext = .

.cy_checksum_exclude
                0x00009e40        0x0
 *(.cy_checksum_exclude)

.ramvectors     0x1fff8000      0x100
                0x1fff8000                __cy_region_start_ram = .
 *(.ramvectors)
 .ramvectors    0x1fff8000      0x100 .\CortexM3\ARM_GCC_493\Debug\Cm3Start.o
                0x1fff8000                CyRamVectors

.noinit         0x1fff8100        0x5
 *(.noinit)
 .noinit        0x1fff8100        0x4 .\CortexM3\ARM_GCC_493\Debug\Cm3Start.o
 .noinit        0x1fff8104        0x1 .\CortexM3\ARM_GCC_493\Debug\Node-Beaver_FE3.a(CyLib.o)
                0x1fff8104                CyResetStatus

.data           0x1fff8108       0xa8 load address 0x00009e40
                0x1fff8108                __cy_region_start_data = .
 *(.jcr)
 .jcr           0x1fff8108        0x0 d:/programming/cypress/psoc creator/4.0/psoc creator/import/gnu/arm/4.9.3/bin/../lib/gcc/arm-none-eabi/4.9.3/armv7-m/crtbegin.o
 .jcr           0x1fff8108        0x4 d:/programming/cypress/psoc creator/4.0/psoc creator/import/gnu/arm/4.9.3/bin/../lib/gcc/arm-none-eabi/4.9.3/armv7-m/crtend.o
 *(.got.plt)
 *(.got)
 *(.shdata)
 *(.data .data.* .gnu.linkonce.d.*)
 .data          0x1fff810c        0x4 .\CortexM3\ARM_GCC_493\Debug\Cm3Start.o
 .data          0x1fff8110       0x10 .\CortexM3\ARM_GCC_493\Debug\Node-Beaver_FE3.a(CyLib.o)
                0x1fff8110                cydelay_freq_hz
                0x1fff8114                cydelay_freq_khz
                0x1fff8118                cydelay_freq_mhz
                0x1fff811c                cydelay_32k_ms
 .data          0x1fff8120       0x1c .\CortexM3\ARM_GCC_493\Debug\Node-Beaver_FE3.a(USBUART_1_cdc.o)
                0x1fff8120                USBUART_1_linesCoding
 .data          0x1fff813c        0x4 .\emFile_V322c\LinkLibrary\PSoC5\GCC\libemf16noslfn.a(FAT_Misc.o)
                0x1fff813c                FAT_pDirEntryAPI
 .data          0x1fff8140        0x4 .\emFile_V322c\LinkLibrary\PSoC5\GCC\libemf16noslfn.a(MMC_Drv.o)
 .data.impure_data
                0x1fff8144       0x60 d:/programming/cypress/psoc creator/4.0/psoc creator/import/gnu/arm/4.9.3/bin/../lib/gcc/arm-none-eabi/4.9.3/../../../../arm-none-eabi/lib/armv7-m\libg_nano.a(lib_a-impure.o)
 .data._impure_ptr
                0x1fff81a4        0x4 d:/programming/cypress/psoc creator/4.0/psoc creator/import/gnu/arm/4.9.3/bin/../lib/gcc/arm-none-eabi/4.9.3/../../../../arm-none-eabi/lib/armv7-m\libg_nano.a(lib_a-impure.o)
                0x1fff81a4                _impure_ptr
 .data.__ctype_ptr__
                0x1fff81a8        0x4 d:/programming/cypress/psoc creator/4.0/psoc creator/import/gnu/arm/4.9.3/bin/../lib/gcc/arm-none-eabi/4.9.3/../../../../arm-none-eabi/lib/armv7-m\libg_nano.a(lib_a-ctype_.o)
                0x1fff81a8                __ctype_ptr__
                0x1fff81b0                . = ALIGN (0x8)
 *fill*         0x1fff81ac        0x4 
 *(.ram)
                0x1fff81b0                _edata = .

.igot.plt       0x1fff81b0        0x0 load address 0x00009ee8
 .igot.plt      0x00000000        0x0 d:/programming/cypress/psoc creator/4.0/psoc creator/import/gnu/arm/4.9.3/bin/../lib/gcc/arm-none-eabi/4.9.3/armv7-m/crtbegin.o

.bss            0x1fff81b0     0x52b0 load address 0x00009ee8
                0x1fff81b0                PROVIDE (__bss_start__, .)
 *(.shbss)
 *(.bss .bss.* .gnu.linkonce.b.*)
 .bss           0x1fff81b0       0x1c d:/programming/cypress/psoc creator/4.0/psoc creator/import/gnu/arm/4.9.3/bin/../lib/gcc/arm-none-eabi/4.9.3/armv7-m/crtbegin.o
 .bss           0x1fff81cc        0x6 .\CortexM3\ARM_GCC_493\Debug\sd_manager.o
                0x1fff81cc                sd_ok
                0x1fff81ce                sd_head
                0x1fff81d0                sd_tail
 *fill*         0x1fff81d2        0x2 
 .bss           0x1fff81d4        0x8 .\CortexM3\ARM_GCC_493\Debug\radio_manager.o
 .bss           0x1fff81dc        0x1 .\CortexM3\ARM_GCC_493\Debug\Node-Beaver_FE3.a(CAN_1.o)
                0x1fff81dc                CAN_1_initVar
 .bss           0x1fff81dd        0x1 .\CortexM3\ARM_GCC_493\Debug\Node-Beaver_FE3.a(USBUART_1.o)
                0x1fff81dd                USBUART_1_initVar
 *fill*         0x1fff81de        0x2 
 .bss           0x1fff81e0        0x4 .\CortexM3\ARM_GCC_493\Debug\Node-Beaver_FE3.a(USBUART_1_std.o)
 .bss           0x1fff81e4        0x1 .\CortexM3\ARM_GCC_493\Debug\Node-Beaver_FE3.a(rtc_i2c.o)
                0x1fff81e4                rtc_i2c_initVar
 .bss           0x1fff81e5        0x1 .\CortexM3\ARM_GCC_493\Debug\Node-Beaver_FE3.a(millis_timer.o)
                0x1fff81e5                millis_timer_initVar
 .bss           0x1fff81e6        0x1 .\CortexM3\ARM_GCC_493\Debug\Node-Beaver_FE3.a(time_refresh_timer.o)
                0x1fff81e6                time_refresh_timer_initVar
 .bss           0x1fff81e7        0x1 .\CortexM3\ARM_GCC_493\Debug\Node-Beaver_FE3.a(xbee_spi.o)
                0x1fff81e7                xbee_spi_initVar
 .bss           0x1fff81e8        0x1 .\CortexM3\ARM_GCC_493\Debug\Node-Beaver_FE3.a(power_comp.o)
                0x1fff81e8                power_comp_initVar
 .bss           0x1fff81e9        0x1 .\CortexM3\ARM_GCC_493\Debug\Node-Beaver_FE3.a(sd_timer.o)
                0x1fff81e9                sd_timer_initVar
 *fill*         0x1fff81ea        0x2 
 .bss           0x1fff81ec        0xc .\emFile_V322c\LinkLibrary\PSoC5\GCC\libemf16noslfn.a(FS_Core.o)
 .bss           0x1fff81f8     0x1000 .\CortexM3\ARM_GCC_493\Debug\Node-Beaver_FE3.a(emFile_1_ConfigMMC_SPI.o)
 .bss           0x1fff91f8       0x14 .\emFile_V322c\LinkLibrary\PSoC5\GCC\libemf16noslfn.a(MMC_Drv.o)
 .bss           0x1fff920c        0x1 .\CortexM3\ARM_GCC_493\Debug\Node-Beaver_FE3.a(emFile_1_MMC_HW_SPI.o)
 .bss           0x1fff920d        0x1 .\CortexM3\ARM_GCC_493\Debug\Node-Beaver_FE3.a(emFile_1_SPI0.o)
                0x1fff920d                emFile_1_SPI0_initVar
 *fill*         0x1fff920e        0x2 
 .bss.__malloc_sbrk_start
                0x1fff9210        0x4 d:/programming/cypress/psoc creator/4.0/psoc creator/import/gnu/arm/4.9.3/bin/../lib/gcc/arm-none-eabi/4.9.3/../../../../arm-none-eabi/lib/armv7-m\libg_nano.a(lib_a-nano-mallocr.o)
                0x1fff9210                __malloc_sbrk_start
 .bss.__malloc_free_list
                0x1fff9214        0x4 d:/programming/cypress/psoc creator/4.0/psoc creator/import/gnu/arm/4.9.3/bin/../lib/gcc/arm-none-eabi/4.9.3/../../../../arm-none-eabi/lib/armv7-m\libg_nano.a(lib_a-nano-mallocr.o)
                0x1fff9214                __malloc_free_list
 *(COMMON)
 COMMON         0x1fff9218       0x80 .\CortexM3\ARM_GCC_493\Debug\can_manager.o
                0x1fff9218                CURTIS_RCVACK
                0x1fff9228                BRAKE
                0x1fff9238                CURTIS_VOLTAGE
                0x1fff9248                THROTTLE
                0x1fff9258                DASH
                0x1fff9268                CURTIS_DEBUG
                0x1fff9278                CURTIS_RCV
                0x1fff9288                CURTIS_STATUS
 COMMON         0x1fff9298     0x4004 .\CortexM3\ARM_GCC_493\Debug\sd_manager.o
                0x1fff9298                sd_queue
                0x1fffd298                pfile
 COMMON         0x1fffd29c       0x10 .\CortexM3\ARM_GCC_493\Debug\time_manager.o
                0x1fffd29c                current_time
 COMMON         0x1fffd2ac       0x18 .\CortexM3\ARM_GCC_493\Debug\Node-Beaver_FE3.a(USBUART_1_cdc.o)
                0x1fffd2ac                USBUART_1_cdcDataInEp
                0x1fffd2b0                USBUART_1_cdcDataOutEp
                0x1fffd2b4                USBUART_1_cdcCommInInterruptEp
                0x1fffd2b8                USBUART_1_serialStateBitmap
                0x1fffd2bc                USBUART_1_linesChanged
                0x1fffd2c0                USBUART_1_linesControlBitmap
 COMMON         0x1fffd2c4       0x97 .\CortexM3\ARM_GCC_493\Debug\Node-Beaver_FE3.a(USBUART_1_drv.o)
                0x1fffd2c4                USBUART_1_interfaceSettingLast
                0x1fffd2c6                USBUART_1_ep0Mode
                0x1fffd2c7                USBUART_1_lastPacketSize
                0x1fffd2c8                USBUART_1_configurationChanged
                0x1fffd2c9                USBUART_1_configuration
                0x1fffd2ca                USBUART_1_interfaceNumber
                0x1fffd2cb                USBUART_1_deviceStatus
                0x1fffd2cc                USBUART_1_ep0Toggle
                0x1fffd2d0                USBUART_1_interfaceClass
                0x1fffd2d4                USBUART_1_interfaceSetting
                0x1fffd2d8                USBUART_1_currentTD
                0x1fffd2e4                USBUART_1_ep0Count
                0x1fffd2e8                USBUART_1_EP
                0x1fffd354                USBUART_1_transferByteCount
                0x1fffd356                USBUART_1_transferState
                0x1fffd357                USBUART_1_device
                0x1fffd358                USBUART_1_interfaceStatus
                0x1fffd35a                USBUART_1_deviceAddress
 COMMON         0x1fffd35b        0x1 .\CortexM3\ARM_GCC_493\Debug\Node-Beaver_FE3.a(rtc_i2c.o)
                0x1fffd35b                rtc_i2c_state
 COMMON         0x1fffd35c        0xe .\CortexM3\ARM_GCC_493\Debug\Node-Beaver_FE3.a(rtc_i2c_MASTER.o)
                0x1fffd35c                rtc_i2c_mstrStatus
                0x1fffd35d                rtc_i2c_mstrWrBufIndex
                0x1fffd35e                rtc_i2c_mstrWrBufSize
                0x1fffd35f                rtc_i2c_mstrControl
                0x1fffd360                rtc_i2c_mstrRdBufPtr
                0x1fffd364                rtc_i2c_mstrWrBufPtr
                0x1fffd368                rtc_i2c_mstrRdBufSize
                0x1fffd369                rtc_i2c_mstrRdBufIndex
 *fill*         0x1fffd36a        0x2 
 COMMON         0x1fffd36c       0x47 .\CortexM3\ARM_GCC_493\Debug\Node-Beaver_FE3.a(xbee_spi.o)
                0x1fffd36c                xbee_spi_txBufferWrite
                0x1fffd36d                xbee_spi_txBufferFull
                0x1fffd370                xbee_spi_txBuffer
                0x1fffd3b0                xbee_spi_txBufferRead
                0x1fffd3b1                xbee_spi_swStatusTx
                0x1fffd3b2                xbee_spi_swStatusRx
 *fill*         0x1fffd3b3        0x1 
 COMMON         0x1fffd3b4       0x22 .\CortexM3\ARM_GCC_493\Debug\Node-Beaver_FE3.a(USBUART_1_descr.o)
                0x1fffd3b4                USBUART_1_idSerialNumberStringDescriptor
 *fill*         0x1fffd3d6        0x2 
 COMMON         0x1fffd3d8       0x84 .\emFile_V322c\LinkLibrary\PSoC5\GCC\libemf16noslfn.a(FS_Core.o)
                0x1fffd3d8                FS_Global
                0x1fffd458                FS_NumBytesAllocated
 COMMON         0x1fffd45c        0x4 d:/programming/cypress/psoc creator/4.0/psoc creator/import/gnu/arm/4.9.3/bin/../lib/gcc/arm-none-eabi/4.9.3/../../../../arm-none-eabi/lib/armv7-m\libg_nano.a(lib_a-reent.o)
                0x1fffd45c                errno
                0x1fffd460                . = ALIGN (0x8)
 *(.ram.b)
                0x1fffd460                _end = .
                0x1fffd460                __end = .
                0x1fffd460                PROVIDE (end, .)
                0x1fffd460                PROVIDE (__bss_end__, .)
                0x00009e40                __cy_region_init_ram = LOADADDR (.data)
                0x000000a8                __cy_region_init_size_ram = (_edata - ADDR (.data))
                0x000052b0                __cy_region_zero_size_ram = (_end - _edata)

.heap           0x1fffd460     0x1000 load address 0x00009ee8
                0x1fffd460                . = _end
                0x1fffe460                . = (. + 0x1000)
 *fill*         0x1fffd460     0x1000 
                0x1fffe460                __cy_heap_limit = .

.stack          0x20004000     0x4000
                0x20004000                __cy_stack_limit = .
                0x20008000                . = (. + 0x4000)
 *fill*         0x20004000     0x4000 
                0x00000001                ASSERT ((__cy_stack_limit >= __cy_heap_limit), region RAM overflowed with stack)
                0x00000000                cy_checksum_exclude_size = (CY_APPL_LOADABLE == 0x1)?SIZEOF (.cy_checksum_exclude):0x0
                0x00000001                ASSERT ((cy_checksum_exclude_size <= CY_CHECKSUM_EXCLUDE_SIZE), CY_BOOT: Section .cy_checksum_exclude size exceedes specified limit.)

.cyloadermeta
 *(.cyloadermeta)

.cyloadablemeta
 *(.cyloadablemeta)

.cyconfigecc    0x80000000      0xaec
 *(.cyconfigecc)
 .cyconfigecc   0x80000000      0xaec .\CortexM3\ARM_GCC_493\Debug\cymetadata.o
                0x80000000                cy_meta_configecc

.cycustnvl      0x90000000        0x4
 *(.cycustnvl)
 .cycustnvl     0x90000000        0x4 .\CortexM3\ARM_GCC_493\Debug\cymetadata.o
                0x90000000                cy_meta_custnvl

.cywolatch      0x90100000        0x4
 *(.cywolatch)
 .cywolatch     0x90100000        0x4 .\CortexM3\ARM_GCC_493\Debug\cymetadata.o
                0x90100000                cy_meta_wonvl

.cyeeprom       0x90200000        0x0
 *(.cyeeprom)
                0x00000001                ASSERT ((. <= ((0x90200000 + ee_offset) + ee_size)), .cyeeprom data will not fit in EEPROM)

.cyflashprotect
                0x90400000      0x100
 *(.cyflashprotect)
 .cyflashprotect
                0x90400000      0x100 .\CortexM3\ARM_GCC_493\Debug\cymetadata.o
                0x90400000                cy_meta_flashprotect

.cymeta         0x90500000        0xc
 *(.cymeta)
 .cymeta        0x90500000        0xc .\CortexM3\ARM_GCC_493\Debug\cymetadata.o
                0x90500000                cy_metadata

.rel.dyn        0x00009ee8        0x0 load address 0x9050000c
 .rel.iplt      0x00000000        0x0 d:/programming/cypress/psoc creator/4.0/psoc creator/import/gnu/arm/4.9.3/bin/../lib/gcc/arm-none-eabi/4.9.3/armv7-m/crtbegin.o

.stab
 *(.stab)

.stabstr
 *(.stabstr)

.debug
 *(.debug)

.line
 *(.line)

.debug_srcinfo
 *(.debug_srcinfo)

.debug_sfnames
 *(.debug_sfnames)

.debug_aranges  0x00000000     0x1440
 *(.debug_aranges)
 .debug_aranges
                0x00000000       0x28 .\CortexM3\ARM_GCC_493\Debug\main.o
 .debug_aranges
                0x00000028       0x48 .\CortexM3\ARM_GCC_493\Debug\can_manager.o
 .debug_aranges
                0x00000070       0x60 .\CortexM3\ARM_GCC_493\Debug\sd_manager.o
 .debug_aranges
                0x000000d0       0x38 .\CortexM3\ARM_GCC_493\Debug\usb_manager.o
 .debug_aranges
                0x00000108       0x50 .\CortexM3\ARM_GCC_493\Debug\radio_manager.o
 .debug_aranges
                0x00000158       0x48 .\CortexM3\ARM_GCC_493\Debug\time_manager.o
 .debug_aranges
                0x000001a0       0x18 .\CortexM3\ARM_GCC_493\Debug\cymetadata.o
 .debug_aranges
                0x000001b8       0x48 .\CortexM3\ARM_GCC_493\Debug\Cm3Start.o
 .debug_aranges
                0x00000200       0x60 .\CortexM3\ARM_GCC_493\Debug\Node-Beaver_FE3.a(cyfitter_cfg.o)
 .debug_aranges
                0x00000260      0x2a0 .\CortexM3\ARM_GCC_493\Debug\Node-Beaver_FE3.a(CyLib.o)
 .debug_aranges
                0x00000500       0x98 .\CortexM3\ARM_GCC_493\Debug\Node-Beaver_FE3.a(cyPm.o)
 .debug_aranges
                0x00000598       0xc8 .\CortexM3\ARM_GCC_493\Debug\Node-Beaver_FE3.a(CAN_1.o)
 .debug_aranges
                0x00000660       0x28 .\CortexM3\ARM_GCC_493\Debug\Node-Beaver_FE3.a(CAN_1_INT.o)
 .debug_aranges
                0x00000688       0x30 .\CortexM3\ARM_GCC_493\Debug\Node-Beaver_FE3.a(CAN_1_TX_RX_func.o)
 .debug_aranges
                0x000006b8       0x38 .\CortexM3\ARM_GCC_493\Debug\Node-Beaver_FE3.a(LED.o)
 .debug_aranges
                0x000006f0       0xc8 .\CortexM3\ARM_GCC_493\Debug\Node-Beaver_FE3.a(USBUART_1.o)
 .debug_aranges
                0x000007b8       0xe8 .\CortexM3\ARM_GCC_493\Debug\Node-Beaver_FE3.a(USBUART_1_cdc.o)
 .debug_aranges
                0x000008a0       0x98 .\CortexM3\ARM_GCC_493\Debug\Node-Beaver_FE3.a(USBUART_1_drv.o)
 .debug_aranges
                0x00000938       0x40 .\CortexM3\ARM_GCC_493\Debug\Node-Beaver_FE3.a(USBUART_1_episr.o)
 .debug_aranges
                0x00000978       0x40 .\CortexM3\ARM_GCC_493\Debug\Node-Beaver_FE3.a(USBUART_1_pm.o)
 .debug_aranges
                0x000009b8       0x80 .\CortexM3\ARM_GCC_493\Debug\Node-Beaver_FE3.a(USBUART_1_std.o)
 .debug_aranges
                0x00000a38       0x20 .\CortexM3\ARM_GCC_493\Debug\Node-Beaver_FE3.a(USBUART_1_vnd.o)
 .debug_aranges
                0x00000a58       0x48 .\CortexM3\ARM_GCC_493\Debug\Node-Beaver_FE3.a(USBUART_1_Dp.o)
 .debug_aranges
                0x00000aa0       0x80 .\CortexM3\ARM_GCC_493\Debug\Node-Beaver_FE3.a(power_isr.o)
 .debug_aranges
                0x00000b20       0x38 .\CortexM3\ARM_GCC_493\Debug\Node-Beaver_FE3.a(rtc_i2c.o)
 .debug_aranges
                0x00000b58       0x20 .\CortexM3\ARM_GCC_493\Debug\Node-Beaver_FE3.a(rtc_i2c_INT.o)
 .debug_aranges
                0x00000b78       0x38 .\CortexM3\ARM_GCC_493\Debug\Node-Beaver_FE3.a(rtc_i2c_PM.o)
 .debug_aranges
                0x00000bb0       0x80 .\CortexM3\ARM_GCC_493\Debug\Node-Beaver_FE3.a(rtc_i2c_MASTER.o)
 .debug_aranges
                0x00000c30       0x80 .\CortexM3\ARM_GCC_493\Debug\Node-Beaver_FE3.a(time_refresh_isr.o)
 .debug_aranges
                0x00000cb0       0x90 .\CortexM3\ARM_GCC_493\Debug\Node-Beaver_FE3.a(millis_timer.o)
 .debug_aranges
                0x00000d40       0x90 .\CortexM3\ARM_GCC_493\Debug\Node-Beaver_FE3.a(time_refresh_timer.o)
 .debug_aranges
                0x00000dd0       0xd8 .\CortexM3\ARM_GCC_493\Debug\Node-Beaver_FE3.a(xbee_spi.o)
 .debug_aranges
                0x00000ea8       0x28 .\CortexM3\ARM_GCC_493\Debug\Node-Beaver_FE3.a(xbee_spi_INT.o)
 .debug_aranges
                0x00000ed0       0x70 .\CortexM3\ARM_GCC_493\Debug\Node-Beaver_FE3.a(xbee_spi_IntClock.o)
 .debug_aranges
                0x00000f40       0x70 .\CortexM3\ARM_GCC_493\Debug\Node-Beaver_FE3.a(power_comp.o)
 .debug_aranges
                0x00000fb0       0x90 .\CortexM3\ARM_GCC_493\Debug\Node-Beaver_FE3.a(sd_timer.o)
 .debug_aranges
                0x00001040       0x80 .\CortexM3\ARM_GCC_493\Debug\Node-Beaver_FE3.a(sd_isr.o)
 .debug_aranges
                0x000010c0       0x20 .\CortexM3\ARM_GCC_493\Debug\Node-Beaver_FE3.a(CyBootAsmGnu.o)
 .debug_aranges
                0x000010e0       0x80 .\CortexM3\ARM_GCC_493\Debug\Node-Beaver_FE3.a(CyFlash.o)
 .debug_aranges
                0x00001160       0x78 .\CortexM3\ARM_GCC_493\Debug\Node-Beaver_FE3.a(CySpc.o)
 .debug_aranges
                0x000011d8       0x20 .\CortexM3\ARM_GCC_493\Debug\Node-Beaver_FE3.a(cyutils.o)
 .debug_aranges
                0x000011f8       0x20 .\CortexM3\ARM_GCC_493\Debug\Node-Beaver_FE3.a(USBUART_1_cls.o)
 .debug_aranges
                0x00001218       0x18 .\CortexM3\ARM_GCC_493\Debug\Node-Beaver_FE3.a(USBUART_1_descr.o)
 .debug_aranges
                0x00001230       0x28 .\CortexM3\ARM_GCC_493\Debug\Node-Beaver_FE3.a(emFile_1_ConfigMMC_SPI.o)
 .debug_aranges
                0x00001258       0x68 .\CortexM3\ARM_GCC_493\Debug\Node-Beaver_FE3.a(emFile_1_MMC_HW_SPI.o)
 .debug_aranges
                0x000012c0       0xd8 .\CortexM3\ARM_GCC_493\Debug\Node-Beaver_FE3.a(emFile_1_SPI0.o)
 .debug_aranges
                0x00001398       0x70 .\CortexM3\ARM_GCC_493\Debug\Node-Beaver_FE3.a(emFile_1_Clock_1.o)
 .debug_aranges
                0x00001408       0x38 .\CortexM3\ARM_GCC_493\Debug\Node-Beaver_FE3.a(emFile_1_SPI0_CS.o)

.debug_pubnames
 *(.debug_pubnames)

.debug_info     0x00000000     0x9d26
 *(.debug_info .gnu.linkonce.wi.*)
 .debug_info    0x00000000      0x183 .\CortexM3\ARM_GCC_493\Debug\main.o
 .debug_info    0x00000183      0x3d7 .\CortexM3\ARM_GCC_493\Debug\can_manager.o
 .debug_info    0x0000055a      0x4d3 .\CortexM3\ARM_GCC_493\Debug\sd_manager.o
 .debug_info    0x00000a2d      0x21f .\CortexM3\ARM_GCC_493\Debug\usb_manager.o
 .debug_info    0x00000c4c      0x2f8 .\CortexM3\ARM_GCC_493\Debug\radio_manager.o
 .debug_info    0x00000f44      0x2a6 .\CortexM3\ARM_GCC_493\Debug\time_manager.o
 .debug_info    0x000011ea      0x13f .\CortexM3\ARM_GCC_493\Debug\cymetadata.o
 .debug_info    0x00001329      0x319 .\CortexM3\ARM_GCC_493\Debug\Cm3Start.o
 .debug_info    0x00001642      0x393 .\CortexM3\ARM_GCC_493\Debug\Node-Beaver_FE3.a(cyfitter_cfg.o)
 .debug_info    0x000019d5      0xe4a .\CortexM3\ARM_GCC_493\Debug\Node-Beaver_FE3.a(CyLib.o)
 .debug_info    0x0000281f      0x561 .\CortexM3\ARM_GCC_493\Debug\Node-Beaver_FE3.a(cyPm.o)
 .debug_info    0x00002d80      0x781 .\CortexM3\ARM_GCC_493\Debug\Node-Beaver_FE3.a(CAN_1.o)
 .debug_info    0x00003501      0x1db .\CortexM3\ARM_GCC_493\Debug\Node-Beaver_FE3.a(CAN_1_INT.o)
 .debug_info    0x000036dc      0x421 .\CortexM3\ARM_GCC_493\Debug\Node-Beaver_FE3.a(CAN_1_TX_RX_func.o)
 .debug_info    0x00003afd      0x11e .\CortexM3\ARM_GCC_493\Debug\Node-Beaver_FE3.a(LED.o)
 .debug_info    0x00003c1b      0x70b .\CortexM3\ARM_GCC_493\Debug\Node-Beaver_FE3.a(USBUART_1.o)
 .debug_info    0x00004326      0x903 .\CortexM3\ARM_GCC_493\Debug\Node-Beaver_FE3.a(USBUART_1_cdc.o)
 .debug_info    0x00004c29      0x521 .\CortexM3\ARM_GCC_493\Debug\Node-Beaver_FE3.a(USBUART_1_drv.o)
 .debug_info    0x0000514a      0x22f .\CortexM3\ARM_GCC_493\Debug\Node-Beaver_FE3.a(USBUART_1_episr.o)
 .debug_info    0x00005379      0x186 .\CortexM3\ARM_GCC_493\Debug\Node-Beaver_FE3.a(USBUART_1_pm.o)
 .debug_info    0x000054ff      0x950 .\CortexM3\ARM_GCC_493\Debug\Node-Beaver_FE3.a(USBUART_1_std.o)
 .debug_info    0x00005e4f      0x19d .\CortexM3\ARM_GCC_493\Debug\Node-Beaver_FE3.a(USBUART_1_vnd.o)
 .debug_info    0x00005fec      0x171 .\CortexM3\ARM_GCC_493\Debug\Node-Beaver_FE3.a(USBUART_1_Dp.o)
 .debug_info    0x0000615d      0x261 .\CortexM3\ARM_GCC_493\Debug\Node-Beaver_FE3.a(power_isr.o)
 .debug_info    0x000063be      0x1fa .\CortexM3\ARM_GCC_493\Debug\Node-Beaver_FE3.a(rtc_i2c.o)
 .debug_info    0x000065b8      0x14f .\CortexM3\ARM_GCC_493\Debug\Node-Beaver_FE3.a(rtc_i2c_INT.o)
 .debug_info    0x00006707      0x193 .\CortexM3\ARM_GCC_493\Debug\Node-Beaver_FE3.a(rtc_i2c_PM.o)
 .debug_info    0x0000689a      0x3f1 .\CortexM3\ARM_GCC_493\Debug\Node-Beaver_FE3.a(rtc_i2c_MASTER.o)
 .debug_info    0x00006c8b      0x23a .\CortexM3\ARM_GCC_493\Debug\Node-Beaver_FE3.a(time_refresh_isr.o)
 .debug_info    0x00006ec5      0x254 .\CortexM3\ARM_GCC_493\Debug\Node-Beaver_FE3.a(millis_timer.o)
 .debug_info    0x00007119      0x254 .\CortexM3\ARM_GCC_493\Debug\Node-Beaver_FE3.a(time_refresh_timer.o)
 .debug_info    0x0000736d      0x481 .\CortexM3\ARM_GCC_493\Debug\Node-Beaver_FE3.a(xbee_spi.o)
 .debug_info    0x000077ee      0x126 .\CortexM3\ARM_GCC_493\Debug\Node-Beaver_FE3.a(xbee_spi_INT.o)
 .debug_info    0x00007914      0x25d .\CortexM3\ARM_GCC_493\Debug\Node-Beaver_FE3.a(xbee_spi_IntClock.o)
 .debug_info    0x00007b71      0x23f .\CortexM3\ARM_GCC_493\Debug\Node-Beaver_FE3.a(power_comp.o)
 .debug_info    0x00007db0      0x254 .\CortexM3\ARM_GCC_493\Debug\Node-Beaver_FE3.a(sd_timer.o)
 .debug_info    0x00008004      0x23a .\CortexM3\ARM_GCC_493\Debug\Node-Beaver_FE3.a(sd_isr.o)
 .debug_info    0x0000823e       0x93 .\CortexM3\ARM_GCC_493\Debug\Node-Beaver_FE3.a(CyBootAsmGnu.o)
 .debug_info    0x000082d1      0x36a .\CortexM3\ARM_GCC_493\Debug\Node-Beaver_FE3.a(CyFlash.o)
 .debug_info    0x0000863b      0x453 .\CortexM3\ARM_GCC_493\Debug\Node-Beaver_FE3.a(CySpc.o)
 .debug_info    0x00008a8e       0xef .\CortexM3\ARM_GCC_493\Debug\Node-Beaver_FE3.a(cyutils.o)
 .debug_info    0x00008b7d      0x1bc .\CortexM3\ARM_GCC_493\Debug\Node-Beaver_FE3.a(USBUART_1_cls.o)
 .debug_info    0x00008d39      0x2cb .\CortexM3\ARM_GCC_493\Debug\Node-Beaver_FE3.a(USBUART_1_descr.o)
 .debug_info    0x00009004      0x281 .\CortexM3\ARM_GCC_493\Debug\Node-Beaver_FE3.a(emFile_1_ConfigMMC_SPI.o)
 .debug_info    0x00009285      0x339 .\CortexM3\ARM_GCC_493\Debug\Node-Beaver_FE3.a(emFile_1_MMC_HW_SPI.o)
 .debug_info    0x000095be      0x3ed .\CortexM3\ARM_GCC_493\Debug\Node-Beaver_FE3.a(emFile_1_SPI0.o)
 .debug_info    0x000099ab      0x25d .\CortexM3\ARM_GCC_493\Debug\Node-Beaver_FE3.a(emFile_1_Clock_1.o)
 .debug_info    0x00009c08      0x11e .\CortexM3\ARM_GCC_493\Debug\Node-Beaver_FE3.a(emFile_1_SPI0_CS.o)

.debug_abbrev   0x00000000     0x370e
 *(.debug_abbrev)
 .debug_abbrev  0x00000000       0xd8 .\CortexM3\ARM_GCC_493\Debug\main.o
 .debug_abbrev  0x000000d8      0x16f .\CortexM3\ARM_GCC_493\Debug\can_manager.o
 .debug_abbrev  0x00000247      0x1a9 .\CortexM3\ARM_GCC_493\Debug\sd_manager.o
 .debug_abbrev  0x000003f0      0x11b .\CortexM3\ARM_GCC_493\Debug\usb_manager.o
 .debug_abbrev  0x0000050b      0x15a .\CortexM3\ARM_GCC_493\Debug\radio_manager.o
 .debug_abbrev  0x00000665      0x13b .\CortexM3\ARM_GCC_493\Debug\time_manager.o
 .debug_abbrev  0x000007a0       0x77 .\CortexM3\ARM_GCC_493\Debug\cymetadata.o
 .debug_abbrev  0x00000817      0x1b6 .\CortexM3\ARM_GCC_493\Debug\Cm3Start.o
 .debug_abbrev  0x000009cd      0x19d .\CortexM3\ARM_GCC_493\Debug\Node-Beaver_FE3.a(cyfitter_cfg.o)
 .debug_abbrev  0x00000b6a      0x217 .\CortexM3\ARM_GCC_493\Debug\Node-Beaver_FE3.a(CyLib.o)
 .debug_abbrev  0x00000d81      0x161 .\CortexM3\ARM_GCC_493\Debug\Node-Beaver_FE3.a(cyPm.o)
 .debug_abbrev  0x00000ee2      0x153 .\CortexM3\ARM_GCC_493\Debug\Node-Beaver_FE3.a(CAN_1.o)
 .debug_abbrev  0x00001035       0xba .\CortexM3\ARM_GCC_493\Debug\Node-Beaver_FE3.a(CAN_1_INT.o)
 .debug_abbrev  0x000010ef      0x15c .\CortexM3\ARM_GCC_493\Debug\Node-Beaver_FE3.a(CAN_1_TX_RX_func.o)
 .debug_abbrev  0x0000124b       0x90 .\CortexM3\ARM_GCC_493\Debug\Node-Beaver_FE3.a(LED.o)
 .debug_abbrev  0x000012db      0x1f3 .\CortexM3\ARM_GCC_493\Debug\Node-Beaver_FE3.a(USBUART_1.o)
 .debug_abbrev  0x000014ce      0x233 .\CortexM3\ARM_GCC_493\Debug\Node-Beaver_FE3.a(USBUART_1_cdc.o)
 .debug_abbrev  0x00001701      0x161 .\CortexM3\ARM_GCC_493\Debug\Node-Beaver_FE3.a(USBUART_1_drv.o)
 .debug_abbrev  0x00001862       0xfd .\CortexM3\ARM_GCC_493\Debug\Node-Beaver_FE3.a(USBUART_1_episr.o)
 .debug_abbrev  0x0000195f       0xd1 .\CortexM3\ARM_GCC_493\Debug\Node-Beaver_FE3.a(USBUART_1_pm.o)
 .debug_abbrev  0x00001a30      0x1c2 .\CortexM3\ARM_GCC_493\Debug\Node-Beaver_FE3.a(USBUART_1_std.o)
 .debug_abbrev  0x00001bf2       0xc5 .\CortexM3\ARM_GCC_493\Debug\Node-Beaver_FE3.a(USBUART_1_vnd.o)
 .debug_abbrev  0x00001cb7       0x90 .\CortexM3\ARM_GCC_493\Debug\Node-Beaver_FE3.a(USBUART_1_Dp.o)
 .debug_abbrev  0x00001d47      0x178 .\CortexM3\ARM_GCC_493\Debug\Node-Beaver_FE3.a(power_isr.o)
 .debug_abbrev  0x00001ebf       0xe2 .\CortexM3\ARM_GCC_493\Debug\Node-Beaver_FE3.a(rtc_i2c.o)
 .debug_abbrev  0x00001fa1       0x81 .\CortexM3\ARM_GCC_493\Debug\Node-Beaver_FE3.a(rtc_i2c_INT.o)
 .debug_abbrev  0x00002022       0xf8 .\CortexM3\ARM_GCC_493\Debug\Node-Beaver_FE3.a(rtc_i2c_PM.o)
 .debug_abbrev  0x0000211a      0x11e .\CortexM3\ARM_GCC_493\Debug\Node-Beaver_FE3.a(rtc_i2c_MASTER.o)
 .debug_abbrev  0x00002238      0x172 .\CortexM3\ARM_GCC_493\Debug\Node-Beaver_FE3.a(time_refresh_isr.o)
 .debug_abbrev  0x000023aa      0x11b .\CortexM3\ARM_GCC_493\Debug\Node-Beaver_FE3.a(millis_timer.o)
 .debug_abbrev  0x000024c5      0x135 .\CortexM3\ARM_GCC_493\Debug\Node-Beaver_FE3.a(time_refresh_timer.o)
 .debug_abbrev  0x000025fa      0x184 .\CortexM3\ARM_GCC_493\Debug\Node-Beaver_FE3.a(xbee_spi.o)
 .debug_abbrev  0x0000277e       0xa2 .\CortexM3\ARM_GCC_493\Debug\Node-Beaver_FE3.a(xbee_spi_INT.o)
 .debug_abbrev  0x00002820      0x11d .\CortexM3\ARM_GCC_493\Debug\Node-Beaver_FE3.a(xbee_spi_IntClock.o)
 .debug_abbrev  0x0000293d      0x146 .\CortexM3\ARM_GCC_493\Debug\Node-Beaver_FE3.a(power_comp.o)
 .debug_abbrev  0x00002a83      0x135 .\CortexM3\ARM_GCC_493\Debug\Node-Beaver_FE3.a(sd_timer.o)
 .debug_abbrev  0x00002bb8      0x172 .\CortexM3\ARM_GCC_493\Debug\Node-Beaver_FE3.a(sd_isr.o)
 .debug_abbrev  0x00002d2a       0x14 .\CortexM3\ARM_GCC_493\Debug\Node-Beaver_FE3.a(CyBootAsmGnu.o)
 .debug_abbrev  0x00002d3e      0x13c .\CortexM3\ARM_GCC_493\Debug\Node-Beaver_FE3.a(CyFlash.o)
 .debug_abbrev  0x00002e7a      0x16c .\CortexM3\ARM_GCC_493\Debug\Node-Beaver_FE3.a(CySpc.o)
 .debug_abbrev  0x00002fe6       0x7f .\CortexM3\ARM_GCC_493\Debug\Node-Beaver_FE3.a(cyutils.o)
 .debug_abbrev  0x00003065       0xc5 .\CortexM3\ARM_GCC_493\Debug\Node-Beaver_FE3.a(USBUART_1_cls.o)
 .debug_abbrev  0x0000312a       0xb4 .\CortexM3\ARM_GCC_493\Debug\Node-Beaver_FE3.a(USBUART_1_descr.o)
 .debug_abbrev  0x000031de      0x101 .\CortexM3\ARM_GCC_493\Debug\Node-Beaver_FE3.a(emFile_1_ConfigMMC_SPI.o)
 .debug_abbrev  0x000032df      0x12c .\CortexM3\ARM_GCC_493\Debug\Node-Beaver_FE3.a(emFile_1_MMC_HW_SPI.o)
 .debug_abbrev  0x0000340b      0x156 .\CortexM3\ARM_GCC_493\Debug\Node-Beaver_FE3.a(emFile_1_SPI0.o)
 .debug_abbrev  0x00003561      0x11d .\CortexM3\ARM_GCC_493\Debug\Node-Beaver_FE3.a(emFile_1_Clock_1.o)
 .debug_abbrev  0x0000367e       0x90 .\CortexM3\ARM_GCC_493\Debug\Node-Beaver_FE3.a(emFile_1_SPI0_CS.o)

.debug_line     0x00000000     0x56d4
 *(.debug_line)
 .debug_line    0x00000000      0x170 .\CortexM3\ARM_GCC_493\Debug\main.o
 .debug_line    0x00000170      0x2be .\CortexM3\ARM_GCC_493\Debug\can_manager.o
 .debug_line    0x0000042e      0x34a .\CortexM3\ARM_GCC_493\Debug\sd_manager.o
 .debug_line    0x00000778      0x1a3 .\CortexM3\ARM_GCC_493\Debug\usb_manager.o
 .debug_line    0x0000091b      0x2ed .\CortexM3\ARM_GCC_493\Debug\radio_manager.o
 .debug_line    0x00000c08      0x214 .\CortexM3\ARM_GCC_493\Debug\time_manager.o
 .debug_line    0x00000e1c       0x51 .\CortexM3\ARM_GCC_493\Debug\cymetadata.o
 .debug_line    0x00000e6d      0x1d4 .\CortexM3\ARM_GCC_493\Debug\Cm3Start.o
 .debug_line    0x00001041      0x1f4 .\CortexM3\ARM_GCC_493\Debug\Node-Beaver_FE3.a(cyfitter_cfg.o)
 .debug_line    0x00001235      0x882 .\CortexM3\ARM_GCC_493\Debug\Node-Beaver_FE3.a(CyLib.o)
 .debug_line    0x00001ab7      0x37f .\CortexM3\ARM_GCC_493\Debug\Node-Beaver_FE3.a(cyPm.o)
 .debug_line    0x00001e36      0x348 .\CortexM3\ARM_GCC_493\Debug\Node-Beaver_FE3.a(CAN_1.o)
 .debug_line    0x0000217e       0xa1 .\CortexM3\ARM_GCC_493\Debug\Node-Beaver_FE3.a(CAN_1_INT.o)
 .debug_line    0x0000221f      0x22e .\CortexM3\ARM_GCC_493\Debug\Node-Beaver_FE3.a(CAN_1_TX_RX_func.o)
 .debug_line    0x0000244d       0x92 .\CortexM3\ARM_GCC_493\Debug\Node-Beaver_FE3.a(LED.o)
 .debug_line    0x000024df      0x30c .\CortexM3\ARM_GCC_493\Debug\Node-Beaver_FE3.a(USBUART_1.o)
 .debug_line    0x000027eb      0x312 .\CortexM3\ARM_GCC_493\Debug\Node-Beaver_FE3.a(USBUART_1_cdc.o)
 .debug_line    0x00002afd      0x21e .\CortexM3\ARM_GCC_493\Debug\Node-Beaver_FE3.a(USBUART_1_drv.o)
 .debug_line    0x00002d1b       0xf8 .\CortexM3\ARM_GCC_493\Debug\Node-Beaver_FE3.a(USBUART_1_episr.o)
 .debug_line    0x00002e13       0xea .\CortexM3\ARM_GCC_493\Debug\Node-Beaver_FE3.a(USBUART_1_pm.o)
 .debug_line    0x00002efd      0x45c .\CortexM3\ARM_GCC_493\Debug\Node-Beaver_FE3.a(USBUART_1_std.o)
 .debug_line    0x00003359       0x95 .\CortexM3\ARM_GCC_493\Debug\Node-Beaver_FE3.a(USBUART_1_vnd.o)
 .debug_line    0x000033ee       0xc0 .\CortexM3\ARM_GCC_493\Debug\Node-Beaver_FE3.a(USBUART_1_Dp.o)
 .debug_line    0x000034ae      0x251 .\CortexM3\ARM_GCC_493\Debug\Node-Beaver_FE3.a(power_isr.o)
 .debug_line    0x000036ff       0xe1 .\CortexM3\ARM_GCC_493\Debug\Node-Beaver_FE3.a(rtc_i2c.o)
 .debug_line    0x000037e0      0x11a .\CortexM3\ARM_GCC_493\Debug\Node-Beaver_FE3.a(rtc_i2c_INT.o)
 .debug_line    0x000038fa       0xc0 .\CortexM3\ARM_GCC_493\Debug\Node-Beaver_FE3.a(rtc_i2c_PM.o)
 .debug_line    0x000039ba      0x1ef .\CortexM3\ARM_GCC_493\Debug\Node-Beaver_FE3.a(rtc_i2c_MASTER.o)
 .debug_line    0x00003ba9      0x15b .\CortexM3\ARM_GCC_493\Debug\Node-Beaver_FE3.a(time_refresh_isr.o)
 .debug_line    0x00003d04      0x175 .\CortexM3\ARM_GCC_493\Debug\Node-Beaver_FE3.a(millis_timer.o)
 .debug_line    0x00003e79      0x17b .\CortexM3\ARM_GCC_493\Debug\Node-Beaver_FE3.a(time_refresh_timer.o)
 .debug_line    0x00003ff4      0x28f .\CortexM3\ARM_GCC_493\Debug\Node-Beaver_FE3.a(xbee_spi.o)
 .debug_line    0x00004283       0x9e .\CortexM3\ARM_GCC_493\Debug\Node-Beaver_FE3.a(xbee_spi_INT.o)
 .debug_line    0x00004321      0x1ac .\CortexM3\ARM_GCC_493\Debug\Node-Beaver_FE3.a(xbee_spi_IntClock.o)
 .debug_line    0x000044cd      0x16f .\CortexM3\ARM_GCC_493\Debug\Node-Beaver_FE3.a(power_comp.o)
 .debug_line    0x0000463c      0x171 .\CortexM3\ARM_GCC_493\Debug\Node-Beaver_FE3.a(sd_timer.o)
 .debug_line    0x000047ad      0x151 .\CortexM3\ARM_GCC_493\Debug\Node-Beaver_FE3.a(sd_isr.o)
 .debug_line    0x000048fe       0x66 .\CortexM3\ARM_GCC_493\Debug\Node-Beaver_FE3.a(CyBootAsmGnu.o)
 .debug_line    0x00004964      0x205 .\CortexM3\ARM_GCC_493\Debug\Node-Beaver_FE3.a(CyFlash.o)
 .debug_line    0x00004b69      0x215 .\CortexM3\ARM_GCC_493\Debug\Node-Beaver_FE3.a(CySpc.o)
 .debug_line    0x00004d7e       0x62 .\CortexM3\ARM_GCC_493\Debug\Node-Beaver_FE3.a(cyutils.o)
 .debug_line    0x00004de0       0x9b .\CortexM3\ARM_GCC_493\Debug\Node-Beaver_FE3.a(USBUART_1_cls.o)
 .debug_line    0x00004e7b       0x65 .\CortexM3\ARM_GCC_493\Debug\Node-Beaver_FE3.a(USBUART_1_descr.o)
 .debug_line    0x00004ee0       0xb7 .\CortexM3\ARM_GCC_493\Debug\Node-Beaver_FE3.a(emFile_1_ConfigMMC_SPI.o)
 .debug_line    0x00004f97      0x28a .\CortexM3\ARM_GCC_493\Debug\Node-Beaver_FE3.a(emFile_1_MMC_HW_SPI.o)
 .debug_line    0x00005221      0x269 .\CortexM3\ARM_GCC_493\Debug\Node-Beaver_FE3.a(emFile_1_SPI0.o)
 .debug_line    0x0000548a      0x1ab .\CortexM3\ARM_GCC_493\Debug\Node-Beaver_FE3.a(emFile_1_Clock_1.o)
 .debug_line    0x00005635       0x9f .\CortexM3\ARM_GCC_493\Debug\Node-Beaver_FE3.a(emFile_1_SPI0_CS.o)

.debug_frame    0x00000000     0x51c8
 *(.debug_frame)
 .debug_frame   0x00000000       0x58 .\CortexM3\ARM_GCC_493\Debug\main.o
 .debug_frame   0x00000058       0xf4 .\CortexM3\ARM_GCC_493\Debug\can_manager.o
 .debug_frame   0x0000014c      0x178 .\CortexM3\ARM_GCC_493\Debug\sd_manager.o
 .debug_frame   0x000002c4       0xa4 .\CortexM3\ARM_GCC_493\Debug\usb_manager.o
 .debug_frame   0x00000368      0x124 .\CortexM3\ARM_GCC_493\Debug\radio_manager.o
 .debug_frame   0x0000048c      0x10c .\CortexM3\ARM_GCC_493\Debug\time_manager.o
 .debug_frame   0x00000598       0xd8 .\CortexM3\ARM_GCC_493\Debug\Cm3Start.o
 .debug_frame   0x00000670      0x16c .\CortexM3\ARM_GCC_493\Debug\Node-Beaver_FE3.a(cyfitter_cfg.o)
 .debug_frame   0x000007dc      0xc0c .\CortexM3\ARM_GCC_493\Debug\Node-Beaver_FE3.a(CyLib.o)
 .debug_frame   0x000013e8      0x234 .\CortexM3\ARM_GCC_493\Debug\Node-Beaver_FE3.a(cyPm.o)
 .debug_frame   0x0000161c      0x374 .\CortexM3\ARM_GCC_493\Debug\Node-Beaver_FE3.a(CAN_1.o)
 .debug_frame   0x00001990       0x54 .\CortexM3\ARM_GCC_493\Debug\Node-Beaver_FE3.a(CAN_1_INT.o)
 .debug_frame   0x000019e4       0x88 .\CortexM3\ARM_GCC_493\Debug\Node-Beaver_FE3.a(CAN_1_TX_RX_func.o)
 .debug_frame   0x00001a6c       0xa8 .\CortexM3\ARM_GCC_493\Debug\Node-Beaver_FE3.a(LED.o)
 .debug_frame   0x00001b14      0x37c .\CortexM3\ARM_GCC_493\Debug\Node-Beaver_FE3.a(USBUART_1.o)
 .debug_frame   0x00001e90      0x3ec .\CortexM3\ARM_GCC_493\Debug\Node-Beaver_FE3.a(USBUART_1_cdc.o)
 .debug_frame   0x0000227c      0x23c .\CortexM3\ARM_GCC_493\Debug\Node-Beaver_FE3.a(USBUART_1_drv.o)
 .debug_frame   0x000024b8       0xbc .\CortexM3\ARM_GCC_493\Debug\Node-Beaver_FE3.a(USBUART_1_episr.o)
 .debug_frame   0x00002574       0xbc .\CortexM3\ARM_GCC_493\Debug\Node-Beaver_FE3.a(USBUART_1_pm.o)
 .debug_frame   0x00002630      0x224 .\CortexM3\ARM_GCC_493\Debug\Node-Beaver_FE3.a(USBUART_1_std.o)
 .debug_frame   0x00002854       0x38 .\CortexM3\ARM_GCC_493\Debug\Node-Beaver_FE3.a(USBUART_1_vnd.o)
 .debug_frame   0x0000288c       0xf4 .\CortexM3\ARM_GCC_493\Debug\Node-Beaver_FE3.a(USBUART_1_Dp.o)
 .debug_frame   0x00002980      0x1e0 .\CortexM3\ARM_GCC_493\Debug\Node-Beaver_FE3.a(power_isr.o)
 .debug_frame   0x00002b60       0x98 .\CortexM3\ARM_GCC_493\Debug\Node-Beaver_FE3.a(rtc_i2c.o)
 .debug_frame   0x00002bf8       0x38 .\CortexM3\ARM_GCC_493\Debug\Node-Beaver_FE3.a(rtc_i2c_INT.o)
 .debug_frame   0x00002c30       0x94 .\CortexM3\ARM_GCC_493\Debug\Node-Beaver_FE3.a(rtc_i2c_PM.o)
 .debug_frame   0x00002cc4      0x208 .\CortexM3\ARM_GCC_493\Debug\Node-Beaver_FE3.a(rtc_i2c_MASTER.o)
 .debug_frame   0x00002ecc      0x1e8 .\CortexM3\ARM_GCC_493\Debug\Node-Beaver_FE3.a(time_refresh_isr.o)
 .debug_frame   0x000030b4      0x230 .\CortexM3\ARM_GCC_493\Debug\Node-Beaver_FE3.a(millis_timer.o)
 .debug_frame   0x000032e4      0x230 .\CortexM3\ARM_GCC_493\Debug\Node-Beaver_FE3.a(time_refresh_timer.o)
 .debug_frame   0x00003514      0x38c .\CortexM3\ARM_GCC_493\Debug\Node-Beaver_FE3.a(xbee_spi.o)
 .debug_frame   0x000038a0       0x5c .\CortexM3\ARM_GCC_493\Debug\Node-Beaver_FE3.a(xbee_spi_INT.o)
 .debug_frame   0x000038fc      0x1b4 .\CortexM3\ARM_GCC_493\Debug\Node-Beaver_FE3.a(xbee_spi_IntClock.o)
 .debug_frame   0x00003ab0      0x19c .\CortexM3\ARM_GCC_493\Debug\Node-Beaver_FE3.a(power_comp.o)
 .debug_frame   0x00003c4c      0x230 .\CortexM3\ARM_GCC_493\Debug\Node-Beaver_FE3.a(sd_timer.o)
 .debug_frame   0x00003e7c      0x1e8 .\CortexM3\ARM_GCC_493\Debug\Node-Beaver_FE3.a(sd_isr.o)
 .debug_frame   0x00004064      0x210 .\CortexM3\ARM_GCC_493\Debug\Node-Beaver_FE3.a(CyFlash.o)
 .debug_frame   0x00004274      0x1f8 .\CortexM3\ARM_GCC_493\Debug\Node-Beaver_FE3.a(CySpc.o)
 .debug_frame   0x0000446c       0x38 .\CortexM3\ARM_GCC_493\Debug\Node-Beaver_FE3.a(cyutils.o)
 .debug_frame   0x000044a4       0x38 .\CortexM3\ARM_GCC_493\Debug\Node-Beaver_FE3.a(USBUART_1_cls.o)
 .debug_frame   0x000044dc       0x54 .\CortexM3\ARM_GCC_493\Debug\Node-Beaver_FE3.a(emFile_1_ConfigMMC_SPI.o)
 .debug_frame   0x00004530      0x1a0 .\CortexM3\ARM_GCC_493\Debug\Node-Beaver_FE3.a(emFile_1_MMC_HW_SPI.o)
 .debug_frame   0x000046d0      0x38c .\CortexM3\ARM_GCC_493\Debug\Node-Beaver_FE3.a(emFile_1_SPI0.o)
 .debug_frame   0x00004a5c      0x1b4 .\CortexM3\ARM_GCC_493\Debug\Node-Beaver_FE3.a(emFile_1_Clock_1.o)
 .debug_frame   0x00004c10       0xa8 .\CortexM3\ARM_GCC_493\Debug\Node-Beaver_FE3.a(emFile_1_SPI0_CS.o)
 .debug_frame   0x00004cb8       0x30 d:/programming/cypress/psoc creator/4.0/psoc creator/import/gnu/arm/4.9.3/bin/../lib/gcc/arm-none-eabi/4.9.3/../../../../arm-none-eabi/lib/armv7-m\libg_nano.a(lib_a-atoi.o)
 .debug_frame   0x00004ce8       0x20 d:/programming/cypress/psoc creator/4.0/psoc creator/import/gnu/arm/4.9.3/bin/../lib/gcc/arm-none-eabi/4.9.3/../../../../arm-none-eabi/lib/armv7-m\libg_nano.a(lib_a-errno.o)
 .debug_frame   0x00004d08       0x28 d:/programming/cypress/psoc creator/4.0/psoc creator/import/gnu/arm/4.9.3/bin/../lib/gcc/arm-none-eabi/4.9.3/../../../../arm-none-eabi/lib/armv7-m\libg_nano.a(lib_a-exit.o)
 .debug_frame   0x00004d30       0x2c d:/programming/cypress/psoc creator/4.0/psoc creator/import/gnu/arm/4.9.3/bin/../lib/gcc/arm-none-eabi/4.9.3/../../../../arm-none-eabi/lib/armv7-m\libg_nano.a(lib_a-init.o)
 .debug_frame   0x00004d5c       0x28 d:/programming/cypress/psoc creator/4.0/psoc creator/import/gnu/arm/4.9.3/bin/../lib/gcc/arm-none-eabi/4.9.3/../../../../arm-none-eabi/lib/armv7-m\libg_nano.a(lib_a-memcmp.o)
 .debug_frame   0x00004d84       0x28 d:/programming/cypress/psoc creator/4.0/psoc creator/import/gnu/arm/4.9.3/bin/../lib/gcc/arm-none-eabi/4.9.3/../../../../arm-none-eabi/lib/armv7-m\libg_nano.a(lib_a-memcpy.o)
 .debug_frame   0x00004dac       0x20 d:/programming/cypress/psoc creator/4.0/psoc creator/import/gnu/arm/4.9.3/bin/../lib/gcc/arm-none-eabi/4.9.3/../../../../arm-none-eabi/lib/armv7-m\libg_nano.a(lib_a-memset.o)
 .debug_frame   0x00004dcc       0x70 d:/programming/cypress/psoc creator/4.0/psoc creator/import/gnu/arm/4.9.3/bin/../lib/gcc/arm-none-eabi/4.9.3/../../../../arm-none-eabi/lib/armv7-m\libg_nano.a(lib_a-sprintf.o)
 .debug_frame   0x00004e3c       0x20 d:/programming/cypress/psoc creator/4.0/psoc creator/import/gnu/arm/4.9.3/bin/../lib/gcc/arm-none-eabi/4.9.3/../../../../arm-none-eabi/lib/armv7-m\libg_nano.a(lib_a-strlen.o)
 .debug_frame   0x00004e5c       0x38 d:/programming/cypress/psoc creator/4.0/psoc creator/import/gnu/arm/4.9.3/bin/../lib/gcc/arm-none-eabi/4.9.3/../../../../arm-none-eabi/lib/armv7-m\libg_nano.a(lib_a-strtok.o)
 .debug_frame   0x00004e94       0x40 d:/programming/cypress/psoc creator/4.0/psoc creator/import/gnu/arm/4.9.3/bin/../lib/gcc/arm-none-eabi/4.9.3/../../../../arm-none-eabi/lib/armv7-m\libg_nano.a(lib_a-strtok_r.o)
 .debug_frame   0x00004ed4       0x54 d:/programming/cypress/psoc creator/4.0/psoc creator/import/gnu/arm/4.9.3/bin/../lib/gcc/arm-none-eabi/4.9.3/../../../../arm-none-eabi/lib/armv7-m\libg_nano.a(lib_a-strtol.o)
 .debug_frame   0x00004f28       0x30 d:/programming/cypress/psoc creator/4.0/psoc creator/import/gnu/arm/4.9.3/bin/../lib/gcc/arm-none-eabi/4.9.3/../../../../arm-none-eabi/lib/armv7-m\libg_nano.a(lib_a-malloc.o)
 .debug_frame   0x00004f58       0x2c d:/programming/cypress/psoc creator/4.0/psoc creator/import/gnu/arm/4.9.3/bin/../lib/gcc/arm-none-eabi/4.9.3/../../../../arm-none-eabi/lib/armv7-m\libg_nano.a(lib_a-nano-freer.o)
 .debug_frame   0x00004f84       0x2c d:/programming/cypress/psoc creator/4.0/psoc creator/import/gnu/arm/4.9.3/bin/../lib/gcc/arm-none-eabi/4.9.3/../../../../arm-none-eabi/lib/armv7-m\libg_nano.a(lib_a-nano-mallocr.o)
 .debug_frame   0x00004fb0       0x8c d:/programming/cypress/psoc creator/4.0/psoc creator/import/gnu/arm/4.9.3/bin/../lib/gcc/arm-none-eabi/4.9.3/../../../../arm-none-eabi/lib/armv7-m\libg_nano.a(lib_a-nano-svfprintf.o)
 .debug_frame   0x0000503c       0x58 d:/programming/cypress/psoc creator/4.0/psoc creator/import/gnu/arm/4.9.3/bin/../lib/gcc/arm-none-eabi/4.9.3/../../../../arm-none-eabi/lib/armv7-m\libg_nano.a(lib_a-nano-vfprintf_i.o)
 .debug_frame   0x00005094       0x2c d:/programming/cypress/psoc creator/4.0/psoc creator/import/gnu/arm/4.9.3/bin/../lib/gcc/arm-none-eabi/4.9.3/../../../../arm-none-eabi/lib/armv7-m\libg_nano.a(lib_a-sbrkr.o)
 .debug_frame   0x000050c0       0x28 d:/programming/cypress/psoc creator/4.0/psoc creator/import/gnu/arm/4.9.3/bin/../lib/gcc/arm-none-eabi/4.9.3/../../../../arm-none-eabi/lib/armv7-m\libg_nano.a(lib_a-memchr.o)
 .debug_frame   0x000050e8       0x28 d:/programming/cypress/psoc creator/4.0/psoc creator/import/gnu/arm/4.9.3/bin/../lib/gcc/arm-none-eabi/4.9.3/../../../../arm-none-eabi/lib/armv7-m\libg_nano.a(lib_a-memmove.o)
 .debug_frame   0x00005110       0x3c d:/programming/cypress/psoc creator/4.0/psoc creator/import/gnu/arm/4.9.3/bin/../lib/gcc/arm-none-eabi/4.9.3/../../../../arm-none-eabi/lib/armv7-m\libg_nano.a(lib_a-nano-reallocr.o)
 .debug_frame   0x0000514c       0x5c d:/programming/cypress/psoc creator/4.0/psoc creator/import/gnu/arm/4.9.3/bin/../lib/gcc/arm-none-eabi/4.9.3/../../../../arm-none-eabi/lib/armv7-m\libg_nano.a(lib_a-reent.o)
 .debug_frame   0x000051a8       0x20 d:/programming/cypress/psoc creator/4.0/psoc creator/import/gnu/arm/4.9.3/bin/../lib/gcc/arm-none-eabi/4.9.3/../../../../arm-none-eabi/lib/armv7-m\libg_nano.a(lib_a-nano-msizer.o)

.debug_str      0x00000000     0x481a
 *(.debug_str)
 .debug_str     0x00000000      0x1a7 .\CortexM3\ARM_GCC_493\Debug\main.o
                                0x207 (size before relaxing)
 .debug_str     0x000001a7      0x11e .\CortexM3\ARM_GCC_493\Debug\can_manager.o
                                0x31c (size before relaxing)
 .debug_str     0x000002c5      0x16a .\CortexM3\ARM_GCC_493\Debug\sd_manager.o
                                0x36a (size before relaxing)
 .debug_str     0x0000042f       0x5e .\CortexM3\ARM_GCC_493\Debug\usb_manager.o
                                0x259 (size before relaxing)
 .debug_str     0x0000048d       0x97 .\CortexM3\ARM_GCC_493\Debug\radio_manager.o
                                0x29a (size before relaxing)
 .debug_str     0x00000524       0x68 .\CortexM3\ARM_GCC_493\Debug\time_manager.o
                                0x29e (size before relaxing)
 .debug_str     0x0000058c       0x75 .\CortexM3\ARM_GCC_493\Debug\cymetadata.o
                                0x1ed (size before relaxing)
 .debug_str     0x00000601      0x12a .\CortexM3\ARM_GCC_493\Debug\Cm3Start.o
                                0x2ce (size before relaxing)
 .debug_str     0x0000072b      0x155 .\CortexM3\ARM_GCC_493\Debug\Node-Beaver_FE3.a(cyfitter_cfg.o)
                                0x2fa (size before relaxing)
 .debug_str     0x00000880      0x7f7 .\CortexM3\ARM_GCC_493\Debug\Node-Beaver_FE3.a(CyLib.o)
                                0x9e1 (size before relaxing)
 .debug_str     0x00001077      0x365 .\CortexM3\ARM_GCC_493\Debug\Node-Beaver_FE3.a(cyPm.o)
                                0x52e (size before relaxing)
 .debug_str     0x000013dc      0x31c .\CortexM3\ARM_GCC_493\Debug\Node-Beaver_FE3.a(CAN_1.o)
                                0x4cb (size before relaxing)
 .debug_str     0x000016f8       0x50 .\CortexM3\ARM_GCC_493\Debug\Node-Beaver_FE3.a(CAN_1_INT.o)
                                0x239 (size before relaxing)
 .debug_str     0x00001748       0x85 .\CortexM3\ARM_GCC_493\Debug\Node-Beaver_FE3.a(CAN_1_TX_RX_func.o)
                                0x34c (size before relaxing)
 .debug_str     0x000017cd       0x5c .\CortexM3\ARM_GCC_493\Debug\Node-Beaver_FE3.a(LED.o)
                                0x1db (size before relaxing)
 .debug_str     0x00001829      0x459 .\CortexM3\ARM_GCC_493\Debug\Node-Beaver_FE3.a(USBUART_1.o)
                                0x630 (size before relaxing)
 .debug_str     0x00001c82      0x528 .\CortexM3\ARM_GCC_493\Debug\Node-Beaver_FE3.a(USBUART_1_cdc.o)
                                0x76b (size before relaxing)
 .debug_str     0x000021aa      0x2c6 .\CortexM3\ARM_GCC_493\Debug\Node-Beaver_FE3.a(USBUART_1_drv.o)
                                0x63f (size before relaxing)
 .debug_str     0x00002470       0x8c .\CortexM3\ARM_GCC_493\Debug\Node-Beaver_FE3.a(USBUART_1_episr.o)
                                0x2d2 (size before relaxing)
 .debug_str     0x000024fc       0xbc .\CortexM3\ARM_GCC_493\Debug\Node-Beaver_FE3.a(USBUART_1_pm.o)
                                0x274 (size before relaxing)
 .debug_str     0x000025b8      0x2dc .\CortexM3\ARM_GCC_493\Debug\Node-Beaver_FE3.a(USBUART_1_std.o)
                                0x7a5 (size before relaxing)
 .debug_str     0x00002894       0x65 .\CortexM3\ARM_GCC_493\Debug\Node-Beaver_FE3.a(USBUART_1_vnd.o)
                                0x27c (size before relaxing)
 .debug_str     0x000028f9       0xc1 .\CortexM3\ARM_GCC_493\Debug\Node-Beaver_FE3.a(USBUART_1_Dp.o)
                                0x252 (size before relaxing)
 .debug_str     0x000029ba      0x11e .\CortexM3\ARM_GCC_493\Debug\Node-Beaver_FE3.a(power_isr.o)
                                0x2f4 (size before relaxing)
 .debug_str     0x00002ad8      0x102 .\CortexM3\ARM_GCC_493\Debug\Node-Beaver_FE3.a(rtc_i2c.o)
                                0x2ad (size before relaxing)
 .debug_str     0x00002bda       0xa2 .\CortexM3\ARM_GCC_493\Debug\Node-Beaver_FE3.a(rtc_i2c_INT.o)
                                0x27b (size before relaxing)
 .debug_str     0x00002c7c       0x6a .\CortexM3\ARM_GCC_493\Debug\Node-Beaver_FE3.a(rtc_i2c_PM.o)
                                0x24f (size before relaxing)
 .debug_str     0x00002ce6      0x1a8 .\CortexM3\ARM_GCC_493\Debug\Node-Beaver_FE3.a(rtc_i2c_MASTER.o)
                                0x3f7 (size before relaxing)
 .debug_str     0x00002e8e      0x180 .\CortexM3\ARM_GCC_493\Debug\Node-Beaver_FE3.a(time_refresh_isr.o)
                                0x337 (size before relaxing)
 .debug_str     0x0000300e      0x1f1 .\CortexM3\ARM_GCC_493\Debug\Node-Beaver_FE3.a(millis_timer.o)
                                0x383 (size before relaxing)
 .debug_str     0x000031ff      0x240 .\CortexM3\ARM_GCC_493\Debug\Node-Beaver_FE3.a(time_refresh_timer.o)
                                0x3ef (size before relaxing)
 .debug_str     0x0000343f      0x2d4 .\CortexM3\ARM_GCC_493\Debug\Node-Beaver_FE3.a(xbee_spi.o)
                                0x49c (size before relaxing)
 .debug_str     0x00003713       0x46 .\CortexM3\ARM_GCC_493\Debug\Node-Beaver_FE3.a(xbee_spi_INT.o)
                                0x236 (size before relaxing)
 .debug_str     0x00003759      0x1da .\CortexM3\ARM_GCC_493\Debug\Node-Beaver_FE3.a(xbee_spi_IntClock.o)
                                0x369 (size before relaxing)
 .debug_str     0x00003933      0x16e .\CortexM3\ARM_GCC_493\Debug\Node-Beaver_FE3.a(power_comp.o)
                                0x2f9 (size before relaxing)
 .debug_str     0x00003aa1      0x18c .\CortexM3\ARM_GCC_493\Debug\Node-Beaver_FE3.a(sd_timer.o)
                                0x33b (size before relaxing)
 .debug_str     0x00003c2d       0xf4 .\CortexM3\ARM_GCC_493\Debug\Node-Beaver_FE3.a(sd_isr.o)
                                0x2ab (size before relaxing)
 .debug_str     0x00003d21      0x13e .\CortexM3\ARM_GCC_493\Debug\Node-Beaver_FE3.a(CyFlash.o)
                                0x2ed (size before relaxing)
 .debug_str     0x00003e5f      0x11f .\CortexM3\ARM_GCC_493\Debug\Node-Beaver_FE3.a(CySpc.o)
                                0x2ea (size before relaxing)
 .debug_str     0x00003f7e       0x34 .\CortexM3\ARM_GCC_493\Debug\Node-Beaver_FE3.a(cyutils.o)
                                0x1b5 (size before relaxing)
 .debug_str     0x00003fb2       0x43 .\CortexM3\ARM_GCC_493\Debug\Node-Beaver_FE3.a(USBUART_1_cls.o)
                                0x292 (size before relaxing)
 .debug_str     0x00003ff5      0x112 .\CortexM3\ARM_GCC_493\Debug\Node-Beaver_FE3.a(USBUART_1_descr.o)
                                0x3a7 (size before relaxing)
 .debug_str     0x00004107       0xd1 .\CortexM3\ARM_GCC_493\Debug\Node-Beaver_FE3.a(emFile_1_ConfigMMC_SPI.o)
                                0x253 (size before relaxing)
 .debug_str     0x000041d8      0x14e .\CortexM3\ARM_GCC_493\Debug\Node-Beaver_FE3.a(emFile_1_MMC_HW_SPI.o)
                                0x2fc (size before relaxing)
 .debug_str     0x00004326      0x2df .\CortexM3\ARM_GCC_493\Debug\Node-Beaver_FE3.a(emFile_1_SPI0.o)
                                0x4ab (size before relaxing)
 .debug_str     0x00004605      0x183 .\CortexM3\ARM_GCC_493\Debug\Node-Beaver_FE3.a(emFile_1_Clock_1.o)
                                0x35d (size before relaxing)
 .debug_str     0x00004788       0x92 .\CortexM3\ARM_GCC_493\Debug\Node-Beaver_FE3.a(emFile_1_SPI0_CS.o)
                                0x21c (size before relaxing)

.debug_loc
 *(.debug_loc)

.debug_macinfo
 *(.debug_macinfo)

.debug_ranges   0x00000000     0x1120
 *(.debug_ranges)
 .debug_ranges  0x00000000       0x18 .\CortexM3\ARM_GCC_493\Debug\main.o
 .debug_ranges  0x00000018       0x38 .\CortexM3\ARM_GCC_493\Debug\can_manager.o
 .debug_ranges  0x00000050       0x50 .\CortexM3\ARM_GCC_493\Debug\sd_manager.o
 .debug_ranges  0x000000a0       0x28 .\CortexM3\ARM_GCC_493\Debug\usb_manager.o
 .debug_ranges  0x000000c8       0x40 .\CortexM3\ARM_GCC_493\Debug\radio_manager.o
 .debug_ranges  0x00000108       0x38 .\CortexM3\ARM_GCC_493\Debug\time_manager.o
 .debug_ranges  0x00000140       0x38 .\CortexM3\ARM_GCC_493\Debug\Cm3Start.o
 .debug_ranges  0x00000178       0x50 .\CortexM3\ARM_GCC_493\Debug\Node-Beaver_FE3.a(cyfitter_cfg.o)
 .debug_ranges  0x000001c8      0x290 .\CortexM3\ARM_GCC_493\Debug\Node-Beaver_FE3.a(CyLib.o)
 .debug_ranges  0x00000458       0x88 .\CortexM3\ARM_GCC_493\Debug\Node-Beaver_FE3.a(cyPm.o)
 .debug_ranges  0x000004e0       0xb8 .\CortexM3\ARM_GCC_493\Debug\Node-Beaver_FE3.a(CAN_1.o)
 .debug_ranges  0x00000598       0x18 .\CortexM3\ARM_GCC_493\Debug\Node-Beaver_FE3.a(CAN_1_INT.o)
 .debug_ranges  0x000005b0       0x20 .\CortexM3\ARM_GCC_493\Debug\Node-Beaver_FE3.a(CAN_1_TX_RX_func.o)
 .debug_ranges  0x000005d0       0x28 .\CortexM3\ARM_GCC_493\Debug\Node-Beaver_FE3.a(LED.o)
 .debug_ranges  0x000005f8       0xb8 .\CortexM3\ARM_GCC_493\Debug\Node-Beaver_FE3.a(USBUART_1.o)
 .debug_ranges  0x000006b0       0xd8 .\CortexM3\ARM_GCC_493\Debug\Node-Beaver_FE3.a(USBUART_1_cdc.o)
 .debug_ranges  0x00000788       0x88 .\CortexM3\ARM_GCC_493\Debug\Node-Beaver_FE3.a(USBUART_1_drv.o)
 .debug_ranges  0x00000810       0x30 .\CortexM3\ARM_GCC_493\Debug\Node-Beaver_FE3.a(USBUART_1_episr.o)
 .debug_ranges  0x00000840       0x30 .\CortexM3\ARM_GCC_493\Debug\Node-Beaver_FE3.a(USBUART_1_pm.o)
 .debug_ranges  0x00000870       0x70 .\CortexM3\ARM_GCC_493\Debug\Node-Beaver_FE3.a(USBUART_1_std.o)
 .debug_ranges  0x000008e0       0x10 .\CortexM3\ARM_GCC_493\Debug\Node-Beaver_FE3.a(USBUART_1_vnd.o)
 .debug_ranges  0x000008f0       0x38 .\CortexM3\ARM_GCC_493\Debug\Node-Beaver_FE3.a(USBUART_1_Dp.o)
 .debug_ranges  0x00000928       0x70 .\CortexM3\ARM_GCC_493\Debug\Node-Beaver_FE3.a(power_isr.o)
 .debug_ranges  0x00000998       0x28 .\CortexM3\ARM_GCC_493\Debug\Node-Beaver_FE3.a(rtc_i2c.o)
 .debug_ranges  0x000009c0       0x10 .\CortexM3\ARM_GCC_493\Debug\Node-Beaver_FE3.a(rtc_i2c_INT.o)
 .debug_ranges  0x000009d0       0x28 .\CortexM3\ARM_GCC_493\Debug\Node-Beaver_FE3.a(rtc_i2c_PM.o)
 .debug_ranges  0x000009f8       0x70 .\CortexM3\ARM_GCC_493\Debug\Node-Beaver_FE3.a(rtc_i2c_MASTER.o)
 .debug_ranges  0x00000a68       0x70 .\CortexM3\ARM_GCC_493\Debug\Node-Beaver_FE3.a(time_refresh_isr.o)
 .debug_ranges  0x00000ad8       0x80 .\CortexM3\ARM_GCC_493\Debug\Node-Beaver_FE3.a(millis_timer.o)
 .debug_ranges  0x00000b58       0x80 .\CortexM3\ARM_GCC_493\Debug\Node-Beaver_FE3.a(time_refresh_timer.o)
 .debug_ranges  0x00000bd8       0xc8 .\CortexM3\ARM_GCC_493\Debug\Node-Beaver_FE3.a(xbee_spi.o)
 .debug_ranges  0x00000ca0       0x18 .\CortexM3\ARM_GCC_493\Debug\Node-Beaver_FE3.a(xbee_spi_INT.o)
 .debug_ranges  0x00000cb8       0x60 .\CortexM3\ARM_GCC_493\Debug\Node-Beaver_FE3.a(xbee_spi_IntClock.o)
 .debug_ranges  0x00000d18       0x60 .\CortexM3\ARM_GCC_493\Debug\Node-Beaver_FE3.a(power_comp.o)
 .debug_ranges  0x00000d78       0x80 .\CortexM3\ARM_GCC_493\Debug\Node-Beaver_FE3.a(sd_timer.o)
 .debug_ranges  0x00000df8       0x70 .\CortexM3\ARM_GCC_493\Debug\Node-Beaver_FE3.a(sd_isr.o)
 .debug_ranges  0x00000e68       0x70 .\CortexM3\ARM_GCC_493\Debug\Node-Beaver_FE3.a(CyFlash.o)
 .debug_ranges  0x00000ed8       0x68 .\CortexM3\ARM_GCC_493\Debug\Node-Beaver_FE3.a(CySpc.o)
 .debug_ranges  0x00000f40       0x10 .\CortexM3\ARM_GCC_493\Debug\Node-Beaver_FE3.a(cyutils.o)
 .debug_ranges  0x00000f50       0x10 .\CortexM3\ARM_GCC_493\Debug\Node-Beaver_FE3.a(USBUART_1_cls.o)
 .debug_ranges  0x00000f60       0x18 .\CortexM3\ARM_GCC_493\Debug\Node-Beaver_FE3.a(emFile_1_ConfigMMC_SPI.o)
 .debug_ranges  0x00000f78       0x58 .\CortexM3\ARM_GCC_493\Debug\Node-Beaver_FE3.a(emFile_1_MMC_HW_SPI.o)
 .debug_ranges  0x00000fd0       0xc8 .\CortexM3\ARM_GCC_493\Debug\Node-Beaver_FE3.a(emFile_1_SPI0.o)
 .debug_ranges  0x00001098       0x60 .\CortexM3\ARM_GCC_493\Debug\Node-Beaver_FE3.a(emFile_1_Clock_1.o)
 .debug_ranges  0x000010f8       0x28 .\CortexM3\ARM_GCC_493\Debug\Node-Beaver_FE3.a(emFile_1_SPI0_CS.o)

.comment        0x00000000      0x4ce
 .comment       0x00000000       0x70 .\CortexM3\ARM_GCC_493\Debug\main.o
                                 0x71 (size before relaxing)
 .comment       0x00000000       0x71 .\CortexM3\ARM_GCC_493\Debug\can_manager.o
 .comment       0x00000000       0x71 .\CortexM3\ARM_GCC_493\Debug\sd_manager.o
 .comment       0x00000000       0x71 .\CortexM3\ARM_GCC_493\Debug\usb_manager.o
 .comment       0x00000000       0x71 .\CortexM3\ARM_GCC_493\Debug\radio_manager.o
 .comment       0x00000000       0x71 .\CortexM3\ARM_GCC_493\Debug\time_manager.o
 .comment       0x00000000       0x71 .\CortexM3\ARM_GCC_493\Debug\cymetadata.o
 .comment       0x00000000       0x71 .\CortexM3\ARM_GCC_493\Debug\Cm3Start.o
 .comment       0x00000000       0x71 .\CortexM3\ARM_GCC_493\Debug\Node-Beaver_FE3.a(cyfitter_cfg.o)
 .comment       0x00000000       0x71 .\CortexM3\ARM_GCC_493\Debug\Node-Beaver_FE3.a(CyLib.o)
 .comment       0x00000000       0x71 .\CortexM3\ARM_GCC_493\Debug\Node-Beaver_FE3.a(cyPm.o)
 .comment       0x00000000       0x71 .\CortexM3\ARM_GCC_493\Debug\Node-Beaver_FE3.a(CAN_1.o)
 .comment       0x00000000       0x71 .\CortexM3\ARM_GCC_493\Debug\Node-Beaver_FE3.a(CAN_1_INT.o)
 .comment       0x00000000       0x71 .\CortexM3\ARM_GCC_493\Debug\Node-Beaver_FE3.a(CAN_1_TX_RX_func.o)
 .comment       0x00000000       0x71 .\CortexM3\ARM_GCC_493\Debug\Node-Beaver_FE3.a(LED.o)
 .comment       0x00000000       0x71 .\CortexM3\ARM_GCC_493\Debug\Node-Beaver_FE3.a(USBUART_1.o)
 .comment       0x00000000       0x71 .\CortexM3\ARM_GCC_493\Debug\Node-Beaver_FE3.a(USBUART_1_cdc.o)
 .comment       0x00000000       0x71 .\CortexM3\ARM_GCC_493\Debug\Node-Beaver_FE3.a(USBUART_1_drv.o)
 .comment       0x00000000       0x71 .\CortexM3\ARM_GCC_493\Debug\Node-Beaver_FE3.a(USBUART_1_episr.o)
 .comment       0x00000000       0x71 .\CortexM3\ARM_GCC_493\Debug\Node-Beaver_FE3.a(USBUART_1_pm.o)
 .comment       0x00000000       0x71 .\CortexM3\ARM_GCC_493\Debug\Node-Beaver_FE3.a(USBUART_1_std.o)
 .comment       0x00000000       0x71 .\CortexM3\ARM_GCC_493\Debug\Node-Beaver_FE3.a(USBUART_1_vnd.o)
 .comment       0x00000000       0x71 .\CortexM3\ARM_GCC_493\Debug\Node-Beaver_FE3.a(USBUART_1_Dp.o)
 .comment       0x00000000       0x71 .\CortexM3\ARM_GCC_493\Debug\Node-Beaver_FE3.a(power_isr.o)
 .comment       0x00000000       0x71 .\CortexM3\ARM_GCC_493\Debug\Node-Beaver_FE3.a(rtc_i2c.o)
 .comment       0x00000000       0x71 .\CortexM3\ARM_GCC_493\Debug\Node-Beaver_FE3.a(rtc_i2c_INT.o)
 .comment       0x00000000       0x71 .\CortexM3\ARM_GCC_493\Debug\Node-Beaver_FE3.a(rtc_i2c_PM.o)
 .comment       0x00000000       0x71 .\CortexM3\ARM_GCC_493\Debug\Node-Beaver_FE3.a(rtc_i2c_MASTER.o)
 .comment       0x00000000       0x71 .\CortexM3\ARM_GCC_493\Debug\Node-Beaver_FE3.a(time_refresh_isr.o)
 .comment       0x00000000       0x71 .\CortexM3\ARM_GCC_493\Debug\Node-Beaver_FE3.a(millis_timer.o)
 .comment       0x00000000       0x71 .\CortexM3\ARM_GCC_493\Debug\Node-Beaver_FE3.a(time_refresh_timer.o)
 .comment       0x00000000       0x71 .\CortexM3\ARM_GCC_493\Debug\Node-Beaver_FE3.a(xbee_spi.o)
 .comment       0x00000000       0x71 .\CortexM3\ARM_GCC_493\Debug\Node-Beaver_FE3.a(xbee_spi_INT.o)
 .comment       0x00000000       0x71 .\CortexM3\ARM_GCC_493\Debug\Node-Beaver_FE3.a(xbee_spi_IntClock.o)
 .comment       0x00000000       0x71 .\CortexM3\ARM_GCC_493\Debug\Node-Beaver_FE3.a(power_comp.o)
 .comment       0x00000000       0x71 .\CortexM3\ARM_GCC_493\Debug\Node-Beaver_FE3.a(sd_timer.o)
 .comment       0x00000000       0x71 .\CortexM3\ARM_GCC_493\Debug\Node-Beaver_FE3.a(sd_isr.o)
 .comment       0x00000000       0x71 .\CortexM3\ARM_GCC_493\Debug\Node-Beaver_FE3.a(CyFlash.o)
 .comment       0x00000000       0x71 .\CortexM3\ARM_GCC_493\Debug\Node-Beaver_FE3.a(CySpc.o)
 .comment       0x00000000       0x71 .\CortexM3\ARM_GCC_493\Debug\Node-Beaver_FE3.a(cyutils.o)
 .comment       0x00000000       0x71 .\CortexM3\ARM_GCC_493\Debug\Node-Beaver_FE3.a(USBUART_1_cls.o)
 .comment       0x00000000       0x71 .\CortexM3\ARM_GCC_493\Debug\Node-Beaver_FE3.a(USBUART_1_descr.o)
 .comment       0x00000070       0x2b .\emFile_V322c\LinkLibrary\PSoC5\GCC\libemf16noslfn.a(FAT_LFN.o)
 .comment       0x0000009b       0x2b .\emFile_V322c\LinkLibrary\PSoC5\GCC\libemf16noslfn.a(FAT_Misc.o)
 .comment       0x000000c6       0x2b .\emFile_V322c\LinkLibrary\PSoC5\GCC\libemf16noslfn.a(FAT_Open.o)
 .comment       0x000000f1       0x2b .\emFile_V322c\LinkLibrary\PSoC5\GCC\libemf16noslfn.a(FAT_Write.o)
 .comment       0x0000011c       0x2b .\emFile_V322c\LinkLibrary\PSoC5\GCC\libemf16noslfn.a(FS_Attrib.o)
 .comment       0x00000147       0x2b .\emFile_V322c\LinkLibrary\PSoC5\GCC\libemf16noslfn.a(FS_CLib.o)
 .comment       0x00000172       0x2b .\emFile_V322c\LinkLibrary\PSoC5\GCC\libemf16noslfn.a(FS_Core.o)
 .comment       0x0000019d       0x2b .\emFile_V322c\LinkLibrary\PSoC5\GCC\libemf16noslfn.a(FS_Dir.o)
 .comment       0x000001c8       0x2b .\emFile_V322c\LinkLibrary\PSoC5\GCC\libemf16noslfn.a(FS_LogBlock.o)
 .comment       0x000001f3       0x2b .\emFile_V322c\LinkLibrary\PSoC5\GCC\libemf16noslfn.a(FS_memcpy.o)
 .comment       0x0000021e       0x2b .\emFile_V322c\LinkLibrary\PSoC5\GCC\libemf16noslfn.a(FS_Misc.o)
 .comment       0x00000249       0x2b .\emFile_V322c\LinkLibrary\PSoC5\GCC\libemf16noslfn.a(FS_Read.o)
 .comment       0x00000274       0x2b .\emFile_V322c\LinkLibrary\PSoC5\GCC\libemf16noslfn.a(FS_Storage.o)
 .comment       0x0000029f       0x2b .\emFile_V322c\LinkLibrary\PSoC5\GCC\libemf16noslfn.a(FS_Time.o)
 .comment       0x000002ca       0x2b .\emFile_V322c\LinkLibrary\PSoC5\GCC\libemf16noslfn.a(FS_Unmount.o)
 .comment       0x000002f5       0x2b .\emFile_V322c\LinkLibrary\PSoC5\GCC\libemf16noslfn.a(FS_Volume.o)
 .comment       0x00000320       0x2b .\emFile_V322c\LinkLibrary\PSoC5\GCC\libemf16noslfn.a(FS_Write.o)
 .comment       0x0000034b       0x2b .\emFile_V322c\LinkLibrary\PSoC5\GCC\libemf16noslfn.a(FAT_CheckDisk.o)
 .comment       0x00000376       0x2b .\emFile_V322c\LinkLibrary\PSoC5\GCC\libemf16noslfn.a(FAT_Dir.o)
 .comment       0x000003a1       0x2b .\emFile_V322c\LinkLibrary\PSoC5\GCC\libemf16noslfn.a(FAT_DirEntry.o)
 .comment       0x000003cc       0x2b .\emFile_V322c\LinkLibrary\PSoC5\GCC\libemf16noslfn.a(FAT_DiskInfo.o)
 .comment       0x000003f7       0x2b .\emFile_V322c\LinkLibrary\PSoC5\GCC\libemf16noslfn.a(FAT_Read.o)
 .comment       0x00000422       0x2b .\emFile_V322c\LinkLibrary\PSoC5\GCC\libemf16noslfn.a(FAT_VolumeLabel.o)
 .comment       0x0000044d       0x2b .\emFile_V322c\LinkLibrary\PSoC5\GCC\libemf16noslfn.a(FS_Partition.o)
 .comment       0x00000000       0x71 .\CortexM3\ARM_GCC_493\Debug\Node-Beaver_FE3.a(emFile_1_ConfigMMC_SPI.o)
 .comment       0x00000478       0x2b .\emFile_V322c\LinkLibrary\PSoC5\GCC\libemf16noslfn.a(MMC_Drv.o)
 .comment       0x000004a3       0x2b .\emFile_V322c\LinkLibrary\PSoC5\GCC\libemf16noslfn.a(FS_CRC16.o)
 .comment       0x00000000       0x71 .\CortexM3\ARM_GCC_493\Debug\Node-Beaver_FE3.a(emFile_1_MMC_HW_SPI.o)
 .comment       0x00000000       0x71 .\CortexM3\ARM_GCC_493\Debug\Node-Beaver_FE3.a(emFile_1_SPI0.o)
 .comment       0x00000000       0x71 .\CortexM3\ARM_GCC_493\Debug\Node-Beaver_FE3.a(emFile_1_Clock_1.o)
 .comment       0x00000000       0x71 .\CortexM3\ARM_GCC_493\Debug\Node-Beaver_FE3.a(emFile_1_SPI0_CS.o)

.debug_weaknames
 *(.debug_weaknames)

.debug_funcnames
 *(.debug_funcnames)

.debug_typenames
 *(.debug_typenames)

.debug_varnames
 *(.debug_varnames)

.note.gnu.arm.ident
 *(.note.gnu.arm.ident)

.ARM.attributes
                0x00000000       0x29
 *(.ARM.attributes)
 .ARM.attributes
                0x00000000       0x1d d:/programming/cypress/psoc creator/4.0/psoc creator/import/gnu/arm/4.9.3/bin/../lib/gcc/arm-none-eabi/4.9.3/armv7-m/crti.o
 .ARM.attributes
                0x0000001d       0x2d d:/programming/cypress/psoc creator/4.0/psoc creator/import/gnu/arm/4.9.3/bin/../lib/gcc/arm-none-eabi/4.9.3/armv7-m/crtbegin.o
 .ARM.attributes
                0x0000004a       0x1b d:/programming/cypress/psoc creator/4.0/psoc creator/import/gnu/arm/4.9.3/bin/../lib/gcc/arm-none-eabi/4.9.3/../../../../arm-none-eabi/lib/armv7-m/crt0.o
 .ARM.attributes
                0x00000065       0x33 .\CortexM3\ARM_GCC_493\Debug\main.o
 .ARM.attributes
                0x00000098       0x33 .\CortexM3\ARM_GCC_493\Debug\can_manager.o
 .ARM.attributes
                0x000000cb       0x33 .\CortexM3\ARM_GCC_493\Debug\sd_manager.o
 .ARM.attributes
                0x000000fe       0x33 .\CortexM3\ARM_GCC_493\Debug\usb_manager.o
 .ARM.attributes
                0x00000131       0x33 .\CortexM3\ARM_GCC_493\Debug\radio_manager.o
 .ARM.attributes
                0x00000164       0x33 .\CortexM3\ARM_GCC_493\Debug\time_manager.o
 .ARM.attributes
                0x00000197       0x33 .\CortexM3\ARM_GCC_493\Debug\cymetadata.o
 .ARM.attributes
                0x000001ca       0x33 .\CortexM3\ARM_GCC_493\Debug\Cm3Start.o
 .ARM.attributes
                0x000001fd       0x33 .\CortexM3\ARM_GCC_493\Debug\Node-Beaver_FE3.a(cyfitter_cfg.o)
 .ARM.attributes
                0x00000230       0x33 .\CortexM3\ARM_GCC_493\Debug\Node-Beaver_FE3.a(CyLib.o)
 .ARM.attributes
                0x00000263       0x33 .\CortexM3\ARM_GCC_493\Debug\Node-Beaver_FE3.a(cyPm.o)
 .ARM.attributes
                0x00000296       0x33 .\CortexM3\ARM_GCC_493\Debug\Node-Beaver_FE3.a(CAN_1.o)
 .ARM.attributes
                0x000002c9       0x33 .\CortexM3\ARM_GCC_493\Debug\Node-Beaver_FE3.a(CAN_1_INT.o)
 .ARM.attributes
                0x000002fc       0x33 .\CortexM3\ARM_GCC_493\Debug\Node-Beaver_FE3.a(CAN_1_TX_RX_func.o)
 .ARM.attributes
                0x0000032f       0x33 .\CortexM3\ARM_GCC_493\Debug\Node-Beaver_FE3.a(LED.o)
 .ARM.attributes
                0x00000362       0x33 .\CortexM3\ARM_GCC_493\Debug\Node-Beaver_FE3.a(USBUART_1.o)
 .ARM.attributes
                0x00000395       0x33 .\CortexM3\ARM_GCC_493\Debug\Node-Beaver_FE3.a(USBUART_1_cdc.o)
 .ARM.attributes
                0x000003c8       0x33 .\CortexM3\ARM_GCC_493\Debug\Node-Beaver_FE3.a(USBUART_1_drv.o)
 .ARM.attributes
                0x000003fb       0x33 .\CortexM3\ARM_GCC_493\Debug\Node-Beaver_FE3.a(USBUART_1_episr.o)
 .ARM.attributes
                0x0000042e       0x33 .\CortexM3\ARM_GCC_493\Debug\Node-Beaver_FE3.a(USBUART_1_pm.o)
 .ARM.attributes
                0x00000461       0x33 .\CortexM3\ARM_GCC_493\Debug\Node-Beaver_FE3.a(USBUART_1_std.o)
 .ARM.attributes
                0x00000494       0x33 .\CortexM3\ARM_GCC_493\Debug\Node-Beaver_FE3.a(USBUART_1_vnd.o)
 .ARM.attributes
                0x000004c7       0x33 .\CortexM3\ARM_GCC_493\Debug\Node-Beaver_FE3.a(USBUART_1_Dp.o)
 .ARM.attributes
                0x000004fa       0x33 .\CortexM3\ARM_GCC_493\Debug\Node-Beaver_FE3.a(power_isr.o)
 .ARM.attributes
                0x0000052d       0x33 .\CortexM3\ARM_GCC_493\Debug\Node-Beaver_FE3.a(rtc_i2c.o)
 .ARM.attributes
                0x00000560       0x33 .\CortexM3\ARM_GCC_493\Debug\Node-Beaver_FE3.a(rtc_i2c_INT.o)
 .ARM.attributes
                0x00000593       0x33 .\CortexM3\ARM_GCC_493\Debug\Node-Beaver_FE3.a(rtc_i2c_PM.o)
 .ARM.attributes
                0x000005c6       0x33 .\CortexM3\ARM_GCC_493\Debug\Node-Beaver_FE3.a(rtc_i2c_MASTER.o)
 .ARM.attributes
                0x000005f9       0x33 .\CortexM3\ARM_GCC_493\Debug\Node-Beaver_FE3.a(time_refresh_isr.o)
 .ARM.attributes
                0x0000062c       0x33 .\CortexM3\ARM_GCC_493\Debug\Node-Beaver_FE3.a(millis_timer.o)
 .ARM.attributes
                0x0000065f       0x33 .\CortexM3\ARM_GCC_493\Debug\Node-Beaver_FE3.a(time_refresh_timer.o)
 .ARM.attributes
                0x00000692       0x33 .\CortexM3\ARM_GCC_493\Debug\Node-Beaver_FE3.a(xbee_spi.o)
 .ARM.attributes
                0x000006c5       0x33 .\CortexM3\ARM_GCC_493\Debug\Node-Beaver_FE3.a(xbee_spi_INT.o)
 .ARM.attributes
                0x000006f8       0x33 .\CortexM3\ARM_GCC_493\Debug\Node-Beaver_FE3.a(xbee_spi_IntClock.o)
 .ARM.attributes
                0x0000072b       0x33 .\CortexM3\ARM_GCC_493\Debug\Node-Beaver_FE3.a(power_comp.o)
 .ARM.attributes
                0x0000075e       0x33 .\CortexM3\ARM_GCC_493\Debug\Node-Beaver_FE3.a(sd_timer.o)
 .ARM.attributes
                0x00000791       0x33 .\CortexM3\ARM_GCC_493\Debug\Node-Beaver_FE3.a(sd_isr.o)
 .ARM.attributes
                0x000007c4       0x21 .\CortexM3\ARM_GCC_493\Debug\Node-Beaver_FE3.a(CyBootAsmGnu.o)
 .ARM.attributes
                0x000007e5       0x33 .\CortexM3\ARM_GCC_493\Debug\Node-Beaver_FE3.a(CyFlash.o)
 .ARM.attributes
                0x00000818       0x33 .\CortexM3\ARM_GCC_493\Debug\Node-Beaver_FE3.a(CySpc.o)
 .ARM.attributes
                0x0000084b       0x33 .\CortexM3\ARM_GCC_493\Debug\Node-Beaver_FE3.a(cyutils.o)
 .ARM.attributes
                0x0000087e       0x33 .\CortexM3\ARM_GCC_493\Debug\Node-Beaver_FE3.a(USBUART_1_cls.o)
 .ARM.attributes
                0x000008b1       0x33 .\CortexM3\ARM_GCC_493\Debug\Node-Beaver_FE3.a(USBUART_1_descr.o)
 .ARM.attributes
                0x000008e4       0x31 .\emFile_V322c\LinkLibrary\PSoC5\GCC\libemf16noslfn.a(FAT_LFN.o)
 .ARM.attributes
                0x00000915       0x31 .\emFile_V322c\LinkLibrary\PSoC5\GCC\libemf16noslfn.a(FAT_Misc.o)
 .ARM.attributes
                0x00000946       0x31 .\emFile_V322c\LinkLibrary\PSoC5\GCC\libemf16noslfn.a(FAT_Open.o)
 .ARM.attributes
                0x00000977       0x31 .\emFile_V322c\LinkLibrary\PSoC5\GCC\libemf16noslfn.a(FAT_Write.o)
 .ARM.attributes
                0x000009a8       0x31 .\emFile_V322c\LinkLibrary\PSoC5\GCC\libemf16noslfn.a(FS_Attrib.o)
 .ARM.attributes
                0x000009d9       0x31 .\emFile_V322c\LinkLibrary\PSoC5\GCC\libemf16noslfn.a(FS_CLib.o)
 .ARM.attributes
                0x00000a0a       0x31 .\emFile_V322c\LinkLibrary\PSoC5\GCC\libemf16noslfn.a(FS_Core.o)
 .ARM.attributes
                0x00000a3b       0x31 .\emFile_V322c\LinkLibrary\PSoC5\GCC\libemf16noslfn.a(FS_Dir.o)
 .ARM.attributes
                0x00000a6c       0x31 .\emFile_V322c\LinkLibrary\PSoC5\GCC\libemf16noslfn.a(FS_LogBlock.o)
 .ARM.attributes
                0x00000a9d       0x31 .\emFile_V322c\LinkLibrary\PSoC5\GCC\libemf16noslfn.a(FS_memcpy.o)
 .ARM.attributes
                0x00000ace       0x31 .\emFile_V322c\LinkLibrary\PSoC5\GCC\libemf16noslfn.a(FS_Misc.o)
 .ARM.attributes
                0x00000aff       0x31 .\emFile_V322c\LinkLibrary\PSoC5\GCC\libemf16noslfn.a(FS_Read.o)
 .ARM.attributes
                0x00000b30       0x31 .\emFile_V322c\LinkLibrary\PSoC5\GCC\libemf16noslfn.a(FS_Storage.o)
 .ARM.attributes
                0x00000b61       0x31 .\emFile_V322c\LinkLibrary\PSoC5\GCC\libemf16noslfn.a(FS_Time.o)
 .ARM.attributes
                0x00000b92       0x31 .\emFile_V322c\LinkLibrary\PSoC5\GCC\libemf16noslfn.a(FS_Unmount.o)
 .ARM.attributes
                0x00000bc3       0x31 .\emFile_V322c\LinkLibrary\PSoC5\GCC\libemf16noslfn.a(FS_Volume.o)
 .ARM.attributes
                0x00000bf4       0x31 .\emFile_V322c\LinkLibrary\PSoC5\GCC\libemf16noslfn.a(FS_Write.o)
 .ARM.attributes
                0x00000c25       0x31 .\emFile_V322c\LinkLibrary\PSoC5\GCC\libemf16noslfn.a(FAT_CheckDisk.o)
 .ARM.attributes
                0x00000c56       0x31 .\emFile_V322c\LinkLibrary\PSoC5\GCC\libemf16noslfn.a(FAT_Dir.o)
 .ARM.attributes
                0x00000c87       0x31 .\emFile_V322c\LinkLibrary\PSoC5\GCC\libemf16noslfn.a(FAT_DirEntry.o)
 .ARM.attributes
                0x00000cb8       0x31 .\emFile_V322c\LinkLibrary\PSoC5\GCC\libemf16noslfn.a(FAT_DiskInfo.o)
 .ARM.attributes
                0x00000ce9       0x31 .\emFile_V322c\LinkLibrary\PSoC5\GCC\libemf16noslfn.a(FAT_Read.o)
 .ARM.attributes
                0x00000d1a       0x31 .\emFile_V322c\LinkLibrary\PSoC5\GCC\libemf16noslfn.a(FAT_VolumeLabel.o)
 .ARM.attributes
                0x00000d4b       0x31 .\emFile_V322c\LinkLibrary\PSoC5\GCC\libemf16noslfn.a(FS_Partition.o)
 .ARM.attributes
                0x00000d7c       0x33 .\CortexM3\ARM_GCC_493\Debug\Node-Beaver_FE3.a(emFile_1_ConfigMMC_SPI.o)
 .ARM.attributes
                0x00000daf       0x31 .\emFile_V322c\LinkLibrary\PSoC5\GCC\libemf16noslfn.a(MMC_Drv.o)
 .ARM.attributes
                0x00000de0       0x31 .\emFile_V322c\LinkLibrary\PSoC5\GCC\libemf16noslfn.a(FS_CRC16.o)
 .ARM.attributes
                0x00000e11       0x33 .\CortexM3\ARM_GCC_493\Debug\Node-Beaver_FE3.a(emFile_1_MMC_HW_SPI.o)
 .ARM.attributes
                0x00000e44       0x33 .\CortexM3\ARM_GCC_493\Debug\Node-Beaver_FE3.a(emFile_1_SPI0.o)
 .ARM.attributes
                0x00000e77       0x33 .\CortexM3\ARM_GCC_493\Debug\Node-Beaver_FE3.a(emFile_1_Clock_1.o)
 .ARM.attributes
                0x00000eaa       0x33 .\CortexM3\ARM_GCC_493\Debug\Node-Beaver_FE3.a(emFile_1_SPI0_CS.o)
 .ARM.attributes
                0x00000edd       0x2d d:/programming/cypress/psoc creator/4.0/psoc creator/import/gnu/arm/4.9.3/bin/../lib/gcc/arm-none-eabi/4.9.3/../../../../arm-none-eabi/lib/armv7-m\libg_nano.a(lib_a-atoi.o)
 .ARM.attributes
                0x00000f0a       0x2d d:/programming/cypress/psoc creator/4.0/psoc creator/import/gnu/arm/4.9.3/bin/../lib/gcc/arm-none-eabi/4.9.3/../../../../arm-none-eabi/lib/armv7-m\libg_nano.a(lib_a-errno.o)
 .ARM.attributes
                0x00000f37       0x2d d:/programming/cypress/psoc creator/4.0/psoc creator/import/gnu/arm/4.9.3/bin/../lib/gcc/arm-none-eabi/4.9.3/../../../../arm-none-eabi/lib/armv7-m\libg_nano.a(lib_a-exit.o)
 .ARM.attributes
                0x00000f64       0x2d d:/programming/cypress/psoc creator/4.0/psoc creator/import/gnu/arm/4.9.3/bin/../lib/gcc/arm-none-eabi/4.9.3/../../../../arm-none-eabi/lib/armv7-m\libg_nano.a(lib_a-impure.o)
 .ARM.attributes
                0x00000f91       0x2d d:/programming/cypress/psoc creator/4.0/psoc creator/import/gnu/arm/4.9.3/bin/../lib/gcc/arm-none-eabi/4.9.3/../../../../arm-none-eabi/lib/armv7-m\libg_nano.a(lib_a-init.o)
 .ARM.attributes
                0x00000fbe       0x2d d:/programming/cypress/psoc creator/4.0/psoc creator/import/gnu/arm/4.9.3/bin/../lib/gcc/arm-none-eabi/4.9.3/../../../../arm-none-eabi/lib/armv7-m\libg_nano.a(lib_a-memcmp.o)
 .ARM.attributes
                0x00000feb       0x2d d:/programming/cypress/psoc creator/4.0/psoc creator/import/gnu/arm/4.9.3/bin/../lib/gcc/arm-none-eabi/4.9.3/../../../../arm-none-eabi/lib/armv7-m\libg_nano.a(lib_a-memcpy.o)
 .ARM.attributes
                0x00001018       0x2d d:/programming/cypress/psoc creator/4.0/psoc creator/import/gnu/arm/4.9.3/bin/../lib/gcc/arm-none-eabi/4.9.3/../../../../arm-none-eabi/lib/armv7-m\libg_nano.a(lib_a-memset.o)
 .ARM.attributes
                0x00001045       0x2d d:/programming/cypress/psoc creator/4.0/psoc creator/import/gnu/arm/4.9.3/bin/../lib/gcc/arm-none-eabi/4.9.3/../../../../arm-none-eabi/lib/armv7-m\libg_nano.a(lib_a-sprintf.o)
 .ARM.attributes
                0x00001072       0x2d d:/programming/cypress/psoc creator/4.0/psoc creator/import/gnu/arm/4.9.3/bin/../lib/gcc/arm-none-eabi/4.9.3/../../../../arm-none-eabi/lib/armv7-m\libg_nano.a(lib_a-strlen.o)
 .ARM.attributes
                0x0000109f       0x2d d:/programming/cypress/psoc creator/4.0/psoc creator/import/gnu/arm/4.9.3/bin/../lib/gcc/arm-none-eabi/4.9.3/../../../../arm-none-eabi/lib/armv7-m\libg_nano.a(lib_a-strtok.o)
 .ARM.attributes
                0x000010cc       0x2d d:/programming/cypress/psoc creator/4.0/psoc creator/import/gnu/arm/4.9.3/bin/../lib/gcc/arm-none-eabi/4.9.3/../../../../arm-none-eabi/lib/armv7-m\libg_nano.a(lib_a-strtok_r.o)
 .ARM.attributes
                0x000010f9       0x2d d:/programming/cypress/psoc creator/4.0/psoc creator/import/gnu/arm/4.9.3/bin/../lib/gcc/arm-none-eabi/4.9.3/../../../../arm-none-eabi/lib/armv7-m\libg_nano.a(lib_a-strtol.o)
 .ARM.attributes
                0x00001126       0x2d d:/programming/cypress/psoc creator/4.0/psoc creator/import/gnu/arm/4.9.3/bin/../lib/gcc/arm-none-eabi/4.9.3/../../../../arm-none-eabi/lib/armv7-m\libg_nano.a(lib_a-ctype_.o)
 .ARM.attributes
                0x00001153       0x2d d:/programming/cypress/psoc creator/4.0/psoc creator/import/gnu/arm/4.9.3/bin/../lib/gcc/arm-none-eabi/4.9.3/../../../../arm-none-eabi/lib/armv7-m\libg_nano.a(lib_a-malloc.o)
 .ARM.attributes
                0x00001180       0x2d d:/programming/cypress/psoc creator/4.0/psoc creator/import/gnu/arm/4.9.3/bin/../lib/gcc/arm-none-eabi/4.9.3/../../../../arm-none-eabi/lib/armv7-m\libg_nano.a(lib_a-nano-freer.o)
 .ARM.attributes
                0x000011ad       0x2d d:/programming/cypress/psoc creator/4.0/psoc creator/import/gnu/arm/4.9.3/bin/../lib/gcc/arm-none-eabi/4.9.3/../../../../arm-none-eabi/lib/armv7-m\libg_nano.a(lib_a-nano-mallocr.o)
 .ARM.attributes
                0x000011da       0x2d d:/programming/cypress/psoc creator/4.0/psoc creator/import/gnu/arm/4.9.3/bin/../lib/gcc/arm-none-eabi/4.9.3/../../../../arm-none-eabi/lib/armv7-m\libg_nano.a(lib_a-nano-svfprintf.o)
 .ARM.attributes
                0x00001207       0x2d d:/programming/cypress/psoc creator/4.0/psoc creator/import/gnu/arm/4.9.3/bin/../lib/gcc/arm-none-eabi/4.9.3/../../../../arm-none-eabi/lib/armv7-m\libg_nano.a(lib_a-nano-vfprintf_i.o)
 .ARM.attributes
                0x00001234       0x2d d:/programming/cypress/psoc creator/4.0/psoc creator/import/gnu/arm/4.9.3/bin/../lib/gcc/arm-none-eabi/4.9.3/../../../../arm-none-eabi/lib/armv7-m\libg_nano.a(lib_a-sbrkr.o)
 .ARM.attributes
                0x00001261       0x2d d:/programming/cypress/psoc creator/4.0/psoc creator/import/gnu/arm/4.9.3/bin/../lib/gcc/arm-none-eabi/4.9.3/../../../../arm-none-eabi/lib/armv7-m\libg_nano.a(lib_a-memchr.o)
 .ARM.attributes
                0x0000128e       0x2d d:/programming/cypress/psoc creator/4.0/psoc creator/import/gnu/arm/4.9.3/bin/../lib/gcc/arm-none-eabi/4.9.3/../../../../arm-none-eabi/lib/armv7-m\libg_nano.a(lib_a-memmove.o)
 .ARM.attributes
                0x000012bb       0x2d d:/programming/cypress/psoc creator/4.0/psoc creator/import/gnu/arm/4.9.3/bin/../lib/gcc/arm-none-eabi/4.9.3/../../../../arm-none-eabi/lib/armv7-m\libg_nano.a(lib_a-nano-reallocr.o)
 .ARM.attributes
                0x000012e8       0x2d d:/programming/cypress/psoc creator/4.0/psoc creator/import/gnu/arm/4.9.3/bin/../lib/gcc/arm-none-eabi/4.9.3/../../../../arm-none-eabi/lib/armv7-m\libg_nano.a(lib_a-reent.o)
 .ARM.attributes
                0x00001315       0x2d d:/programming/cypress/psoc creator/4.0/psoc creator/import/gnu/arm/4.9.3/bin/../lib/gcc/arm-none-eabi/4.9.3/../../../../arm-none-eabi/lib/armv7-m\libg_nano.a(lib_a-nano-msizer.o)
 .ARM.attributes
                0x00001342       0x2d d:/programming/cypress/psoc creator/4.0/psoc creator/import/gnu/arm/4.9.3/bin/../lib/gcc/arm-none-eabi/4.9.3/armv7-m/crtend.o
 .ARM.attributes
                0x0000136f       0x1d d:/programming/cypress/psoc creator/4.0/psoc creator/import/gnu/arm/4.9.3/bin/../lib/gcc/arm-none-eabi/4.9.3/armv7-m/crtn.o

/DISCARD/
 *(.note.GNU-stack)
OUTPUT(.\CortexM3\ARM_GCC_493\Debug\Node-Beaver_FE3.elf elf32-littlearm)
