ARM GAS  D:\Windows\AppData\Local\Temp\ccL68ykg.s 			page 1


   1              		.syntax unified
   2              		.cpu cortex-m3
   3              		.fpu softvfp
   4              		.eabi_attribute 20, 1
   5              		.eabi_attribute 21, 1
   6              		.eabi_attribute 23, 3
   7              		.eabi_attribute 24, 1
   8              		.eabi_attribute 25, 1
   9              		.eabi_attribute 26, 1
  10              		.eabi_attribute 30, 6
  11              		.eabi_attribute 34, 1
  12              		.eabi_attribute 18, 4
  13              		.thumb
  14              		.file	"power_isr.c"
  15              		.text
  16              	.Ltext0:
  17              		.cfi_sections	.debug_frame
  18              		.section	.text.power_isr_Start,"ax",%progbits
  19              		.align	2
  20              		.global	power_isr_Start
  21              		.thumb
  22              		.thumb_func
  23              		.type	power_isr_Start, %function
  24              	power_isr_Start:
  25              	.LFB63:
  26              		.file 1 "Generated_Source\\PSoC5\\power_isr.c"
   1:Generated_Source\PSoC5/power_isr.c **** /*******************************************************************************
   2:Generated_Source\PSoC5/power_isr.c **** * File Name: power_isr.c  
   3:Generated_Source\PSoC5/power_isr.c **** * Version 1.70
   4:Generated_Source\PSoC5/power_isr.c **** *
   5:Generated_Source\PSoC5/power_isr.c **** *  Description:
   6:Generated_Source\PSoC5/power_isr.c **** *   API for controlling the state of an interrupt.
   7:Generated_Source\PSoC5/power_isr.c **** *
   8:Generated_Source\PSoC5/power_isr.c **** *
   9:Generated_Source\PSoC5/power_isr.c **** *  Note:
  10:Generated_Source\PSoC5/power_isr.c **** *
  11:Generated_Source\PSoC5/power_isr.c **** ********************************************************************************
  12:Generated_Source\PSoC5/power_isr.c **** * Copyright 2008-2015, Cypress Semiconductor Corporation.  All rights reserved.
  13:Generated_Source\PSoC5/power_isr.c **** * You may use this file only in accordance with the license, terms, conditions, 
  14:Generated_Source\PSoC5/power_isr.c **** * disclaimers, and limitations in the end user license agreement accompanying 
  15:Generated_Source\PSoC5/power_isr.c **** * the software package with which this file was provided.
  16:Generated_Source\PSoC5/power_isr.c **** *******************************************************************************/
  17:Generated_Source\PSoC5/power_isr.c **** 
  18:Generated_Source\PSoC5/power_isr.c **** 
  19:Generated_Source\PSoC5/power_isr.c **** #include <cydevice_trm.h>
  20:Generated_Source\PSoC5/power_isr.c **** #include <CyLib.h>
  21:Generated_Source\PSoC5/power_isr.c **** #include <power_isr.h>
  22:Generated_Source\PSoC5/power_isr.c **** 
  23:Generated_Source\PSoC5/power_isr.c **** 
  24:Generated_Source\PSoC5/power_isr.c **** #if !defined(power_isr__REMOVED) /* Check for removal by optimization */
  25:Generated_Source\PSoC5/power_isr.c **** 
  26:Generated_Source\PSoC5/power_isr.c **** /*******************************************************************************
  27:Generated_Source\PSoC5/power_isr.c **** *  Place your includes, defines and code here 
  28:Generated_Source\PSoC5/power_isr.c **** ********************************************************************************/
  29:Generated_Source\PSoC5/power_isr.c **** /* `#START power_isr_intc` */
  30:Generated_Source\PSoC5/power_isr.c **** #include "sd_manager.h"
  31:Generated_Source\PSoC5/power_isr.c ****     
ARM GAS  D:\Windows\AppData\Local\Temp\ccL68ykg.s 			page 2


  32:Generated_Source\PSoC5/power_isr.c **** /* `#END` */
  33:Generated_Source\PSoC5/power_isr.c **** 
  34:Generated_Source\PSoC5/power_isr.c **** #ifndef CYINT_IRQ_BASE
  35:Generated_Source\PSoC5/power_isr.c **** #define CYINT_IRQ_BASE      16
  36:Generated_Source\PSoC5/power_isr.c **** #endif /* CYINT_IRQ_BASE */
  37:Generated_Source\PSoC5/power_isr.c **** #ifndef CYINT_VECT_TABLE
  38:Generated_Source\PSoC5/power_isr.c **** #define CYINT_VECT_TABLE    ((cyisraddress **) CYREG_NVIC_VECT_OFFSET)
  39:Generated_Source\PSoC5/power_isr.c **** #endif /* CYINT_VECT_TABLE */
  40:Generated_Source\PSoC5/power_isr.c **** 
  41:Generated_Source\PSoC5/power_isr.c **** /* Declared in startup, used to set unused interrupts to. */
  42:Generated_Source\PSoC5/power_isr.c **** CY_ISR_PROTO(IntDefaultHandler);
  43:Generated_Source\PSoC5/power_isr.c **** 
  44:Generated_Source\PSoC5/power_isr.c **** 
  45:Generated_Source\PSoC5/power_isr.c **** /*******************************************************************************
  46:Generated_Source\PSoC5/power_isr.c **** * Function Name: power_isr_Start
  47:Generated_Source\PSoC5/power_isr.c **** ********************************************************************************
  48:Generated_Source\PSoC5/power_isr.c **** *
  49:Generated_Source\PSoC5/power_isr.c **** * Summary:
  50:Generated_Source\PSoC5/power_isr.c **** *  Set up the interrupt and enable it. This function disables the interrupt, 
  51:Generated_Source\PSoC5/power_isr.c **** *  sets the default interrupt vector, sets the priority from the value in the
  52:Generated_Source\PSoC5/power_isr.c **** *  Design Wide Resources Interrupt Editor, then enables the interrupt to the 
  53:Generated_Source\PSoC5/power_isr.c **** *  interrupt controller.
  54:Generated_Source\PSoC5/power_isr.c **** *
  55:Generated_Source\PSoC5/power_isr.c **** * Parameters:  
  56:Generated_Source\PSoC5/power_isr.c **** *   None
  57:Generated_Source\PSoC5/power_isr.c **** *
  58:Generated_Source\PSoC5/power_isr.c **** * Return:
  59:Generated_Source\PSoC5/power_isr.c **** *   None
  60:Generated_Source\PSoC5/power_isr.c **** *
  61:Generated_Source\PSoC5/power_isr.c **** *******************************************************************************/
  62:Generated_Source\PSoC5/power_isr.c **** void power_isr_Start(void)
  63:Generated_Source\PSoC5/power_isr.c **** {
  27              		.loc 1 63 0
  28              		.cfi_startproc
  29              		@ args = 0, pretend = 0, frame = 0
  30              		@ frame_needed = 1, uses_anonymous_args = 0
  31 0000 80B5     		push	{r7, lr}
  32              		.cfi_def_cfa_offset 8
  33              		.cfi_offset 7, -8
  34              		.cfi_offset 14, -4
  35 0002 00AF     		add	r7, sp, #0
  36              		.cfi_def_cfa_register 7
  64:Generated_Source\PSoC5/power_isr.c ****     /* For all we know the interrupt is active. */
  65:Generated_Source\PSoC5/power_isr.c ****     power_isr_Disable();
  37              		.loc 1 65 0
  38 0004 FFF7FEFF 		bl	power_isr_Disable
  66:Generated_Source\PSoC5/power_isr.c **** 
  67:Generated_Source\PSoC5/power_isr.c ****     /* Set the ISR to point to the power_isr Interrupt. */
  68:Generated_Source\PSoC5/power_isr.c ****     power_isr_SetVector(&power_isr_Interrupt);
  39              		.loc 1 68 0
  40 0008 0448     		ldr	r0, .L2
  41 000a FFF7FEFF 		bl	power_isr_SetVector
  69:Generated_Source\PSoC5/power_isr.c **** 
  70:Generated_Source\PSoC5/power_isr.c ****     /* Set the priority. */
  71:Generated_Source\PSoC5/power_isr.c ****     power_isr_SetPriority((uint8)power_isr_INTC_PRIOR_NUMBER);
  42              		.loc 1 71 0
  43 000e 0720     		movs	r0, #7
ARM GAS  D:\Windows\AppData\Local\Temp\ccL68ykg.s 			page 3


  44 0010 FFF7FEFF 		bl	power_isr_SetPriority
  72:Generated_Source\PSoC5/power_isr.c **** 
  73:Generated_Source\PSoC5/power_isr.c ****     /* Enable it. */
  74:Generated_Source\PSoC5/power_isr.c ****     power_isr_Enable();
  45              		.loc 1 74 0
  46 0014 FFF7FEFF 		bl	power_isr_Enable
  75:Generated_Source\PSoC5/power_isr.c **** }
  47              		.loc 1 75 0
  48 0018 80BD     		pop	{r7, pc}
  49              	.L3:
  50 001a 00BF     		.align	2
  51              	.L2:
  52 001c 00000000 		.word	power_isr_Interrupt
  53              		.cfi_endproc
  54              	.LFE63:
  55              		.size	power_isr_Start, .-power_isr_Start
  56              		.section	.text.power_isr_StartEx,"ax",%progbits
  57              		.align	2
  58              		.global	power_isr_StartEx
  59              		.thumb
  60              		.thumb_func
  61              		.type	power_isr_StartEx, %function
  62              	power_isr_StartEx:
  63              	.LFB64:
  76:Generated_Source\PSoC5/power_isr.c **** 
  77:Generated_Source\PSoC5/power_isr.c **** 
  78:Generated_Source\PSoC5/power_isr.c **** /*******************************************************************************
  79:Generated_Source\PSoC5/power_isr.c **** * Function Name: power_isr_StartEx
  80:Generated_Source\PSoC5/power_isr.c **** ********************************************************************************
  81:Generated_Source\PSoC5/power_isr.c **** *
  82:Generated_Source\PSoC5/power_isr.c **** * Summary:
  83:Generated_Source\PSoC5/power_isr.c **** *  Sets up the interrupt and enables it. This function disables the interrupt,
  84:Generated_Source\PSoC5/power_isr.c **** *  sets the interrupt vector based on the address passed in, sets the priority 
  85:Generated_Source\PSoC5/power_isr.c **** *  from the value in the Design Wide Resources Interrupt Editor, then enables 
  86:Generated_Source\PSoC5/power_isr.c **** *  the interrupt to the interrupt controller.
  87:Generated_Source\PSoC5/power_isr.c **** *  
  88:Generated_Source\PSoC5/power_isr.c **** *  When defining ISR functions, the CY_ISR and CY_ISR_PROTO macros should be 
  89:Generated_Source\PSoC5/power_isr.c **** *  used to provide consistent definition across compilers:
  90:Generated_Source\PSoC5/power_isr.c **** *  
  91:Generated_Source\PSoC5/power_isr.c **** *  Function definition example:
  92:Generated_Source\PSoC5/power_isr.c **** *   CY_ISR(MyISR)
  93:Generated_Source\PSoC5/power_isr.c **** *   {
  94:Generated_Source\PSoC5/power_isr.c **** *   }
  95:Generated_Source\PSoC5/power_isr.c **** *   Function prototype example:
  96:Generated_Source\PSoC5/power_isr.c **** *   CY_ISR_PROTO(MyISR);
  97:Generated_Source\PSoC5/power_isr.c **** *
  98:Generated_Source\PSoC5/power_isr.c **** * Parameters:  
  99:Generated_Source\PSoC5/power_isr.c **** *   address: Address of the ISR to set in the interrupt vector table.
 100:Generated_Source\PSoC5/power_isr.c **** *
 101:Generated_Source\PSoC5/power_isr.c **** * Return:
 102:Generated_Source\PSoC5/power_isr.c **** *   None
 103:Generated_Source\PSoC5/power_isr.c **** *
 104:Generated_Source\PSoC5/power_isr.c **** *******************************************************************************/
 105:Generated_Source\PSoC5/power_isr.c **** void power_isr_StartEx(cyisraddress address)
 106:Generated_Source\PSoC5/power_isr.c **** {
  64              		.loc 1 106 0
  65              		.cfi_startproc
ARM GAS  D:\Windows\AppData\Local\Temp\ccL68ykg.s 			page 4


  66              		@ args = 0, pretend = 0, frame = 8
  67              		@ frame_needed = 1, uses_anonymous_args = 0
  68 0000 80B5     		push	{r7, lr}
  69              		.cfi_def_cfa_offset 8
  70              		.cfi_offset 7, -8
  71              		.cfi_offset 14, -4
  72 0002 82B0     		sub	sp, sp, #8
  73              		.cfi_def_cfa_offset 16
  74 0004 00AF     		add	r7, sp, #0
  75              		.cfi_def_cfa_register 7
  76 0006 7860     		str	r0, [r7, #4]
 107:Generated_Source\PSoC5/power_isr.c ****     /* For all we know the interrupt is active. */
 108:Generated_Source\PSoC5/power_isr.c ****     power_isr_Disable();
  77              		.loc 1 108 0
  78 0008 FFF7FEFF 		bl	power_isr_Disable
 109:Generated_Source\PSoC5/power_isr.c **** 
 110:Generated_Source\PSoC5/power_isr.c ****     /* Set the ISR to point to the power_isr Interrupt. */
 111:Generated_Source\PSoC5/power_isr.c ****     power_isr_SetVector(address);
  79              		.loc 1 111 0
  80 000c 7868     		ldr	r0, [r7, #4]
  81 000e FFF7FEFF 		bl	power_isr_SetVector
 112:Generated_Source\PSoC5/power_isr.c **** 
 113:Generated_Source\PSoC5/power_isr.c ****     /* Set the priority. */
 114:Generated_Source\PSoC5/power_isr.c ****     power_isr_SetPriority((uint8)power_isr_INTC_PRIOR_NUMBER);
  82              		.loc 1 114 0
  83 0012 0720     		movs	r0, #7
  84 0014 FFF7FEFF 		bl	power_isr_SetPriority
 115:Generated_Source\PSoC5/power_isr.c **** 
 116:Generated_Source\PSoC5/power_isr.c ****     /* Enable it. */
 117:Generated_Source\PSoC5/power_isr.c ****     power_isr_Enable();
  85              		.loc 1 117 0
  86 0018 FFF7FEFF 		bl	power_isr_Enable
 118:Generated_Source\PSoC5/power_isr.c **** }
  87              		.loc 1 118 0
  88 001c 0837     		adds	r7, r7, #8
  89              		.cfi_def_cfa_offset 8
  90 001e BD46     		mov	sp, r7
  91              		.cfi_def_cfa_register 13
  92              		@ sp needed
  93 0020 80BD     		pop	{r7, pc}
  94              		.cfi_endproc
  95              	.LFE64:
  96              		.size	power_isr_StartEx, .-power_isr_StartEx
  97 0022 00BF     		.section	.text.power_isr_Stop,"ax",%progbits
  98              		.align	2
  99              		.global	power_isr_Stop
 100              		.thumb
 101              		.thumb_func
 102              		.type	power_isr_Stop, %function
 103              	power_isr_Stop:
 104              	.LFB65:
 119:Generated_Source\PSoC5/power_isr.c **** 
 120:Generated_Source\PSoC5/power_isr.c **** 
 121:Generated_Source\PSoC5/power_isr.c **** /*******************************************************************************
 122:Generated_Source\PSoC5/power_isr.c **** * Function Name: power_isr_Stop
 123:Generated_Source\PSoC5/power_isr.c **** ********************************************************************************
 124:Generated_Source\PSoC5/power_isr.c **** *
ARM GAS  D:\Windows\AppData\Local\Temp\ccL68ykg.s 			page 5


 125:Generated_Source\PSoC5/power_isr.c **** * Summary:
 126:Generated_Source\PSoC5/power_isr.c **** *   Disables and removes the interrupt.
 127:Generated_Source\PSoC5/power_isr.c **** *
 128:Generated_Source\PSoC5/power_isr.c **** * Parameters:  
 129:Generated_Source\PSoC5/power_isr.c **** *   None
 130:Generated_Source\PSoC5/power_isr.c **** *
 131:Generated_Source\PSoC5/power_isr.c **** * Return:
 132:Generated_Source\PSoC5/power_isr.c **** *   None
 133:Generated_Source\PSoC5/power_isr.c **** *
 134:Generated_Source\PSoC5/power_isr.c **** *******************************************************************************/
 135:Generated_Source\PSoC5/power_isr.c **** void power_isr_Stop(void)
 136:Generated_Source\PSoC5/power_isr.c **** {
 105              		.loc 1 136 0
 106              		.cfi_startproc
 107              		@ args = 0, pretend = 0, frame = 0
 108              		@ frame_needed = 1, uses_anonymous_args = 0
 109 0000 80B5     		push	{r7, lr}
 110              		.cfi_def_cfa_offset 8
 111              		.cfi_offset 7, -8
 112              		.cfi_offset 14, -4
 113 0002 00AF     		add	r7, sp, #0
 114              		.cfi_def_cfa_register 7
 137:Generated_Source\PSoC5/power_isr.c ****     /* Disable this interrupt. */
 138:Generated_Source\PSoC5/power_isr.c ****     power_isr_Disable();
 115              		.loc 1 138 0
 116 0004 FFF7FEFF 		bl	power_isr_Disable
 139:Generated_Source\PSoC5/power_isr.c **** 
 140:Generated_Source\PSoC5/power_isr.c ****     /* Set the ISR to point to the passive one. */
 141:Generated_Source\PSoC5/power_isr.c ****     power_isr_SetVector(&IntDefaultHandler);
 117              		.loc 1 141 0
 118 0008 0148     		ldr	r0, .L6
 119 000a FFF7FEFF 		bl	power_isr_SetVector
 142:Generated_Source\PSoC5/power_isr.c **** }
 120              		.loc 1 142 0
 121 000e 80BD     		pop	{r7, pc}
 122              	.L7:
 123              		.align	2
 124              	.L6:
 125 0010 00000000 		.word	IntDefaultHandler
 126              		.cfi_endproc
 127              	.LFE65:
 128              		.size	power_isr_Stop, .-power_isr_Stop
 129              		.section	.text.power_isr_Interrupt,"ax",%progbits
 130              		.align	2
 131              		.global	power_isr_Interrupt
 132              		.thumb
 133              		.thumb_func
 134              		.type	power_isr_Interrupt, %function
 135              	power_isr_Interrupt:
 136              	.LFB66:
 143:Generated_Source\PSoC5/power_isr.c **** 
 144:Generated_Source\PSoC5/power_isr.c **** 
 145:Generated_Source\PSoC5/power_isr.c **** /*******************************************************************************
 146:Generated_Source\PSoC5/power_isr.c **** * Function Name: power_isr_Interrupt
 147:Generated_Source\PSoC5/power_isr.c **** ********************************************************************************
 148:Generated_Source\PSoC5/power_isr.c **** *
 149:Generated_Source\PSoC5/power_isr.c **** * Summary:
ARM GAS  D:\Windows\AppData\Local\Temp\ccL68ykg.s 			page 6


 150:Generated_Source\PSoC5/power_isr.c **** *   The default Interrupt Service Routine for power_isr.
 151:Generated_Source\PSoC5/power_isr.c **** *
 152:Generated_Source\PSoC5/power_isr.c **** *   Add custom code between the coments to keep the next version of this file
 153:Generated_Source\PSoC5/power_isr.c **** *   from over writting your code.
 154:Generated_Source\PSoC5/power_isr.c **** *
 155:Generated_Source\PSoC5/power_isr.c **** * Parameters:  
 156:Generated_Source\PSoC5/power_isr.c **** *
 157:Generated_Source\PSoC5/power_isr.c **** * Return:
 158:Generated_Source\PSoC5/power_isr.c **** *   None
 159:Generated_Source\PSoC5/power_isr.c **** *
 160:Generated_Source\PSoC5/power_isr.c **** *******************************************************************************/
 161:Generated_Source\PSoC5/power_isr.c **** CY_ISR(power_isr_Interrupt)
 162:Generated_Source\PSoC5/power_isr.c **** {
 137              		.loc 1 162 0
 138              		.cfi_startproc
 139              		@ args = 0, pretend = 0, frame = 0
 140              		@ frame_needed = 1, uses_anonymous_args = 0
 141 0000 80B5     		push	{r7, lr}
 142              		.cfi_def_cfa_offset 8
 143              		.cfi_offset 7, -8
 144              		.cfi_offset 14, -4
 145 0002 00AF     		add	r7, sp, #0
 146              		.cfi_def_cfa_register 7
 163:Generated_Source\PSoC5/power_isr.c ****     #ifdef power_isr_INTERRUPT_INTERRUPT_CALLBACK
 164:Generated_Source\PSoC5/power_isr.c ****         power_isr_Interrupt_InterruptCallback();
 165:Generated_Source\PSoC5/power_isr.c ****     #endif /* power_isr_INTERRUPT_INTERRUPT_CALLBACK */ 
 166:Generated_Source\PSoC5/power_isr.c **** 
 167:Generated_Source\PSoC5/power_isr.c ****     /*  Place your Interrupt code here. */
 168:Generated_Source\PSoC5/power_isr.c ****     /* `#START power_isr_Interrupt` */
 169:Generated_Source\PSoC5/power_isr.c ****     LED_Write(1);
 147              		.loc 1 169 0
 148 0004 0120     		movs	r0, #1
 149 0006 FFF7FEFF 		bl	LED_Write
 170:Generated_Source\PSoC5/power_isr.c **** 	sd_stop();
 150              		.loc 1 170 0
 151 000a FFF7FEFF 		bl	sd_stop
 171:Generated_Source\PSoC5/power_isr.c **** 	power_isr_ClearPending();
 152              		.loc 1 171 0
 153 000e FFF7FEFF 		bl	power_isr_ClearPending
 172:Generated_Source\PSoC5/power_isr.c ****     CyDelay(1000);
 154              		.loc 1 172 0
 155 0012 4FF47A70 		mov	r0, #1000
 156 0016 FFF7FEFF 		bl	CyDelay
 173:Generated_Source\PSoC5/power_isr.c ****     CySoftwareReset();
 157              		.loc 1 173 0
 158 001a FFF7FEFF 		bl	CySoftwareReset
 159              	.L9:
 174:Generated_Source\PSoC5/power_isr.c ****     for(;;); // halt program until shutdown
 160              		.loc 1 174 0 discriminator 1
 161 001e FEE7     		b	.L9
 162              		.cfi_endproc
 163              	.LFE66:
 164              		.size	power_isr_Interrupt, .-power_isr_Interrupt
 165              		.section	.text.power_isr_SetVector,"ax",%progbits
 166              		.align	2
 167              		.global	power_isr_SetVector
 168              		.thumb
ARM GAS  D:\Windows\AppData\Local\Temp\ccL68ykg.s 			page 7


 169              		.thumb_func
 170              		.type	power_isr_SetVector, %function
 171              	power_isr_SetVector:
 172              	.LFB67:
 175:Generated_Source\PSoC5/power_isr.c ****     /* `#END` */
 176:Generated_Source\PSoC5/power_isr.c **** }
 177:Generated_Source\PSoC5/power_isr.c **** 
 178:Generated_Source\PSoC5/power_isr.c **** 
 179:Generated_Source\PSoC5/power_isr.c **** /*******************************************************************************
 180:Generated_Source\PSoC5/power_isr.c **** * Function Name: power_isr_SetVector
 181:Generated_Source\PSoC5/power_isr.c **** ********************************************************************************
 182:Generated_Source\PSoC5/power_isr.c **** *
 183:Generated_Source\PSoC5/power_isr.c **** * Summary:
 184:Generated_Source\PSoC5/power_isr.c **** *   Change the ISR vector for the Interrupt. Note calling power_isr_Start
 185:Generated_Source\PSoC5/power_isr.c **** *   will override any effect this method would have had. To set the vector 
 186:Generated_Source\PSoC5/power_isr.c **** *   before the component has been started use power_isr_StartEx instead.
 187:Generated_Source\PSoC5/power_isr.c **** * 
 188:Generated_Source\PSoC5/power_isr.c **** *   When defining ISR functions, the CY_ISR and CY_ISR_PROTO macros should be 
 189:Generated_Source\PSoC5/power_isr.c **** *   used to provide consistent definition across compilers:
 190:Generated_Source\PSoC5/power_isr.c **** *
 191:Generated_Source\PSoC5/power_isr.c **** *   Function definition example:
 192:Generated_Source\PSoC5/power_isr.c **** *   CY_ISR(MyISR)
 193:Generated_Source\PSoC5/power_isr.c **** *   {
 194:Generated_Source\PSoC5/power_isr.c **** *   }
 195:Generated_Source\PSoC5/power_isr.c **** *
 196:Generated_Source\PSoC5/power_isr.c **** *   Function prototype example:
 197:Generated_Source\PSoC5/power_isr.c **** *     CY_ISR_PROTO(MyISR);
 198:Generated_Source\PSoC5/power_isr.c **** *
 199:Generated_Source\PSoC5/power_isr.c **** * Parameters:
 200:Generated_Source\PSoC5/power_isr.c **** *   address: Address of the ISR to set in the interrupt vector table.
 201:Generated_Source\PSoC5/power_isr.c **** *
 202:Generated_Source\PSoC5/power_isr.c **** * Return:
 203:Generated_Source\PSoC5/power_isr.c **** *   None
 204:Generated_Source\PSoC5/power_isr.c **** *
 205:Generated_Source\PSoC5/power_isr.c **** *******************************************************************************/
 206:Generated_Source\PSoC5/power_isr.c **** void power_isr_SetVector(cyisraddress address)
 207:Generated_Source\PSoC5/power_isr.c **** {
 173              		.loc 1 207 0
 174              		.cfi_startproc
 175              		@ args = 0, pretend = 0, frame = 16
 176              		@ frame_needed = 1, uses_anonymous_args = 0
 177              		@ link register save eliminated.
 178 0000 80B4     		push	{r7}
 179              		.cfi_def_cfa_offset 4
 180              		.cfi_offset 7, -4
 181 0002 85B0     		sub	sp, sp, #20
 182              		.cfi_def_cfa_offset 24
 183 0004 00AF     		add	r7, sp, #0
 184              		.cfi_def_cfa_register 7
 185 0006 7860     		str	r0, [r7, #4]
 208:Generated_Source\PSoC5/power_isr.c ****     cyisraddress * ramVectorTable;
 209:Generated_Source\PSoC5/power_isr.c **** 
 210:Generated_Source\PSoC5/power_isr.c ****     ramVectorTable = (cyisraddress *) *CYINT_VECT_TABLE;
 186              		.loc 1 210 0
 187 0008 054B     		ldr	r3, .L11
 188 000a 1B68     		ldr	r3, [r3]
 189 000c FB60     		str	r3, [r7, #12]
ARM GAS  D:\Windows\AppData\Local\Temp\ccL68ykg.s 			page 8


 211:Generated_Source\PSoC5/power_isr.c **** 
 212:Generated_Source\PSoC5/power_isr.c ****     ramVectorTable[CYINT_IRQ_BASE + (uint32)power_isr__INTC_NUMBER] = address;
 190              		.loc 1 212 0
 191 000e FB68     		ldr	r3, [r7, #12]
 192 0010 5033     		adds	r3, r3, #80
 193 0012 7A68     		ldr	r2, [r7, #4]
 194 0014 1A60     		str	r2, [r3]
 213:Generated_Source\PSoC5/power_isr.c **** }
 195              		.loc 1 213 0
 196 0016 1437     		adds	r7, r7, #20
 197              		.cfi_def_cfa_offset 4
 198 0018 BD46     		mov	sp, r7
 199              		.cfi_def_cfa_register 13
 200              		@ sp needed
 201 001a 5DF8047B 		ldr	r7, [sp], #4
 202              		.cfi_restore 7
 203              		.cfi_def_cfa_offset 0
 204 001e 7047     		bx	lr
 205              	.L12:
 206              		.align	2
 207              	.L11:
 208 0020 08ED00E0 		.word	-536810232
 209              		.cfi_endproc
 210              	.LFE67:
 211              		.size	power_isr_SetVector, .-power_isr_SetVector
 212              		.section	.text.power_isr_GetVector,"ax",%progbits
 213              		.align	2
 214              		.global	power_isr_GetVector
 215              		.thumb
 216              		.thumb_func
 217              		.type	power_isr_GetVector, %function
 218              	power_isr_GetVector:
 219              	.LFB68:
 214:Generated_Source\PSoC5/power_isr.c **** 
 215:Generated_Source\PSoC5/power_isr.c **** 
 216:Generated_Source\PSoC5/power_isr.c **** /*******************************************************************************
 217:Generated_Source\PSoC5/power_isr.c **** * Function Name: power_isr_GetVector
 218:Generated_Source\PSoC5/power_isr.c **** ********************************************************************************
 219:Generated_Source\PSoC5/power_isr.c **** *
 220:Generated_Source\PSoC5/power_isr.c **** * Summary:
 221:Generated_Source\PSoC5/power_isr.c **** *   Gets the "address" of the current ISR vector for the Interrupt.
 222:Generated_Source\PSoC5/power_isr.c **** *
 223:Generated_Source\PSoC5/power_isr.c **** * Parameters:
 224:Generated_Source\PSoC5/power_isr.c **** *   None
 225:Generated_Source\PSoC5/power_isr.c **** *
 226:Generated_Source\PSoC5/power_isr.c **** * Return:
 227:Generated_Source\PSoC5/power_isr.c **** *   Address of the ISR in the interrupt vector table.
 228:Generated_Source\PSoC5/power_isr.c **** *
 229:Generated_Source\PSoC5/power_isr.c **** *******************************************************************************/
 230:Generated_Source\PSoC5/power_isr.c **** cyisraddress power_isr_GetVector(void)
 231:Generated_Source\PSoC5/power_isr.c **** {
 220              		.loc 1 231 0
 221              		.cfi_startproc
 222              		@ args = 0, pretend = 0, frame = 8
 223              		@ frame_needed = 1, uses_anonymous_args = 0
 224              		@ link register save eliminated.
 225 0000 80B4     		push	{r7}
ARM GAS  D:\Windows\AppData\Local\Temp\ccL68ykg.s 			page 9


 226              		.cfi_def_cfa_offset 4
 227              		.cfi_offset 7, -4
 228 0002 83B0     		sub	sp, sp, #12
 229              		.cfi_def_cfa_offset 16
 230 0004 00AF     		add	r7, sp, #0
 231              		.cfi_def_cfa_register 7
 232:Generated_Source\PSoC5/power_isr.c ****     cyisraddress * ramVectorTable;
 233:Generated_Source\PSoC5/power_isr.c **** 
 234:Generated_Source\PSoC5/power_isr.c ****     ramVectorTable = (cyisraddress *) *CYINT_VECT_TABLE;
 232              		.loc 1 234 0
 233 0006 054B     		ldr	r3, .L15
 234 0008 1B68     		ldr	r3, [r3]
 235 000a 7B60     		str	r3, [r7, #4]
 235:Generated_Source\PSoC5/power_isr.c **** 
 236:Generated_Source\PSoC5/power_isr.c ****     return ramVectorTable[CYINT_IRQ_BASE + (uint32)power_isr__INTC_NUMBER];
 236              		.loc 1 236 0
 237 000c 7B68     		ldr	r3, [r7, #4]
 238 000e 1B6D     		ldr	r3, [r3, #80]
 237:Generated_Source\PSoC5/power_isr.c **** }
 239              		.loc 1 237 0
 240 0010 1846     		mov	r0, r3
 241 0012 0C37     		adds	r7, r7, #12
 242              		.cfi_def_cfa_offset 4
 243 0014 BD46     		mov	sp, r7
 244              		.cfi_def_cfa_register 13
 245              		@ sp needed
 246 0016 5DF8047B 		ldr	r7, [sp], #4
 247              		.cfi_restore 7
 248              		.cfi_def_cfa_offset 0
 249 001a 7047     		bx	lr
 250              	.L16:
 251              		.align	2
 252              	.L15:
 253 001c 08ED00E0 		.word	-536810232
 254              		.cfi_endproc
 255              	.LFE68:
 256              		.size	power_isr_GetVector, .-power_isr_GetVector
 257              		.section	.text.power_isr_SetPriority,"ax",%progbits
 258              		.align	2
 259              		.global	power_isr_SetPriority
 260              		.thumb
 261              		.thumb_func
 262              		.type	power_isr_SetPriority, %function
 263              	power_isr_SetPriority:
 264              	.LFB69:
 238:Generated_Source\PSoC5/power_isr.c **** 
 239:Generated_Source\PSoC5/power_isr.c **** 
 240:Generated_Source\PSoC5/power_isr.c **** /*******************************************************************************
 241:Generated_Source\PSoC5/power_isr.c **** * Function Name: power_isr_SetPriority
 242:Generated_Source\PSoC5/power_isr.c **** ********************************************************************************
 243:Generated_Source\PSoC5/power_isr.c **** *
 244:Generated_Source\PSoC5/power_isr.c **** * Summary:
 245:Generated_Source\PSoC5/power_isr.c **** *   Sets the Priority of the Interrupt. 
 246:Generated_Source\PSoC5/power_isr.c **** *
 247:Generated_Source\PSoC5/power_isr.c **** *   Note calling power_isr_Start or power_isr_StartEx will 
 248:Generated_Source\PSoC5/power_isr.c **** *   override any effect this API would have had. This API should only be called
 249:Generated_Source\PSoC5/power_isr.c **** *   after power_isr_Start or power_isr_StartEx has been called. 
ARM GAS  D:\Windows\AppData\Local\Temp\ccL68ykg.s 			page 10


 250:Generated_Source\PSoC5/power_isr.c **** *   To set the initial priority for the component, use the Design-Wide Resources
 251:Generated_Source\PSoC5/power_isr.c **** *   Interrupt Editor.
 252:Generated_Source\PSoC5/power_isr.c **** *
 253:Generated_Source\PSoC5/power_isr.c **** *   Note This API has no effect on Non-maskable interrupt NMI).
 254:Generated_Source\PSoC5/power_isr.c **** *
 255:Generated_Source\PSoC5/power_isr.c **** * Parameters:
 256:Generated_Source\PSoC5/power_isr.c **** *   priority: Priority of the interrupt, 0 being the highest priority
 257:Generated_Source\PSoC5/power_isr.c **** *             PSoC 3 and PSoC 5LP: Priority is from 0 to 7.
 258:Generated_Source\PSoC5/power_isr.c **** *             PSoC 4: Priority is from 0 to 3.
 259:Generated_Source\PSoC5/power_isr.c **** *
 260:Generated_Source\PSoC5/power_isr.c **** * Return:
 261:Generated_Source\PSoC5/power_isr.c **** *   None
 262:Generated_Source\PSoC5/power_isr.c **** *
 263:Generated_Source\PSoC5/power_isr.c **** *******************************************************************************/
 264:Generated_Source\PSoC5/power_isr.c **** void power_isr_SetPriority(uint8 priority)
 265:Generated_Source\PSoC5/power_isr.c **** {
 265              		.loc 1 265 0
 266              		.cfi_startproc
 267              		@ args = 0, pretend = 0, frame = 8
 268              		@ frame_needed = 1, uses_anonymous_args = 0
 269              		@ link register save eliminated.
 270 0000 80B4     		push	{r7}
 271              		.cfi_def_cfa_offset 4
 272              		.cfi_offset 7, -4
 273 0002 83B0     		sub	sp, sp, #12
 274              		.cfi_def_cfa_offset 16
 275 0004 00AF     		add	r7, sp, #0
 276              		.cfi_def_cfa_register 7
 277 0006 0346     		mov	r3, r0
 278 0008 FB71     		strb	r3, [r7, #7]
 266:Generated_Source\PSoC5/power_isr.c ****     *power_isr_INTC_PRIOR = priority << 5;
 279              		.loc 1 266 0
 280 000a 054A     		ldr	r2, .L18
 281 000c FB79     		ldrb	r3, [r7, #7]
 282 000e 5B01     		lsls	r3, r3, #5
 283 0010 DBB2     		uxtb	r3, r3
 284 0012 1370     		strb	r3, [r2]
 267:Generated_Source\PSoC5/power_isr.c **** }
 285              		.loc 1 267 0
 286 0014 0C37     		adds	r7, r7, #12
 287              		.cfi_def_cfa_offset 4
 288 0016 BD46     		mov	sp, r7
 289              		.cfi_def_cfa_register 13
 290              		@ sp needed
 291 0018 5DF8047B 		ldr	r7, [sp], #4
 292              		.cfi_restore 7
 293              		.cfi_def_cfa_offset 0
 294 001c 7047     		bx	lr
 295              	.L19:
 296 001e 00BF     		.align	2
 297              	.L18:
 298 0020 04E400E0 		.word	-536812540
 299              		.cfi_endproc
 300              	.LFE69:
 301              		.size	power_isr_SetPriority, .-power_isr_SetPriority
 302              		.section	.text.power_isr_GetPriority,"ax",%progbits
 303              		.align	2
ARM GAS  D:\Windows\AppData\Local\Temp\ccL68ykg.s 			page 11


 304              		.global	power_isr_GetPriority
 305              		.thumb
 306              		.thumb_func
 307              		.type	power_isr_GetPriority, %function
 308              	power_isr_GetPriority:
 309              	.LFB70:
 268:Generated_Source\PSoC5/power_isr.c **** 
 269:Generated_Source\PSoC5/power_isr.c **** 
 270:Generated_Source\PSoC5/power_isr.c **** /*******************************************************************************
 271:Generated_Source\PSoC5/power_isr.c **** * Function Name: power_isr_GetPriority
 272:Generated_Source\PSoC5/power_isr.c **** ********************************************************************************
 273:Generated_Source\PSoC5/power_isr.c **** *
 274:Generated_Source\PSoC5/power_isr.c **** * Summary:
 275:Generated_Source\PSoC5/power_isr.c **** *   Gets the Priority of the Interrupt.
 276:Generated_Source\PSoC5/power_isr.c **** *
 277:Generated_Source\PSoC5/power_isr.c **** * Parameters:
 278:Generated_Source\PSoC5/power_isr.c **** *   None
 279:Generated_Source\PSoC5/power_isr.c **** *
 280:Generated_Source\PSoC5/power_isr.c **** * Return:
 281:Generated_Source\PSoC5/power_isr.c **** *   Priority of the interrupt, 0 being the highest priority
 282:Generated_Source\PSoC5/power_isr.c **** *    PSoC 3 and PSoC 5LP: Priority is from 0 to 7.
 283:Generated_Source\PSoC5/power_isr.c **** *    PSoC 4: Priority is from 0 to 3.
 284:Generated_Source\PSoC5/power_isr.c **** *
 285:Generated_Source\PSoC5/power_isr.c **** *******************************************************************************/
 286:Generated_Source\PSoC5/power_isr.c **** uint8 power_isr_GetPriority(void)
 287:Generated_Source\PSoC5/power_isr.c **** {
 310              		.loc 1 287 0
 311              		.cfi_startproc
 312              		@ args = 0, pretend = 0, frame = 8
 313              		@ frame_needed = 1, uses_anonymous_args = 0
 314              		@ link register save eliminated.
 315 0000 80B4     		push	{r7}
 316              		.cfi_def_cfa_offset 4
 317              		.cfi_offset 7, -4
 318 0002 83B0     		sub	sp, sp, #12
 319              		.cfi_def_cfa_offset 16
 320 0004 00AF     		add	r7, sp, #0
 321              		.cfi_def_cfa_register 7
 288:Generated_Source\PSoC5/power_isr.c ****     uint8 priority;
 289:Generated_Source\PSoC5/power_isr.c **** 
 290:Generated_Source\PSoC5/power_isr.c **** 
 291:Generated_Source\PSoC5/power_isr.c ****     priority = *power_isr_INTC_PRIOR >> 5;
 322              		.loc 1 291 0
 323 0006 064B     		ldr	r3, .L22
 324 0008 1B78     		ldrb	r3, [r3]
 325 000a DBB2     		uxtb	r3, r3
 326 000c 5B09     		lsrs	r3, r3, #5
 327 000e FB71     		strb	r3, [r7, #7]
 292:Generated_Source\PSoC5/power_isr.c **** 
 293:Generated_Source\PSoC5/power_isr.c ****     return priority;
 328              		.loc 1 293 0
 329 0010 FB79     		ldrb	r3, [r7, #7]	@ zero_extendqisi2
 294:Generated_Source\PSoC5/power_isr.c **** }
 330              		.loc 1 294 0
 331 0012 1846     		mov	r0, r3
 332 0014 0C37     		adds	r7, r7, #12
 333              		.cfi_def_cfa_offset 4
ARM GAS  D:\Windows\AppData\Local\Temp\ccL68ykg.s 			page 12


 334 0016 BD46     		mov	sp, r7
 335              		.cfi_def_cfa_register 13
 336              		@ sp needed
 337 0018 5DF8047B 		ldr	r7, [sp], #4
 338              		.cfi_restore 7
 339              		.cfi_def_cfa_offset 0
 340 001c 7047     		bx	lr
 341              	.L23:
 342 001e 00BF     		.align	2
 343              	.L22:
 344 0020 04E400E0 		.word	-536812540
 345              		.cfi_endproc
 346              	.LFE70:
 347              		.size	power_isr_GetPriority, .-power_isr_GetPriority
 348              		.section	.text.power_isr_Enable,"ax",%progbits
 349              		.align	2
 350              		.global	power_isr_Enable
 351              		.thumb
 352              		.thumb_func
 353              		.type	power_isr_Enable, %function
 354              	power_isr_Enable:
 355              	.LFB71:
 295:Generated_Source\PSoC5/power_isr.c **** 
 296:Generated_Source\PSoC5/power_isr.c **** 
 297:Generated_Source\PSoC5/power_isr.c **** /*******************************************************************************
 298:Generated_Source\PSoC5/power_isr.c **** * Function Name: power_isr_Enable
 299:Generated_Source\PSoC5/power_isr.c **** ********************************************************************************
 300:Generated_Source\PSoC5/power_isr.c **** *
 301:Generated_Source\PSoC5/power_isr.c **** * Summary:
 302:Generated_Source\PSoC5/power_isr.c **** *   Enables the interrupt to the interrupt controller. Do not call this function
 303:Generated_Source\PSoC5/power_isr.c **** *   unless ISR_Start() has been called or the functionality of the ISR_Start() 
 304:Generated_Source\PSoC5/power_isr.c **** *   function, which sets the vector and the priority, has been called.
 305:Generated_Source\PSoC5/power_isr.c **** *
 306:Generated_Source\PSoC5/power_isr.c **** * Parameters:
 307:Generated_Source\PSoC5/power_isr.c **** *   None
 308:Generated_Source\PSoC5/power_isr.c **** *
 309:Generated_Source\PSoC5/power_isr.c **** * Return:
 310:Generated_Source\PSoC5/power_isr.c **** *   None
 311:Generated_Source\PSoC5/power_isr.c **** *
 312:Generated_Source\PSoC5/power_isr.c **** *******************************************************************************/
 313:Generated_Source\PSoC5/power_isr.c **** void power_isr_Enable(void)
 314:Generated_Source\PSoC5/power_isr.c **** {
 356              		.loc 1 314 0
 357              		.cfi_startproc
 358              		@ args = 0, pretend = 0, frame = 0
 359              		@ frame_needed = 1, uses_anonymous_args = 0
 360              		@ link register save eliminated.
 361 0000 80B4     		push	{r7}
 362              		.cfi_def_cfa_offset 4
 363              		.cfi_offset 7, -4
 364 0002 00AF     		add	r7, sp, #0
 365              		.cfi_def_cfa_register 7
 315:Generated_Source\PSoC5/power_isr.c ****     /* Enable the general interrupt. */
 316:Generated_Source\PSoC5/power_isr.c ****     *power_isr_INTC_SET_EN = power_isr__INTC_MASK;
 366              		.loc 1 316 0
 367 0004 034B     		ldr	r3, .L25
 368 0006 1022     		movs	r2, #16
ARM GAS  D:\Windows\AppData\Local\Temp\ccL68ykg.s 			page 13


 369 0008 1A60     		str	r2, [r3]
 317:Generated_Source\PSoC5/power_isr.c **** }
 370              		.loc 1 317 0
 371 000a BD46     		mov	sp, r7
 372              		.cfi_def_cfa_register 13
 373              		@ sp needed
 374 000c 5DF8047B 		ldr	r7, [sp], #4
 375              		.cfi_restore 7
 376              		.cfi_def_cfa_offset 0
 377 0010 7047     		bx	lr
 378              	.L26:
 379 0012 00BF     		.align	2
 380              	.L25:
 381 0014 00E100E0 		.word	-536813312
 382              		.cfi_endproc
 383              	.LFE71:
 384              		.size	power_isr_Enable, .-power_isr_Enable
 385              		.section	.text.power_isr_GetState,"ax",%progbits
 386              		.align	2
 387              		.global	power_isr_GetState
 388              		.thumb
 389              		.thumb_func
 390              		.type	power_isr_GetState, %function
 391              	power_isr_GetState:
 392              	.LFB72:
 318:Generated_Source\PSoC5/power_isr.c **** 
 319:Generated_Source\PSoC5/power_isr.c **** 
 320:Generated_Source\PSoC5/power_isr.c **** /*******************************************************************************
 321:Generated_Source\PSoC5/power_isr.c **** * Function Name: power_isr_GetState
 322:Generated_Source\PSoC5/power_isr.c **** ********************************************************************************
 323:Generated_Source\PSoC5/power_isr.c **** *
 324:Generated_Source\PSoC5/power_isr.c **** * Summary:
 325:Generated_Source\PSoC5/power_isr.c **** *   Gets the state (enabled, disabled) of the Interrupt.
 326:Generated_Source\PSoC5/power_isr.c **** *
 327:Generated_Source\PSoC5/power_isr.c **** * Parameters:
 328:Generated_Source\PSoC5/power_isr.c **** *   None
 329:Generated_Source\PSoC5/power_isr.c **** *
 330:Generated_Source\PSoC5/power_isr.c **** * Return:
 331:Generated_Source\PSoC5/power_isr.c **** *   1 if enabled, 0 if disabled.
 332:Generated_Source\PSoC5/power_isr.c **** *
 333:Generated_Source\PSoC5/power_isr.c **** *******************************************************************************/
 334:Generated_Source\PSoC5/power_isr.c **** uint8 power_isr_GetState(void)
 335:Generated_Source\PSoC5/power_isr.c **** {
 393              		.loc 1 335 0
 394              		.cfi_startproc
 395              		@ args = 0, pretend = 0, frame = 0
 396              		@ frame_needed = 1, uses_anonymous_args = 0
 397              		@ link register save eliminated.
 398 0000 80B4     		push	{r7}
 399              		.cfi_def_cfa_offset 4
 400              		.cfi_offset 7, -4
 401 0002 00AF     		add	r7, sp, #0
 402              		.cfi_def_cfa_register 7
 336:Generated_Source\PSoC5/power_isr.c ****     /* Get the state of the general interrupt. */
 337:Generated_Source\PSoC5/power_isr.c ****     return ((*power_isr_INTC_SET_EN & (uint32)power_isr__INTC_MASK) != 0u) ? 1u:0u;
 403              		.loc 1 337 0
 404 0004 064B     		ldr	r3, .L31
ARM GAS  D:\Windows\AppData\Local\Temp\ccL68ykg.s 			page 14


 405 0006 1B68     		ldr	r3, [r3]
 406 0008 03F01003 		and	r3, r3, #16
 407 000c 002B     		cmp	r3, #0
 408 000e 01D0     		beq	.L28
 409              		.loc 1 337 0 is_stmt 0 discriminator 1
 410 0010 0123     		movs	r3, #1
 411 0012 00E0     		b	.L29
 412              	.L28:
 413              		.loc 1 337 0 discriminator 2
 414 0014 0023     		movs	r3, #0
 415              	.L29:
 338:Generated_Source\PSoC5/power_isr.c **** }
 416              		.loc 1 338 0 is_stmt 1 discriminator 4
 417 0016 1846     		mov	r0, r3
 418 0018 BD46     		mov	sp, r7
 419              		.cfi_def_cfa_register 13
 420              		@ sp needed
 421 001a 5DF8047B 		ldr	r7, [sp], #4
 422              		.cfi_restore 7
 423              		.cfi_def_cfa_offset 0
 424 001e 7047     		bx	lr
 425              	.L32:
 426              		.align	2
 427              	.L31:
 428 0020 00E100E0 		.word	-536813312
 429              		.cfi_endproc
 430              	.LFE72:
 431              		.size	power_isr_GetState, .-power_isr_GetState
 432              		.section	.text.power_isr_Disable,"ax",%progbits
 433              		.align	2
 434              		.global	power_isr_Disable
 435              		.thumb
 436              		.thumb_func
 437              		.type	power_isr_Disable, %function
 438              	power_isr_Disable:
 439              	.LFB73:
 339:Generated_Source\PSoC5/power_isr.c **** 
 340:Generated_Source\PSoC5/power_isr.c **** 
 341:Generated_Source\PSoC5/power_isr.c **** /*******************************************************************************
 342:Generated_Source\PSoC5/power_isr.c **** * Function Name: power_isr_Disable
 343:Generated_Source\PSoC5/power_isr.c **** ********************************************************************************
 344:Generated_Source\PSoC5/power_isr.c **** *
 345:Generated_Source\PSoC5/power_isr.c **** * Summary:
 346:Generated_Source\PSoC5/power_isr.c **** *   Disables the Interrupt in the interrupt controller.
 347:Generated_Source\PSoC5/power_isr.c **** *
 348:Generated_Source\PSoC5/power_isr.c **** * Parameters:
 349:Generated_Source\PSoC5/power_isr.c **** *   None
 350:Generated_Source\PSoC5/power_isr.c **** *
 351:Generated_Source\PSoC5/power_isr.c **** * Return:
 352:Generated_Source\PSoC5/power_isr.c **** *   None
 353:Generated_Source\PSoC5/power_isr.c **** *
 354:Generated_Source\PSoC5/power_isr.c **** *******************************************************************************/
 355:Generated_Source\PSoC5/power_isr.c **** void power_isr_Disable(void)
 356:Generated_Source\PSoC5/power_isr.c **** {
 440              		.loc 1 356 0
 441              		.cfi_startproc
 442              		@ args = 0, pretend = 0, frame = 0
ARM GAS  D:\Windows\AppData\Local\Temp\ccL68ykg.s 			page 15


 443              		@ frame_needed = 1, uses_anonymous_args = 0
 444              		@ link register save eliminated.
 445 0000 80B4     		push	{r7}
 446              		.cfi_def_cfa_offset 4
 447              		.cfi_offset 7, -4
 448 0002 00AF     		add	r7, sp, #0
 449              		.cfi_def_cfa_register 7
 357:Generated_Source\PSoC5/power_isr.c ****     /* Disable the general interrupt. */
 358:Generated_Source\PSoC5/power_isr.c ****     *power_isr_INTC_CLR_EN = power_isr__INTC_MASK;
 450              		.loc 1 358 0
 451 0004 034B     		ldr	r3, .L34
 452 0006 1022     		movs	r2, #16
 453 0008 1A60     		str	r2, [r3]
 359:Generated_Source\PSoC5/power_isr.c **** }
 454              		.loc 1 359 0
 455 000a BD46     		mov	sp, r7
 456              		.cfi_def_cfa_register 13
 457              		@ sp needed
 458 000c 5DF8047B 		ldr	r7, [sp], #4
 459              		.cfi_restore 7
 460              		.cfi_def_cfa_offset 0
 461 0010 7047     		bx	lr
 462              	.L35:
 463 0012 00BF     		.align	2
 464              	.L34:
 465 0014 80E100E0 		.word	-536813184
 466              		.cfi_endproc
 467              	.LFE73:
 468              		.size	power_isr_Disable, .-power_isr_Disable
 469              		.section	.text.power_isr_SetPending,"ax",%progbits
 470              		.align	2
 471              		.global	power_isr_SetPending
 472              		.thumb
 473              		.thumb_func
 474              		.type	power_isr_SetPending, %function
 475              	power_isr_SetPending:
 476              	.LFB74:
 360:Generated_Source\PSoC5/power_isr.c **** 
 361:Generated_Source\PSoC5/power_isr.c **** 
 362:Generated_Source\PSoC5/power_isr.c **** /*******************************************************************************
 363:Generated_Source\PSoC5/power_isr.c **** * Function Name: power_isr_SetPending
 364:Generated_Source\PSoC5/power_isr.c **** ********************************************************************************
 365:Generated_Source\PSoC5/power_isr.c **** *
 366:Generated_Source\PSoC5/power_isr.c **** * Summary:
 367:Generated_Source\PSoC5/power_isr.c **** *   Causes the Interrupt to enter the pending state, a software method of
 368:Generated_Source\PSoC5/power_isr.c **** *   generating the interrupt.
 369:Generated_Source\PSoC5/power_isr.c **** *
 370:Generated_Source\PSoC5/power_isr.c **** * Parameters:
 371:Generated_Source\PSoC5/power_isr.c **** *   None
 372:Generated_Source\PSoC5/power_isr.c **** *
 373:Generated_Source\PSoC5/power_isr.c **** * Return:
 374:Generated_Source\PSoC5/power_isr.c **** *   None
 375:Generated_Source\PSoC5/power_isr.c **** *
 376:Generated_Source\PSoC5/power_isr.c **** * Side Effects:
 377:Generated_Source\PSoC5/power_isr.c **** *   If interrupts are enabled and the interrupt is set up properly, the ISR is
 378:Generated_Source\PSoC5/power_isr.c **** *   entered (depending on the priority of this interrupt and other pending 
 379:Generated_Source\PSoC5/power_isr.c **** *   interrupts).
ARM GAS  D:\Windows\AppData\Local\Temp\ccL68ykg.s 			page 16


 380:Generated_Source\PSoC5/power_isr.c **** *
 381:Generated_Source\PSoC5/power_isr.c **** *******************************************************************************/
 382:Generated_Source\PSoC5/power_isr.c **** void power_isr_SetPending(void)
 383:Generated_Source\PSoC5/power_isr.c **** {
 477              		.loc 1 383 0
 478              		.cfi_startproc
 479              		@ args = 0, pretend = 0, frame = 0
 480              		@ frame_needed = 1, uses_anonymous_args = 0
 481              		@ link register save eliminated.
 482 0000 80B4     		push	{r7}
 483              		.cfi_def_cfa_offset 4
 484              		.cfi_offset 7, -4
 485 0002 00AF     		add	r7, sp, #0
 486              		.cfi_def_cfa_register 7
 384:Generated_Source\PSoC5/power_isr.c ****     *power_isr_INTC_SET_PD = power_isr__INTC_MASK;
 487              		.loc 1 384 0
 488 0004 034B     		ldr	r3, .L37
 489 0006 1022     		movs	r2, #16
 490 0008 1A60     		str	r2, [r3]
 385:Generated_Source\PSoC5/power_isr.c **** }
 491              		.loc 1 385 0
 492 000a BD46     		mov	sp, r7
 493              		.cfi_def_cfa_register 13
 494              		@ sp needed
 495 000c 5DF8047B 		ldr	r7, [sp], #4
 496              		.cfi_restore 7
 497              		.cfi_def_cfa_offset 0
 498 0010 7047     		bx	lr
 499              	.L38:
 500 0012 00BF     		.align	2
 501              	.L37:
 502 0014 00E200E0 		.word	-536813056
 503              		.cfi_endproc
 504              	.LFE74:
 505              		.size	power_isr_SetPending, .-power_isr_SetPending
 506              		.section	.text.power_isr_ClearPending,"ax",%progbits
 507              		.align	2
 508              		.global	power_isr_ClearPending
 509              		.thumb
 510              		.thumb_func
 511              		.type	power_isr_ClearPending, %function
 512              	power_isr_ClearPending:
 513              	.LFB75:
 386:Generated_Source\PSoC5/power_isr.c **** 
 387:Generated_Source\PSoC5/power_isr.c **** 
 388:Generated_Source\PSoC5/power_isr.c **** /*******************************************************************************
 389:Generated_Source\PSoC5/power_isr.c **** * Function Name: power_isr_ClearPending
 390:Generated_Source\PSoC5/power_isr.c **** ********************************************************************************
 391:Generated_Source\PSoC5/power_isr.c **** *
 392:Generated_Source\PSoC5/power_isr.c **** * Summary:
 393:Generated_Source\PSoC5/power_isr.c **** *   Clears a pending interrupt in the interrupt controller.
 394:Generated_Source\PSoC5/power_isr.c **** *
 395:Generated_Source\PSoC5/power_isr.c **** *   Note Some interrupt sources are clear-on-read and require the block 
 396:Generated_Source\PSoC5/power_isr.c **** *   interrupt/status register to be read/cleared with the appropriate block API 
 397:Generated_Source\PSoC5/power_isr.c **** *   (GPIO, UART, and so on). Otherwise the ISR will continue to remain in 
 398:Generated_Source\PSoC5/power_isr.c **** *   pending state even though the interrupt itself is cleared using this API.
 399:Generated_Source\PSoC5/power_isr.c **** *
ARM GAS  D:\Windows\AppData\Local\Temp\ccL68ykg.s 			page 17


 400:Generated_Source\PSoC5/power_isr.c **** * Parameters:
 401:Generated_Source\PSoC5/power_isr.c **** *   None
 402:Generated_Source\PSoC5/power_isr.c **** *
 403:Generated_Source\PSoC5/power_isr.c **** * Return:
 404:Generated_Source\PSoC5/power_isr.c **** *   None
 405:Generated_Source\PSoC5/power_isr.c **** *
 406:Generated_Source\PSoC5/power_isr.c **** *******************************************************************************/
 407:Generated_Source\PSoC5/power_isr.c **** void power_isr_ClearPending(void)
 408:Generated_Source\PSoC5/power_isr.c **** {
 514              		.loc 1 408 0
 515              		.cfi_startproc
 516              		@ args = 0, pretend = 0, frame = 0
 517              		@ frame_needed = 1, uses_anonymous_args = 0
 518              		@ link register save eliminated.
 519 0000 80B4     		push	{r7}
 520              		.cfi_def_cfa_offset 4
 521              		.cfi_offset 7, -4
 522 0002 00AF     		add	r7, sp, #0
 523              		.cfi_def_cfa_register 7
 409:Generated_Source\PSoC5/power_isr.c ****     *power_isr_INTC_CLR_PD = power_isr__INTC_MASK;
 524              		.loc 1 409 0
 525 0004 034B     		ldr	r3, .L40
 526 0006 1022     		movs	r2, #16
 527 0008 1A60     		str	r2, [r3]
 410:Generated_Source\PSoC5/power_isr.c **** }
 528              		.loc 1 410 0
 529 000a BD46     		mov	sp, r7
 530              		.cfi_def_cfa_register 13
 531              		@ sp needed
 532 000c 5DF8047B 		ldr	r7, [sp], #4
 533              		.cfi_restore 7
 534              		.cfi_def_cfa_offset 0
 535 0010 7047     		bx	lr
 536              	.L41:
 537 0012 00BF     		.align	2
 538              	.L40:
 539 0014 80E200E0 		.word	-536812928
 540              		.cfi_endproc
 541              	.LFE75:
 542              		.size	power_isr_ClearPending, .-power_isr_ClearPending
 543              		.text
 544              	.Letext0:
 545              		.file 2 "d:\\programming\\cypress\\psoc creator\\4.0\\psoc creator\\import\\gnu\\arm\\4.9.3\\arm-n
 546              		.file 3 "d:\\programming\\cypress\\psoc creator\\4.0\\psoc creator\\import\\gnu\\arm\\4.9.3\\arm-n
 547              		.file 4 "Generated_Source\\PSoC5/cytypes.h"
 548              		.file 5 "Generated_Source\\PSoC5/core_cm3.h"