ARM GAS  D:\Windows\AppData\Local\Temp\ccMOdMwq.s 			page 1


   1              		.syntax unified
   2              		.cpu cortex-m3
   3              		.fpu softvfp
   4              		.eabi_attribute 20, 1
   5              		.eabi_attribute 21, 1
   6              		.eabi_attribute 23, 3
   7              		.eabi_attribute 24, 1
   8              		.eabi_attribute 25, 1
   9              		.eabi_attribute 26, 1
  10              		.eabi_attribute 30, 6
  11              		.eabi_attribute 34, 1
  12              		.eabi_attribute 18, 4
  13              		.thumb
  14              		.file	"radio_manager.c"
  15              		.text
  16              	.Ltext0:
  17              		.cfi_sections	.debug_frame
  18              		.bss
  19              		.align	2
  20              	addr:
  21 0000 00000000 		.space	8
  21      00000000 
  22              		.section	.text.radio_init_SPI,"ax",%progbits
  23              		.align	2
  24              		.global	radio_init_SPI
  25              		.thumb
  26              		.thumb_func
  27              		.type	radio_init_SPI, %function
  28              	radio_init_SPI:
  29              	.LFB63:
  30              		.file 1 "radio_manager.c"
   1:radio_manager.c **** /* Enables xbee transmission to another xbee wirelessly in SPI Operation
   2:radio_manager.c **** 	SPI 
   3:radio_manager.c **** 	XBEE in API Mode, read xbee documentation
   4:radio_manager.c **** */
   5:radio_manager.c **** #include "radio_manager.h"
   6:radio_manager.c **** 
   7:radio_manager.c **** static uint8_t addr[8];
   8:radio_manager.c **** 
   9:radio_manager.c **** 
  10:radio_manager.c **** void radio_init_SPI(void) {
  31              		.loc 1 10 0
  32              		.cfi_startproc
  33              		@ args = 0, pretend = 0, frame = 0
  34              		@ frame_needed = 1, uses_anonymous_args = 0
  35 0000 80B5     		push	{r7, lr}
  36              		.cfi_def_cfa_offset 8
  37              		.cfi_offset 7, -8
  38              		.cfi_offset 14, -4
  39 0002 00AF     		add	r7, sp, #0
  40              		.cfi_def_cfa_register 7
  11:radio_manager.c ****     xbee_spi_Start();
  41              		.loc 1 11 0
  42 0004 FFF7FEFF 		bl	xbee_spi_Start
  12:radio_manager.c ****     set_des_addr(DES_ADDR);
  43              		.loc 1 12 0
  44 0008 03A1     		adr	r1, .L2
ARM GAS  D:\Windows\AppData\Local\Temp\ccMOdMwq.s 			page 2


  45 000a D1E90001 		ldrd	r0, [r1]
  46 000e FFF7FEFF 		bl	set_des_addr
  13:radio_manager.c **** }
  47              		.loc 1 13 0
  48 0012 80BD     		pop	{r7, pc}
  49              	.L3:
  50 0014 AFF30080 		.align	3
  51              	.L2:
  52 0018 17E95241 		.word	1095952663
  53 001c 00A21300 		.word	1286656
  54              		.cfi_endproc
  55              	.LFE63:
  56              		.size	radio_init_SPI, .-radio_init_SPI
  57              		.section	.text.set_des_addr,"ax",%progbits
  58              		.align	2
  59              		.global	set_des_addr
  60              		.thumb
  61              		.thumb_func
  62              		.type	set_des_addr, %function
  63              	set_des_addr:
  64              	.LFB64:
  14:radio_manager.c **** 
  15:radio_manager.c **** 
  16:radio_manager.c **** //put des addr into array, MSB first for transmission
  17:radio_manager.c **** void set_des_addr(uint64_t newAddr) {
  65              		.loc 1 17 0
  66              		.cfi_startproc
  67              		@ args = 0, pretend = 0, frame = 16
  68              		@ frame_needed = 1, uses_anonymous_args = 0
  69 0000 F0B5     		push	{r4, r5, r6, r7, lr}
  70              		.cfi_def_cfa_offset 20
  71              		.cfi_offset 4, -20
  72              		.cfi_offset 5, -16
  73              		.cfi_offset 6, -12
  74              		.cfi_offset 7, -8
  75              		.cfi_offset 14, -4
  76 0002 85B0     		sub	sp, sp, #20
  77              		.cfi_def_cfa_offset 40
  78 0004 00AF     		add	r7, sp, #0
  79              		.cfi_def_cfa_register 7
  80 0006 C7E90001 		strd	r0, [r7]
  18:radio_manager.c ****     int i=0;
  81              		.loc 1 18 0
  82 000a 0021     		movs	r1, #0
  83 000c F960     		str	r1, [r7, #12]
  19:radio_manager.c ****     for (i=0;i<8;i++){
  84              		.loc 1 19 0
  85 000e 0021     		movs	r1, #0
  86 0010 F960     		str	r1, [r7, #12]
  87 0012 1BE0     		b	.L5
  88              	.L6:
  20:radio_manager.c ****         addr[7-i]=(newAddr>>(8*i)) & 0xff;
  89              		.loc 1 20 0 discriminator 3
  90 0014 F968     		ldr	r1, [r7, #12]
  91 0016 C1F1070E 		rsb	lr, r1, #7
  92 001a F968     		ldr	r1, [r7, #12]
  93 001c CC00     		lsls	r4, r1, #3
ARM GAS  D:\Windows\AppData\Local\Temp\ccMOdMwq.s 			page 3


  94 001e D7E90001 		ldrd	r0, [r7]
  95 0022 C4F12006 		rsb	r6, r4, #32
  96 0026 A4F12005 		sub	r5, r4, #32
  97 002a 20FA04F2 		lsr	r2, r0, r4
  98 002e 01FA06F6 		lsl	r6, r1, r6
  99 0032 3243     		orrs	r2, r2, r6
 100 0034 21FA05F5 		lsr	r5, r1, r5
 101 0038 2A43     		orrs	r2, r2, r5
 102 003a 21FA04F3 		lsr	r3, r1, r4
 103 003e D0B2     		uxtb	r0, r2
 104 0040 0649     		ldr	r1, .L8
 105 0042 01F80E00 		strb	r0, [r1, lr]
  19:radio_manager.c ****     for (i=0;i<8;i++){
 106              		.loc 1 19 0 discriminator 3
 107 0046 F968     		ldr	r1, [r7, #12]
 108 0048 0131     		adds	r1, r1, #1
 109 004a F960     		str	r1, [r7, #12]
 110              	.L5:
  19:radio_manager.c ****     for (i=0;i<8;i++){
 111              		.loc 1 19 0 is_stmt 0 discriminator 1
 112 004c F968     		ldr	r1, [r7, #12]
 113 004e 0729     		cmp	r1, #7
 114 0050 E0DD     		ble	.L6
  21:radio_manager.c ****     }
  22:radio_manager.c ****     return;
 115              		.loc 1 22 0 is_stmt 1
 116 0052 00BF     		nop
  23:radio_manager.c **** }
 117              		.loc 1 23 0
 118 0054 1437     		adds	r7, r7, #20
 119              		.cfi_def_cfa_offset 20
 120 0056 BD46     		mov	sp, r7
 121              		.cfi_def_cfa_register 13
 122              		@ sp needed
 123 0058 F0BD     		pop	{r4, r5, r6, r7, pc}
 124              	.L9:
 125 005a 00BF     		.align	2
 126              	.L8:
 127 005c 00000000 		.word	addr
 128              		.cfi_endproc
 129              	.LFE64:
 130              		.size	set_des_addr, .-set_des_addr
 131              		.section	.text.checksum_calc,"ax",%progbits
 132              		.align	2
 133              		.global	checksum_calc
 134              		.thumb
 135              		.thumb_func
 136              		.type	checksum_calc, %function
 137              	checksum_calc:
 138              	.LFB65:
  24:radio_manager.c **** 
  25:radio_manager.c **** 
  26:radio_manager.c **** /*  to calculate: excluding frame delimiters and length bytes (msg[0-2]), 
  27:radio_manager.c **** 	add all bytes keeping the lowest 8-bits of the result and subtract the result from 0xFF 
  28:radio_manager.c **** 
  29:radio_manager.c ****     to verify: add all bytes (including checksum, excluding delimiter and length) = 0xFF */
  30:radio_manager.c **** uint8_t checksum_calc(uint8_t* msg,int len){
ARM GAS  D:\Windows\AppData\Local\Temp\ccMOdMwq.s 			page 4


 139              		.loc 1 30 0
 140              		.cfi_startproc
 141              		@ args = 0, pretend = 0, frame = 16
 142              		@ frame_needed = 1, uses_anonymous_args = 0
 143              		@ link register save eliminated.
 144 0000 80B4     		push	{r7}
 145              		.cfi_def_cfa_offset 4
 146              		.cfi_offset 7, -4
 147 0002 85B0     		sub	sp, sp, #20
 148              		.cfi_def_cfa_offset 24
 149 0004 00AF     		add	r7, sp, #0
 150              		.cfi_def_cfa_register 7
 151 0006 7860     		str	r0, [r7, #4]
 152 0008 3960     		str	r1, [r7]
  31:radio_manager.c ****     uint8_t cksum=0x00;
 153              		.loc 1 31 0
 154 000a 0023     		movs	r3, #0
 155 000c FB73     		strb	r3, [r7, #15]
  32:radio_manager.c ****     uint8_t i=0;
 156              		.loc 1 32 0
 157 000e 0023     		movs	r3, #0
 158 0010 BB73     		strb	r3, [r7, #14]
  33:radio_manager.c ****     for (i=3;i<len;i++)
 159              		.loc 1 33 0
 160 0012 0323     		movs	r3, #3
 161 0014 BB73     		strb	r3, [r7, #14]
 162 0016 09E0     		b	.L11
 163              	.L12:
  34:radio_manager.c ****         cksum=cksum+msg[i];
 164              		.loc 1 34 0 discriminator 3
 165 0018 BB7B     		ldrb	r3, [r7, #14]	@ zero_extendqisi2
 166 001a 7A68     		ldr	r2, [r7, #4]
 167 001c 1344     		add	r3, r3, r2
 168 001e 1A78     		ldrb	r2, [r3]	@ zero_extendqisi2
 169 0020 FB7B     		ldrb	r3, [r7, #15]
 170 0022 1344     		add	r3, r3, r2
 171 0024 FB73     		strb	r3, [r7, #15]
  33:radio_manager.c ****     for (i=3;i<len;i++)
 172              		.loc 1 33 0 discriminator 3
 173 0026 BB7B     		ldrb	r3, [r7, #14]	@ zero_extendqisi2
 174 0028 0133     		adds	r3, r3, #1
 175 002a BB73     		strb	r3, [r7, #14]
 176              	.L11:
  33:radio_manager.c ****     for (i=3;i<len;i++)
 177              		.loc 1 33 0 is_stmt 0 discriminator 1
 178 002c BA7B     		ldrb	r2, [r7, #14]	@ zero_extendqisi2
 179 002e 3B68     		ldr	r3, [r7]
 180 0030 9A42     		cmp	r2, r3
 181 0032 F1DB     		blt	.L12
  35:radio_manager.c ****     cksum = 0xFF - cksum;
 182              		.loc 1 35 0 is_stmt 1
 183 0034 FB7B     		ldrb	r3, [r7, #15]
 184 0036 DB43     		mvns	r3, r3
 185 0038 FB73     		strb	r3, [r7, #15]
  36:radio_manager.c ****     return cksum;
 186              		.loc 1 36 0
 187 003a FB7B     		ldrb	r3, [r7, #15]	@ zero_extendqisi2
ARM GAS  D:\Windows\AppData\Local\Temp\ccMOdMwq.s 			page 5


  37:radio_manager.c **** }
 188              		.loc 1 37 0
 189 003c 1846     		mov	r0, r3
 190 003e 1437     		adds	r7, r7, #20
 191              		.cfi_def_cfa_offset 4
 192 0040 BD46     		mov	sp, r7
 193              		.cfi_def_cfa_register 13
 194              		@ sp needed
 195 0042 5DF8047B 		ldr	r7, [sp], #4
 196              		.cfi_restore 7
 197              		.cfi_def_cfa_offset 0
 198 0046 7047     		bx	lr
 199              		.cfi_endproc
 200              	.LFE65:
 201              		.size	checksum_calc, .-checksum_calc
 202              		.section	.text.checksum_verify,"ax",%progbits
 203              		.align	2
 204              		.global	checksum_verify
 205              		.thumb
 206              		.thumb_func
 207              		.type	checksum_verify, %function
 208              	checksum_verify:
 209              	.LFB66:
  38:radio_manager.c **** 
  39:radio_manager.c **** uint8_t checksum_verify(uint8_t* msg, int len) {
 210              		.loc 1 39 0
 211              		.cfi_startproc
 212              		@ args = 0, pretend = 0, frame = 16
 213              		@ frame_needed = 1, uses_anonymous_args = 0
 214              		@ link register save eliminated.
 215 0000 80B4     		push	{r7}
 216              		.cfi_def_cfa_offset 4
 217              		.cfi_offset 7, -4
 218 0002 85B0     		sub	sp, sp, #20
 219              		.cfi_def_cfa_offset 24
 220 0004 00AF     		add	r7, sp, #0
 221              		.cfi_def_cfa_register 7
 222 0006 7860     		str	r0, [r7, #4]
 223 0008 3960     		str	r1, [r7]
  40:radio_manager.c **** 	uint8_t checksum = 0x00;
 224              		.loc 1 40 0
 225 000a 0023     		movs	r3, #0
 226 000c FB73     		strb	r3, [r7, #15]
  41:radio_manager.c **** 	uint8_t i=0;
 227              		.loc 1 41 0
 228 000e 0023     		movs	r3, #0
 229 0010 BB73     		strb	r3, [r7, #14]
  42:radio_manager.c **** 	for(i=3; i<=len; i++)
 230              		.loc 1 42 0
 231 0012 0323     		movs	r3, #3
 232 0014 BB73     		strb	r3, [r7, #14]
 233 0016 09E0     		b	.L15
 234              	.L16:
  43:radio_manager.c **** 		checksum = checksum + msg[i];
 235              		.loc 1 43 0 discriminator 3
 236 0018 BB7B     		ldrb	r3, [r7, #14]	@ zero_extendqisi2
 237 001a 7A68     		ldr	r2, [r7, #4]
ARM GAS  D:\Windows\AppData\Local\Temp\ccMOdMwq.s 			page 6


 238 001c 1344     		add	r3, r3, r2
 239 001e 1A78     		ldrb	r2, [r3]	@ zero_extendqisi2
 240 0020 FB7B     		ldrb	r3, [r7, #15]
 241 0022 1344     		add	r3, r3, r2
 242 0024 FB73     		strb	r3, [r7, #15]
  42:radio_manager.c **** 	for(i=3; i<=len; i++)
 243              		.loc 1 42 0 discriminator 3
 244 0026 BB7B     		ldrb	r3, [r7, #14]	@ zero_extendqisi2
 245 0028 0133     		adds	r3, r3, #1
 246 002a BB73     		strb	r3, [r7, #14]
 247              	.L15:
  42:radio_manager.c **** 	for(i=3; i<=len; i++)
 248              		.loc 1 42 0 is_stmt 0 discriminator 1
 249 002c BA7B     		ldrb	r2, [r7, #14]	@ zero_extendqisi2
 250 002e 3B68     		ldr	r3, [r7]
 251 0030 9A42     		cmp	r2, r3
 252 0032 F1DD     		ble	.L16
  44:radio_manager.c **** 	return checksum;
 253              		.loc 1 44 0 is_stmt 1
 254 0034 FB7B     		ldrb	r3, [r7, #15]	@ zero_extendqisi2
  45:radio_manager.c **** }
 255              		.loc 1 45 0
 256 0036 1846     		mov	r0, r3
 257 0038 1437     		adds	r7, r7, #20
 258              		.cfi_def_cfa_offset 4
 259 003a BD46     		mov	sp, r7
 260              		.cfi_def_cfa_register 13
 261              		@ sp needed
 262 003c 5DF8047B 		ldr	r7, [sp], #4
 263              		.cfi_restore 7
 264              		.cfi_def_cfa_offset 0
 265 0040 7047     		bx	lr
 266              		.cfi_endproc
 267              	.LFE66:
 268              		.size	checksum_verify, .-checksum_verify
 269 0042 00BF     		.section	.text.xbee_send,"ax",%progbits
 270              		.align	2
 271              		.global	xbee_send
 272              		.thumb
 273              		.thumb_func
 274              		.type	xbee_send, %function
 275              	xbee_send:
 276              	.LFB67:
  46:radio_manager.c **** 
  47:radio_manager.c **** 
  48:radio_manager.c **** void xbee_send(DataPacket * msg) {
 277              		.loc 1 48 0
 278              		.cfi_startproc
 279              		@ args = 0, pretend = 0, frame = 8
 280              		@ frame_needed = 1, uses_anonymous_args = 0
 281 0000 80B5     		push	{r7, lr}
 282              		.cfi_def_cfa_offset 8
 283              		.cfi_offset 7, -8
 284              		.cfi_offset 14, -4
 285 0002 82B0     		sub	sp, sp, #8
 286              		.cfi_def_cfa_offset 16
 287 0004 00AF     		add	r7, sp, #0
ARM GAS  D:\Windows\AppData\Local\Temp\ccMOdMwq.s 			page 7


 288              		.cfi_def_cfa_register 7
 289 0006 7860     		str	r0, [r7, #4]
  49:radio_manager.c **** 	xbee_Tx_req(msg);
 290              		.loc 1 49 0
 291 0008 7868     		ldr	r0, [r7, #4]
 292 000a FFF7FEFF 		bl	xbee_Tx_req
  50:radio_manager.c **** }//xbee_send()
 293              		.loc 1 50 0
 294 000e 0837     		adds	r7, r7, #8
 295              		.cfi_def_cfa_offset 8
 296 0010 BD46     		mov	sp, r7
 297              		.cfi_def_cfa_register 13
 298              		@ sp needed
 299 0012 80BD     		pop	{r7, pc}
 300              		.cfi_endproc
 301              	.LFE67:
 302              		.size	xbee_send, .-xbee_send
 303              		.section	.text.xbee_Tx_req,"ax",%progbits
 304              		.align	2
 305              		.global	xbee_Tx_req
 306              		.thumb
 307              		.thumb_func
 308              		.type	xbee_Tx_req, %function
 309              	xbee_Tx_req:
 310              	.LFB68:
  51:radio_manager.c **** 
  52:radio_manager.c **** 
  53:radio_manager.c **** void xbee_Tx_req(DataPacket* msg) {
 311              		.loc 1 53 0
 312              		.cfi_startproc
 313              		@ args = 0, pretend = 0, frame = 48
 314              		@ frame_needed = 1, uses_anonymous_args = 0
 315 0000 80B5     		push	{r7, lr}
 316              		.cfi_def_cfa_offset 8
 317              		.cfi_offset 7, -8
 318              		.cfi_offset 14, -4
 319 0002 8CB0     		sub	sp, sp, #48
 320              		.cfi_def_cfa_offset 56
 321 0004 00AF     		add	r7, sp, #0
 322              		.cfi_def_cfa_register 7
 323 0006 7860     		str	r0, [r7, #4]
  54:radio_manager.c ****     uint8_t API_frame[34];
  55:radio_manager.c ****     
  56:radio_manager.c ****     API_frame[0]=STARTER_DELIMITER;  //starter   
 324              		.loc 1 56 0
 325 0008 7E23     		movs	r3, #126
 326 000a 3B73     		strb	r3, [r7, #12]
  57:radio_manager.c ****     API_frame[1]=0x00;           //MSB L 
 327              		.loc 1 57 0
 328 000c 0023     		movs	r3, #0
 329 000e 7B73     		strb	r3, [r7, #13]
  58:radio_manager.c ****     API_frame[2]=0x1D;           //LSB L number of bytes between length and checksum
 330              		.loc 1 58 0
 331 0010 1D23     		movs	r3, #29
 332 0012 BB73     		strb	r3, [r7, #14]
  59:radio_manager.c ****     
  60:radio_manager.c ****     API_frame[3]=0x10;           //Frame type, TX Request
ARM GAS  D:\Windows\AppData\Local\Temp\ccMOdMwq.s 			page 8


 333              		.loc 1 60 0
 334 0014 1023     		movs	r3, #16
 335 0016 FB73     		strb	r3, [r7, #15]
  61:radio_manager.c ****     API_frame[4]=0x00;           //Frame ID
 336              		.loc 1 61 0
 337 0018 0023     		movs	r3, #0
 338 001a 3B74     		strb	r3, [r7, #16]
  62:radio_manager.c ****     
  63:radio_manager.c ****     API_frame[5]=addr[0];        //desination address
 339              		.loc 1 63 0
 340 001c 3B4B     		ldr	r3, .L20
 341 001e 1B78     		ldrb	r3, [r3]	@ zero_extendqisi2
 342 0020 7B74     		strb	r3, [r7, #17]
  64:radio_manager.c ****     API_frame[6]=addr[1];
 343              		.loc 1 64 0
 344 0022 3A4B     		ldr	r3, .L20
 345 0024 5B78     		ldrb	r3, [r3, #1]	@ zero_extendqisi2
 346 0026 BB74     		strb	r3, [r7, #18]
  65:radio_manager.c ****     API_frame[7]=addr[2];
 347              		.loc 1 65 0
 348 0028 384B     		ldr	r3, .L20
 349 002a 9B78     		ldrb	r3, [r3, #2]	@ zero_extendqisi2
 350 002c FB74     		strb	r3, [r7, #19]
  66:radio_manager.c ****     API_frame[8]=addr[3];
 351              		.loc 1 66 0
 352 002e 374B     		ldr	r3, .L20
 353 0030 DB78     		ldrb	r3, [r3, #3]	@ zero_extendqisi2
 354 0032 3B75     		strb	r3, [r7, #20]
  67:radio_manager.c ****     API_frame[9]=addr[4];
 355              		.loc 1 67 0
 356 0034 354B     		ldr	r3, .L20
 357 0036 1B79     		ldrb	r3, [r3, #4]	@ zero_extendqisi2
 358 0038 7B75     		strb	r3, [r7, #21]
  68:radio_manager.c ****     API_frame[10]=addr[5];
 359              		.loc 1 68 0
 360 003a 344B     		ldr	r3, .L20
 361 003c 5B79     		ldrb	r3, [r3, #5]	@ zero_extendqisi2
 362 003e BB75     		strb	r3, [r7, #22]
  69:radio_manager.c ****     API_frame[11]=addr[6];
 363              		.loc 1 69 0
 364 0040 324B     		ldr	r3, .L20
 365 0042 9B79     		ldrb	r3, [r3, #6]	@ zero_extendqisi2
 366 0044 FB75     		strb	r3, [r7, #23]
  70:radio_manager.c ****     API_frame[12]=addr[7];
 367              		.loc 1 70 0
 368 0046 314B     		ldr	r3, .L20
 369 0048 DB79     		ldrb	r3, [r3, #7]	@ zero_extendqisi2
 370 004a 3B76     		strb	r3, [r7, #24]
  71:radio_manager.c ****     
  72:radio_manager.c ****     API_frame[13]=0xFF;          //reserved 0xFFFE
 371              		.loc 1 72 0
 372 004c FF23     		movs	r3, #255
 373 004e 7B76     		strb	r3, [r7, #25]
  73:radio_manager.c ****     API_frame[14]=0xFE;
 374              		.loc 1 73 0
 375 0050 FE23     		movs	r3, #254
 376 0052 BB76     		strb	r3, [r7, #26]
ARM GAS  D:\Windows\AppData\Local\Temp\ccMOdMwq.s 			page 9


  74:radio_manager.c ****     API_frame[15]=0x00;          //broadcast radius, max num of hops a transmission can occur
 377              		.loc 1 74 0
 378 0054 0023     		movs	r3, #0
 379 0056 FB76     		strb	r3, [r7, #27]
  75:radio_manager.c ****     API_frame[16]=0x00;          //transmit options
 380              		.loc 1 75 0
 381 0058 0023     		movs	r3, #0
 382 005a 3B77     		strb	r3, [r7, #28]
  76:radio_manager.c ****     
  77:radio_manager.c ****     //RF data, CAN packet, 15bytes
  78:radio_manager.c ****     API_frame[17]=(msg->id>>8) & 0xFF;   		//id
 383              		.loc 1 78 0
 384 005c 7B68     		ldr	r3, [r7, #4]
 385 005e 9B88     		ldrh	r3, [r3, #4]
 386 0060 1B0A     		lsrs	r3, r3, #8
 387 0062 9BB2     		uxth	r3, r3
 388 0064 DBB2     		uxtb	r3, r3
 389 0066 7B77     		strb	r3, [r7, #29]
  79:radio_manager.c ****     API_frame[18]=msg->id & 0xFF;  
 390              		.loc 1 79 0
 391 0068 7B68     		ldr	r3, [r7, #4]
 392 006a 9B88     		ldrh	r3, [r3, #4]
 393 006c DBB2     		uxtb	r3, r3
 394 006e BB77     		strb	r3, [r7, #30]
  80:radio_manager.c ****     
  81:radio_manager.c ****     //API_frame[19]=msg->length;            		//length
  82:radio_manager.c ****     
  83:radio_manager.c ****     API_frame[19] = msg->millicounter >> 24;   //timestamp
 395              		.loc 1 83 0
 396 0070 7B68     		ldr	r3, [r7, #4]
 397 0072 1B68     		ldr	r3, [r3]
 398 0074 1B0E     		lsrs	r3, r3, #24
 399 0076 DBB2     		uxtb	r3, r3
 400 0078 FB77     		strb	r3, [r7, #31]
  84:radio_manager.c ****     API_frame[20] = msg->millicounter >> 16;
 401              		.loc 1 84 0
 402 007a 7B68     		ldr	r3, [r7, #4]
 403 007c 1B68     		ldr	r3, [r3]
 404 007e 1B0C     		lsrs	r3, r3, #16
 405 0080 DBB2     		uxtb	r3, r3
 406 0082 87F82030 		strb	r3, [r7, #32]
  85:radio_manager.c ****     API_frame[21] = msg->millicounter >> 8;
 407              		.loc 1 85 0
 408 0086 7B68     		ldr	r3, [r7, #4]
 409 0088 1B68     		ldr	r3, [r3]
 410 008a 1B0A     		lsrs	r3, r3, #8
 411 008c DBB2     		uxtb	r3, r3
 412 008e 87F82130 		strb	r3, [r7, #33]
  86:radio_manager.c ****     API_frame[22] = msg->millicounter;     
 413              		.loc 1 86 0
 414 0092 7B68     		ldr	r3, [r7, #4]
 415 0094 1B68     		ldr	r3, [r3]
 416 0096 DBB2     		uxtb	r3, r3
 417 0098 87F82230 		strb	r3, [r7, #34]
  87:radio_manager.c ****     
  88:radio_manager.c ****     API_frame[23]=msg->data[0];           		//data
 418              		.loc 1 88 0
ARM GAS  D:\Windows\AppData\Local\Temp\ccMOdMwq.s 			page 10


 419 009c 7B68     		ldr	r3, [r7, #4]
 420 009e DB79     		ldrb	r3, [r3, #7]	@ zero_extendqisi2
 421 00a0 87F82330 		strb	r3, [r7, #35]
  89:radio_manager.c ****     API_frame[24]=msg->data[1];
 422              		.loc 1 89 0
 423 00a4 7B68     		ldr	r3, [r7, #4]
 424 00a6 1B7A     		ldrb	r3, [r3, #8]	@ zero_extendqisi2
 425 00a8 87F82430 		strb	r3, [r7, #36]
  90:radio_manager.c ****     API_frame[25]=msg->data[2];  
 426              		.loc 1 90 0
 427 00ac 7B68     		ldr	r3, [r7, #4]
 428 00ae 5B7A     		ldrb	r3, [r3, #9]	@ zero_extendqisi2
 429 00b0 87F82530 		strb	r3, [r7, #37]
  91:radio_manager.c ****     API_frame[26]=msg->data[3];  
 430              		.loc 1 91 0
 431 00b4 7B68     		ldr	r3, [r7, #4]
 432 00b6 9B7A     		ldrb	r3, [r3, #10]	@ zero_extendqisi2
 433 00b8 87F82630 		strb	r3, [r7, #38]
  92:radio_manager.c ****     API_frame[27]=msg->data[4];  
 434              		.loc 1 92 0
 435 00bc 7B68     		ldr	r3, [r7, #4]
 436 00be DB7A     		ldrb	r3, [r3, #11]	@ zero_extendqisi2
 437 00c0 87F82730 		strb	r3, [r7, #39]
  93:radio_manager.c ****     API_frame[28]=msg->data[5];  
 438              		.loc 1 93 0
 439 00c4 7B68     		ldr	r3, [r7, #4]
 440 00c6 1B7B     		ldrb	r3, [r3, #12]	@ zero_extendqisi2
 441 00c8 87F82830 		strb	r3, [r7, #40]
  94:radio_manager.c ****     API_frame[29]=msg->data[6];  
 442              		.loc 1 94 0
 443 00cc 7B68     		ldr	r3, [r7, #4]
 444 00ce 5B7B     		ldrb	r3, [r3, #13]	@ zero_extendqisi2
 445 00d0 87F82930 		strb	r3, [r7, #41]
  95:radio_manager.c ****     API_frame[30]=msg->data[7];  
 446              		.loc 1 95 0
 447 00d4 7B68     		ldr	r3, [r7, #4]
 448 00d6 9B7B     		ldrb	r3, [r3, #14]	@ zero_extendqisi2
 449 00d8 87F82A30 		strb	r3, [r7, #42]
  96:radio_manager.c ****     
  97:radio_manager.c **** 	API_frame[31]=0xFF;
 450              		.loc 1 97 0
 451 00dc FF23     		movs	r3, #255
 452 00de 87F82B30 		strb	r3, [r7, #43]
  98:radio_manager.c **** 	API_frame[32]=0x0A;
 453              		.loc 1 98 0
 454 00e2 0A23     		movs	r3, #10
 455 00e4 87F82C30 		strb	r3, [r7, #44]
  99:radio_manager.c **** 	
 100:radio_manager.c ****     API_frame[33]=checksum_calc(API_frame,33);
 456              		.loc 1 100 0
 457 00e8 07F10C03 		add	r3, r7, #12
 458 00ec 1846     		mov	r0, r3
 459 00ee 2121     		movs	r1, #33
 460 00f0 FFF7FEFF 		bl	checksum_calc
 461 00f4 0346     		mov	r3, r0
 462 00f6 87F82D30 		strb	r3, [r7, #45]
 101:radio_manager.c **** 
ARM GAS  D:\Windows\AppData\Local\Temp\ccMOdMwq.s 			page 11


 102:radio_manager.c **** 	xbee_spi_PutArray(API_frame, 34);
 463              		.loc 1 102 0
 464 00fa 07F10C03 		add	r3, r7, #12
 465 00fe 1846     		mov	r0, r3
 466 0100 2221     		movs	r1, #34
 467 0102 FFF7FEFF 		bl	xbee_spi_PutArray
 103:radio_manager.c **** }
 468              		.loc 1 103 0
 469 0106 3037     		adds	r7, r7, #48
 470              		.cfi_def_cfa_offset 8
 471 0108 BD46     		mov	sp, r7
 472              		.cfi_def_cfa_register 13
 473              		@ sp needed
 474 010a 80BD     		pop	{r7, pc}
 475              	.L21:
 476              		.align	2
 477              	.L20:
 478 010c 00000000 		.word	addr
 479              		.cfi_endproc
 480              	.LFE68:
 481              		.size	xbee_Tx_req, .-xbee_Tx_req
 482              		.section	.text.xbee_Tx_req_test,"ax",%progbits
 483              		.align	2
 484              		.global	xbee_Tx_req_test
 485              		.thumb
 486              		.thumb_func
 487              		.type	xbee_Tx_req_test, %function
 488              	xbee_Tx_req_test:
 489              	.LFB69:
 104:radio_manager.c **** 
 105:radio_manager.c **** 
 106:radio_manager.c **** void xbee_Tx_req_test(){
 490              		.loc 1 106 0
 491              		.cfi_startproc
 492              		@ args = 0, pretend = 0, frame = 40
 493              		@ frame_needed = 1, uses_anonymous_args = 0
 494 0000 80B5     		push	{r7, lr}
 495              		.cfi_def_cfa_offset 8
 496              		.cfi_offset 7, -8
 497              		.cfi_offset 14, -4
 498 0002 8AB0     		sub	sp, sp, #40
 499              		.cfi_def_cfa_offset 48
 500 0004 00AF     		add	r7, sp, #0
 501              		.cfi_def_cfa_register 7
 107:radio_manager.c **** 	int i;
 108:radio_manager.c **** 	for(i=100; i<101; i++) {
 502              		.loc 1 108 0
 503 0006 6423     		movs	r3, #100
 504 0008 7B62     		str	r3, [r7, #36]
 505 000a 60E0     		b	.L23
 506              	.L24:
 507              	.LBB2:
 109:radio_manager.c **** 		//uint8_t test_msg[33] = {0x7E, 0x00, 0x1D, 0x10, 0x00, 0x00, 0x00, 0x00, 0x00, 0x00, 0x00, 0xFF,
 110:radio_manager.c **** 	    uint8_t msg[34];
 111:radio_manager.c **** 	    
 112:radio_manager.c **** 	    msg[0] = STARTER_DELIMITER; //starter
 508              		.loc 1 112 0 discriminator 3
ARM GAS  D:\Windows\AppData\Local\Temp\ccMOdMwq.s 			page 12


 509 000c 7E23     		movs	r3, #126
 510 000e 3B70     		strb	r3, [r7]
 113:radio_manager.c **** 	    msg[1] = 0x00;      //MSB len
 511              		.loc 1 113 0 discriminator 3
 512 0010 0023     		movs	r3, #0
 513 0012 7B70     		strb	r3, [r7, #1]
 114:radio_manager.c **** 	    msg[2] = 0x1E;      //LSB len                    
 514              		.loc 1 114 0 discriminator 3
 515 0014 1E23     		movs	r3, #30
 516 0016 BB70     		strb	r3, [r7, #2]
 115:radio_manager.c **** 	    
 116:radio_manager.c **** 	    msg[3] = 0x10;      //frame type
 517              		.loc 1 116 0 discriminator 3
 518 0018 1023     		movs	r3, #16
 519 001a FB70     		strb	r3, [r7, #3]
 117:radio_manager.c **** 	    msg[4] = 0x00;      //frame id
 520              		.loc 1 117 0 discriminator 3
 521 001c 0023     		movs	r3, #0
 522 001e 3B71     		strb	r3, [r7, #4]
 118:radio_manager.c **** 	    
 119:radio_manager.c **** 		msg[5] = addr[0];      //receiver addr
 523              		.loc 1 119 0 discriminator 3
 524 0020 2E4B     		ldr	r3, .L26
 525 0022 1B78     		ldrb	r3, [r3]	@ zero_extendqisi2
 526 0024 7B71     		strb	r3, [r7, #5]
 120:radio_manager.c **** 	    msg[6] = addr[1]; 
 527              		.loc 1 120 0 discriminator 3
 528 0026 2D4B     		ldr	r3, .L26
 529 0028 5B78     		ldrb	r3, [r3, #1]	@ zero_extendqisi2
 530 002a BB71     		strb	r3, [r7, #6]
 121:radio_manager.c **** 	    msg[7] = addr[2];
 531              		.loc 1 121 0 discriminator 3
 532 002c 2B4B     		ldr	r3, .L26
 533 002e 9B78     		ldrb	r3, [r3, #2]	@ zero_extendqisi2
 534 0030 FB71     		strb	r3, [r7, #7]
 122:radio_manager.c **** 	    msg[8] = addr[3];
 535              		.loc 1 122 0 discriminator 3
 536 0032 2A4B     		ldr	r3, .L26
 537 0034 DB78     		ldrb	r3, [r3, #3]	@ zero_extendqisi2
 538 0036 3B72     		strb	r3, [r7, #8]
 123:radio_manager.c **** 	    msg[9] = addr[4]; 
 539              		.loc 1 123 0 discriminator 3
 540 0038 284B     		ldr	r3, .L26
 541 003a 1B79     		ldrb	r3, [r3, #4]	@ zero_extendqisi2
 542 003c 7B72     		strb	r3, [r7, #9]
 124:radio_manager.c **** 	    msg[10] = addr[5];
 543              		.loc 1 124 0 discriminator 3
 544 003e 274B     		ldr	r3, .L26
 545 0040 5B79     		ldrb	r3, [r3, #5]	@ zero_extendqisi2
 546 0042 BB72     		strb	r3, [r7, #10]
 125:radio_manager.c **** 	    msg[11] = addr[6];
 547              		.loc 1 125 0 discriminator 3
 548 0044 254B     		ldr	r3, .L26
 549 0046 9B79     		ldrb	r3, [r3, #6]	@ zero_extendqisi2
 550 0048 FB72     		strb	r3, [r7, #11]
 126:radio_manager.c **** 	    msg[12] = addr[7];
 551              		.loc 1 126 0 discriminator 3
ARM GAS  D:\Windows\AppData\Local\Temp\ccMOdMwq.s 			page 13


 552 004a 244B     		ldr	r3, .L26
 553 004c DB79     		ldrb	r3, [r3, #7]	@ zero_extendqisi2
 554 004e 3B73     		strb	r3, [r7, #12]
 127:radio_manager.c **** 		
 128:radio_manager.c **** 		/*
 129:radio_manager.c **** 	    msg[5] = 0x00;      //receiver addr
 130:radio_manager.c **** 	    msg[6] = 0x13; 
 131:radio_manager.c **** 	    msg[7] = 0xA2;
 132:radio_manager.c **** 	    msg[8] = 0x00;
 133:radio_manager.c **** 	    msg[9] = 0x41; 
 134:radio_manager.c **** 	    msg[10] = 0x52;
 135:radio_manager.c **** 	    msg[11] = 0xE9;
 136:radio_manager.c **** 	    msg[12] = 0x17;
 137:radio_manager.c **** 	    */
 138:radio_manager.c **** 		/*
 139:radio_manager.c **** 	    msg[5] = 0x00;      //receiver addr
 140:radio_manager.c **** 	    msg[6] = 0x00; 
 141:radio_manager.c **** 	    msg[7] = 0x00;
 142:radio_manager.c **** 	    msg[8] = 0x00;
 143:radio_manager.c **** 	    msg[9] = 0x00; 
 144:radio_manager.c **** 	    msg[10] = 0x00;
 145:radio_manager.c **** 	    msg[11] = 0xFF;
 146:radio_manager.c **** 	    msg[12] = 0xFF;
 147:radio_manager.c **** 	    */
 148:radio_manager.c **** 		
 149:radio_manager.c **** 	    msg[13] = 0xFF;     //0xFFFE reserved
 555              		.loc 1 149 0 discriminator 3
 556 0050 FF23     		movs	r3, #255
 557 0052 7B73     		strb	r3, [r7, #13]
 150:radio_manager.c **** 	    msg[14] = 0xFE;     
 558              		.loc 1 150 0 discriminator 3
 559 0054 FE23     		movs	r3, #254
 560 0056 BB73     		strb	r3, [r7, #14]
 151:radio_manager.c **** 	    msg[15] = 0x00;     //broadcast radius
 561              		.loc 1 151 0 discriminator 3
 562 0058 0023     		movs	r3, #0
 563 005a FB73     		strb	r3, [r7, #15]
 152:radio_manager.c **** 	    msg[16] = 0x00;     //transmit options
 564              		.loc 1 152 0 discriminator 3
 565 005c 0023     		movs	r3, #0
 566 005e 3B74     		strb	r3, [r7, #16]
 153:radio_manager.c **** 	    
 154:radio_manager.c **** 	    //data, CAN packet 15bytes
 155:radio_manager.c **** 	    msg[17] = 0x09;     //id
 567              		.loc 1 155 0 discriminator 3
 568 0060 0923     		movs	r3, #9
 569 0062 7B74     		strb	r3, [r7, #17]
 156:radio_manager.c **** 	    msg[18] = 0x99;
 570              		.loc 1 156 0 discriminator 3
 571 0064 9923     		movs	r3, #153
 572 0066 BB74     		strb	r3, [r7, #18]
 157:radio_manager.c **** 	    //msg[19] = 8;        //len
 158:radio_manager.c **** 	    
 159:radio_manager.c **** 	    msg[19] = 0x00;     //timestamp
 573              		.loc 1 159 0 discriminator 3
 574 0068 0023     		movs	r3, #0
 575 006a FB74     		strb	r3, [r7, #19]
ARM GAS  D:\Windows\AppData\Local\Temp\ccMOdMwq.s 			page 14


 160:radio_manager.c **** 	    msg[20] = 0x00;
 576              		.loc 1 160 0 discriminator 3
 577 006c 0023     		movs	r3, #0
 578 006e 3B75     		strb	r3, [r7, #20]
 161:radio_manager.c **** 	    msg[21] = 0x00;
 579              		.loc 1 161 0 discriminator 3
 580 0070 0023     		movs	r3, #0
 581 0072 7B75     		strb	r3, [r7, #21]
 162:radio_manager.c **** 	    msg[22] = 0x01;     
 582              		.loc 1 162 0 discriminator 3
 583 0074 0123     		movs	r3, #1
 584 0076 BB75     		strb	r3, [r7, #22]
 163:radio_manager.c **** 	    
 164:radio_manager.c **** 	    msg[23]=1;           //data
 585              		.loc 1 164 0 discriminator 3
 586 0078 0123     		movs	r3, #1
 587 007a FB75     		strb	r3, [r7, #23]
 165:radio_manager.c **** 	    msg[24]=2;
 588              		.loc 1 165 0 discriminator 3
 589 007c 0223     		movs	r3, #2
 590 007e 3B76     		strb	r3, [r7, #24]
 166:radio_manager.c **** 	    msg[25]=3;  
 591              		.loc 1 166 0 discriminator 3
 592 0080 0323     		movs	r3, #3
 593 0082 7B76     		strb	r3, [r7, #25]
 167:radio_manager.c **** 	    msg[26]=4;  
 594              		.loc 1 167 0 discriminator 3
 595 0084 0423     		movs	r3, #4
 596 0086 BB76     		strb	r3, [r7, #26]
 168:radio_manager.c **** 	    msg[27]=5;  
 597              		.loc 1 168 0 discriminator 3
 598 0088 0523     		movs	r3, #5
 599 008a FB76     		strb	r3, [r7, #27]
 169:radio_manager.c **** 	    msg[28]=6;  
 600              		.loc 1 169 0 discriminator 3
 601 008c 0623     		movs	r3, #6
 602 008e 3B77     		strb	r3, [r7, #28]
 170:radio_manager.c **** 	    msg[29]=7;  
 603              		.loc 1 170 0 discriminator 3
 604 0090 0723     		movs	r3, #7
 605 0092 7B77     		strb	r3, [r7, #29]
 171:radio_manager.c **** 	    msg[30]=8;  
 606              		.loc 1 171 0 discriminator 3
 607 0094 0823     		movs	r3, #8
 608 0096 BB77     		strb	r3, [r7, #30]
 172:radio_manager.c **** 	    
 173:radio_manager.c **** 		msg[31]=0xFF;
 609              		.loc 1 173 0 discriminator 3
 610 0098 FF23     		movs	r3, #255
 611 009a FB77     		strb	r3, [r7, #31]
 174:radio_manager.c **** 		msg[32]=0x0A;
 612              		.loc 1 174 0 discriminator 3
 613 009c 0A23     		movs	r3, #10
 614 009e 87F82030 		strb	r3, [r7, #32]
 175:radio_manager.c **** 		
 176:radio_manager.c **** 	    msg[33]=checksum_calc(msg,33);
 615              		.loc 1 176 0 discriminator 3
ARM GAS  D:\Windows\AppData\Local\Temp\ccMOdMwq.s 			page 15


 616 00a2 3B46     		mov	r3, r7
 617 00a4 1846     		mov	r0, r3
 618 00a6 2121     		movs	r1, #33
 619 00a8 FFF7FEFF 		bl	checksum_calc
 620 00ac 0346     		mov	r3, r0
 621 00ae 87F82130 		strb	r3, [r7, #33]
 177:radio_manager.c **** 	  
 178:radio_manager.c **** 	    LED_Write(1);
 622              		.loc 1 178 0 discriminator 3
 623 00b2 0120     		movs	r0, #1
 624 00b4 FFF7FEFF 		bl	LED_Write
 179:radio_manager.c **** 	    xbee_spi_PutArray(msg, 34);
 625              		.loc 1 179 0 discriminator 3
 626 00b8 3B46     		mov	r3, r7
 627 00ba 1846     		mov	r0, r3
 628 00bc 2221     		movs	r1, #34
 629 00be FFF7FEFF 		bl	xbee_spi_PutArray
 180:radio_manager.c **** 	    LED_Write(0);
 630              		.loc 1 180 0 discriminator 3
 631 00c2 0020     		movs	r0, #0
 632 00c4 FFF7FEFF 		bl	LED_Write
 633              	.LBE2:
 108:radio_manager.c **** 		//uint8_t test_msg[33] = {0x7E, 0x00, 0x1D, 0x10, 0x00, 0x00, 0x00, 0x00, 0x00, 0x00, 0x00, 0xFF,
 634              		.loc 1 108 0 discriminator 3
 635 00c8 7B6A     		ldr	r3, [r7, #36]
 636 00ca 0133     		adds	r3, r3, #1
 637 00cc 7B62     		str	r3, [r7, #36]
 638              	.L23:
 108:radio_manager.c **** 		//uint8_t test_msg[33] = {0x7E, 0x00, 0x1D, 0x10, 0x00, 0x00, 0x00, 0x00, 0x00, 0x00, 0x00, 0xFF,
 639              		.loc 1 108 0 is_stmt 0 discriminator 1
 640 00ce 7B6A     		ldr	r3, [r7, #36]
 641 00d0 642B     		cmp	r3, #100
 642 00d2 9BDD     		ble	.L24
 181:radio_manager.c **** 	}
 182:radio_manager.c ****     return;
 643              		.loc 1 182 0 is_stmt 1
 644 00d4 00BF     		nop
 183:radio_manager.c **** }
 645              		.loc 1 183 0
 646 00d6 2837     		adds	r7, r7, #40
 647              		.cfi_def_cfa_offset 8
 648 00d8 BD46     		mov	sp, r7
 649              		.cfi_def_cfa_register 13
 650              		@ sp needed
 651 00da 80BD     		pop	{r7, pc}
 652              	.L27:
 653              		.align	2
 654              	.L26:
 655 00dc 00000000 		.word	addr
 656              		.cfi_endproc
 657              	.LFE69:
 658              		.size	xbee_Tx_req_test, .-xbee_Tx_req_test
 659              		.text
 660              	.Letext0:
 661              		.file 2 "d:\\programming\\cypress\\psoc creator\\4.0\\psoc creator\\import\\gnu\\arm\\4.9.3\\arm-n
 662              		.file 3 "d:\\programming\\cypress\\psoc creator\\4.0\\psoc creator\\import\\gnu\\arm\\4.9.3\\arm-n
 663              		.file 4 "data.h"
ARM GAS  D:\Windows\AppData\Local\Temp\ccMOdMwq.s 			page 16


 664              		.file 5 "Generated_Source\\PSoC5/core_cm3.h"