ARM GAS  D:\Windows\AppData\Local\Temp\ccMOdMwq.s 			page 1


   1              		.syntax unified
   2              		.cpu cortex-m3
   3              		.fpu softvfp
   4              		.eabi_attribute 20, 1
   5              		.eabi_attribute 21, 1
   6              		.eabi_attribute 23, 3
   7              		.eabi_attribute 24, 1
   8              		.eabi_attribute 25, 1
   9              		.eabi_attribute 26, 1
  10              		.eabi_attribute 30, 6
  11              		.eabi_attribute 34, 1
  12              		.eabi_attribute 18, 4
  13              		.thumb
  14              		.file	"radio_manager.c"
  15              		.text
  16              	.Ltext0:
  17              		.cfi_sections	.debug_frame
  18              		.bss
  19              		.align	2
  20              	addr:
  21 0000 00000000 		.space	8
  21      00000000 
  22              		.section	.text.radio_init_SPI,"ax",%progbits
  23              		.align	2
  24              		.global	radio_init_SPI
  25              		.thumb
  26              		.thumb_func
  27              		.type	radio_init_SPI, %function
  28              	radio_init_SPI:
  29              	.LFB63:
  30              		.file 1 "radio_manager.c"
   1:radio_manager.c **** /* Enables xbee transmission to another xbee wirelessly in SPI Operation
   2:radio_manager.c **** 	SPI 
   3:radio_manager.c **** 	XBEE in API Mode, read xbee documentation
   4:radio_manager.c **** */
   5:radio_manager.c **** #include "radio_manager.h"
   6:radio_manager.c **** 
   7:radio_manager.c **** static uint8_t addr[8];
   8:radio_manager.c **** 
   9:radio_manager.c **** 
  10:radio_manager.c **** void radio_init_SPI(void) {
  31              		.loc 1 10 0
  32              		.cfi_startproc
  33              		@ args = 0, pretend = 0, frame = 0
  34              		@ frame_needed = 1, uses_anonymous_args = 0
  35 0000 80B5     		push	{r7, lr}
  36              		.cfi_def_cfa_offset 8
  37              		.cfi_offset 7, -8
  38              		.cfi_offset 14, -4
  39 0002 00AF     		add	r7, sp, #0
  40              		.cfi_def_cfa_register 7
  11:radio_manager.c ****     xbee_spi_Start();
  41              		.loc 1 11 0
  42 0004 FFF7FEFF 		bl	xbee_spi_Start
  12:radio_manager.c ****     set_des_addr(DES_ADDR);
  43              		.loc 1 12 0
  44 0008 03A1     		adr	r1, .L2
ARM GAS  D:\Windows\AppData\Local\Temp\ccMOdMwq.s 			page 2


  45 000a D1E90001 		ldrd	r0, [r1]
  46 000e FFF7FEFF 		bl	set_des_addr
  13:radio_manager.c **** }
  47              		.loc 1 13 0
  48 0012 80BD     		pop	{r7, pc}
  49              	.L3:
  50 0014 AFF30080 		.align	3
  51              	.L2:
  52 0018 17E95241 		.word	1095952663
  53 001c 00A21300 		.word	1286656
  54              		.cfi_endproc
  55              	.LFE63:
  56              		.size	radio_init_SPI, .-radio_init_SPI
  57              		.section	.text.set_des_addr,"ax",%progbits
  58              		.align	2
  59              		.global	set_des_addr
  60              		.thumb
  61              		.thumb_func
  62              		.type	set_des_addr, %function
  63              	set_des_addr:
  64              	.LFB64:
  14:radio_manager.c **** 
  15:radio_manager.c **** 
  16:radio_manager.c **** //put des addr into array, MSB first for transmission
  17:radio_manager.c **** void set_des_addr(uint64_t newAddr) {
  65              		.loc 1 17 0
  66              		.cfi_startproc
  67              		@ args = 0, pretend = 0, frame = 16
  68              		@ frame_needed = 1, uses_anonymous_args = 0
  69 0000 F0B5     		push	{r4, r5, r6, r7, lr}
  70              		.cfi_def_cfa_offset 20
  71              		.cfi_offset 4, -20
  72              		.cfi_offset 5, -16
  73              		.cfi_offset 6, -12
  74              		.cfi_offset 7, -8
  75              		.cfi_offset 14, -4
  76 0002 85B0     		sub	sp, sp, #20
  77              		.cfi_def_cfa_offset 40
  78 0004 00AF     		add	r7, sp, #0
  79              		.cfi_def_cfa_register 7
  80 0006 C7E90001 		strd	r0, [r7]
  18:radio_manager.c ****     int i=0;
  81              		.loc 1 18 0
  82 000a 0021     		movs	r1, #0
  83 000c F960     		str	r1, [r7, #12]
  19:radio_manager.c ****     for (i=0;i<8;i++){
  84              		.loc 1 19 0
  85 000e 0021     		movs	r1, #0
  86 0010 F960     		str	r1, [r7, #12]
  87 0012 1BE0     		b	.L5
  88              	.L6:
  20:radio_manager.c ****         addr[7-i]=(newAddr>>(8*i)) & 0xff;
  89              		.loc 1 20 0 discriminator 3
  90 0014 F968     		ldr	r1, [r7, #12]
  91 0016 C1F1070E 		rsb	lr, r1, #7
  92 001a F968     		ldr	r1, [r7, #12]
  93 001c CC00     		lsls	r4, r1, #3
ARM GAS  D:\Windows\AppData\Local\Temp\ccMOdMwq.s 			page 3


  94 001e D7E90001 		ldrd	r0, [r7]
  95 0022 C4F12006 		rsb	r6, r4, #32
  96 0026 A4F12005 		sub	r5, r4, #32
  97 002a 20FA04F2 		lsr	r2, r0, r4
  98 002e 01FA06F6 		lsl	r6, r1, r6
  99 0032 3243     		orrs	r2, r2, r6
 100 0034 21FA05F5 		lsr	r5, r1, r5
 101 0038 2A43     		orrs	r2, r2, r5
 102 003a 21FA04F3 		lsr	r3, r1, r4
 103 003e D0B2     		uxtb	r0, r2
 104 0040 0649     		ldr	r1, .L8
 105 0042 01F80E00 		strb	r0, [r1, lr]
  19:radio_manager.c ****     for (i=0;i<8;i++){
 106              		.loc 1 19 0 discriminator 3
 107 0046 F968     		ldr	r1, [r7, #12]
 108 0048 0131     		adds	r1, r1, #1
 109 004a F960     		str	r1, [r7, #12]
 110              	.L5:
  19:radio_manager.c ****     for (i=0;i<8;i++){
 111              		.loc 1 19 0 is_stmt 0 discriminator 1
 112 004c F968     		ldr	r1, [r7, #12]
 113 004e 0729     		cmp	r1, #7
 114 0050 E0DD     		ble	.L6
  21:radio_manager.c ****     }
  22:radio_manager.c ****     return;
 115              		.loc 1 22 0 is_stmt 1
 116 0052 00BF     		nop
  23:radio_manager.c **** }
 117              		.loc 1 23 0
 118 0054 1437     		adds	r7, r7, #20
 119              		.cfi_def_cfa_offset 20
 120 0056 BD46     		mov	sp, r7
 121              		.cfi_def_cfa_register 13
 122              		@ sp needed
 123 0058 F0BD     		pop	{r4, r5, r6, r7, pc}
 124              	.L9:
 125 005a 00BF     		.align	2
 126              	.L8:
 127 005c 00000000 		.word	addr
 128              		.cfi_endproc
 129              	.LFE64:
 130              		.size	set_des_addr, .-set_des_addr
 131              		.section	.text.checksum_calc,"ax",%progbits
 132              		.align	2
 133              		.global	checksum_calc
 134              		.thumb
 135              		.thumb_func
 136              		.type	checksum_calc, %function
 137              	checksum_calc:
 138              	.LFB65:
  24:radio_manager.c **** 
  25:radio_manager.c **** 
  26:radio_manager.c **** /*  to calculate: excluding frame delimiters and length bytes (msg[0-2]), 
  27:radio_manager.c **** 	add all bytes keeping the lowest 8-bits of the result and subtract the result from 0xFF 
  28:radio_manager.c **** 
  29:radio_manager.c ****     to verify: add all bytes (including checksum, excluding delimiter and length) = 0xFF */
  30:radio_manager.c **** uint8_t checksum_calc(uint8_t* msg,int len){
ARM GAS  D:\Windows\AppData\Local\Temp\ccMOdMwq.s 			page 4


 139              		.loc 1 30 0
 140              		.cfi_startproc
 141              		@ args = 0, pretend = 0, frame = 16
 142              		@ frame_needed = 1, uses_anonymous_args = 0
 143              		@ link register save eliminated.
 144 0000 80B4     		push	{r7}
 145              		.cfi_def_cfa_offset 4
 146              		.cfi_offset 7, -4
 147 0002 85B0     		sub	sp, sp, #20
 148              		.cfi_def_cfa_offset 24
 149 0004 00AF     		add	r7, sp, #0
 150              		.cfi_def_cfa_register 7
 151 0006 7860     		str	r0, [r7, #4]
 152 0008 3960     		str	r1, [r7]
  31:radio_manager.c ****     uint8_t cksum=0x00;
 153              		.loc 1 31 0
 154 000a 0023     		movs	r3, #0
 155 000c FB73     		strb	r3, [r7, #15]
  32:radio_manager.c ****     uint8_t i=0;
 156              		.loc 1 32 0
 157 000e 0023     		movs	r3, #0
 158 0010 BB73     		strb	r3, [r7, #14]
  33:radio_manager.c ****     for (i=3;i<len;i++)
 159              		.loc 1 33 0
 160 0012 0323     		movs	r3, #3
 161 0014 BB73     		strb	r3, [r7, #14]
 162 0016 09E0     		b	.L11
 163              	.L12:
  34:radio_manager.c ****         cksum=cksum+msg[i];
 164              		.loc 1 34 0 discriminator 3
 165 0018 BB7B     		ldrb	r3, [r7, #14]	@ zero_extendqisi2
 166 001a 7A68     		ldr	r2, [r7, #4]
 167 001c 1344     		add	r3, r3, r2
 168 001e 1A78     		ldrb	r2, [r3]	@ zero_extendqisi2
 169 0020 FB7B     		ldrb	r3, [r7, #15]
 170 0022 1344     		add	r3, r3, r2
 171 0024 FB73     		strb	r3, [r7, #15]
  33:radio_manager.c ****     for (i=3;i<len;i++)
 172              		.loc 1 33 0 discriminator 3
 173 0026 BB7B     		ldrb	r3, [r7, #14]	@ zero_extendqisi2
 174 0028 0133     		adds	r3, r3, #1
 175 002a BB73     		strb	r3, [r7, #14]
 176              	.L11:
  33:radio_manager.c ****     for (i=3;i<len;i++)
 177              		.loc 1 33 0 is_stmt 0 discriminator 1
 178 002c BA7B     		ldrb	r2, [r7, #14]	@ zero_extendqisi2
 179 002e 3B68     		ldr	r3, [r7]
 180 0030 9A42     		cmp	r2, r3
 181 0032 F1DB     		blt	.L12
  35:radio_manager.c ****     cksum = 0xFF - cksum;
 182              		.loc 1 35 0 is_stmt 1
 183 0034 FB7B     		ldrb	r3, [r7, #15]
 184 0036 DB43     		mvns	r3, r3
 185 0038 FB73     		strb	r3, [r7, #15]
  36:radio_manager.c ****     return cksum;
 186              		.loc 1 36 0
 187 003a FB7B     		ldrb	r3, [r7, #15]	@ zero_extendqisi2
ARM GAS  D:\Windows\AppData\Local\Temp\ccMOdMwq.s 			page 5


  37:radio_manager.c **** }
 188              		.loc 1 37 0
 189 003c 1846     		mov	r0, r3
 190 003e 1437     		adds	r7, r7, #20
 191              		.cfi_def_cfa_offset 4
 192 0040 BD46     		mov	sp, r7
 193              		.cfi_def_cfa_register 13
 194              		@ sp needed
 195 0042 5DF8047B 		ldr	r7, [sp], #4
 196              		.cfi_restore 7
 197              		.cfi_def_cfa_offset 0
 198 0046 7047     		bx	lr
 199              		.cfi_endproc
 200              	.LFE65:
 201              		.size	checksum_calc, .-checksum_calc
 202              		.section	.text.checksum_verify,"ax",%progbits
 203              		.align	2
 204              		.global	checksum_verify
 205              		.thumb
 206              		.thumb_func
 207              		.type	checksum_verify, %function
 208              	checksum_verify:
 209              	.LFB66:
  38:radio_manager.c **** 
  39:radio_manager.c **** uint8_t checksum_verify(uint8_t* msg, int len) {
 210              		.loc 1 39 0
 211              		.cfi_startproc
 212              		@ args = 0, pretend = 0, frame = 16
 213              		@ frame_needed = 1, uses_anonymous_args = 0
 214              		@ link register save eliminated.
 215 0000 80B4     		push	{r7}
 216              		.cfi_def_cfa_offset 4
 217              		.cfi_offset 7, -4
 218 0002 85B0     		sub	sp, sp, #20
 219              		.cfi_def_cfa_offset 24
 220 0004 00AF     		add	r7, sp, #0
 221              		.cfi_def_cfa_register 7
 222 0006 7860     		str	r0, [r7, #4]
 223 0008 3960     		str	r1, [r7]
  40:radio_manager.c **** 	uint8_t checksum = 0x00;
 224              		.loc 1 40 0
 225 000a 0023     		movs	r3, #0
 226 000c FB73     		strb	r3, [r7, #15]
  41:radio_manager.c **** 	uint8_t i=0;
 227              		.loc 1 41 0
 228 000e 0023     		movs	r3, #0
 229 0010 BB73     		strb	r3, [r7, #14]
  42:radio_manager.c **** 	for(i=3; i<=len; i++)
 230              		.loc 1 42 0
 231 0012 0323     		movs	r3, #3
 232 0014 BB73     		strb	r3, [r7, #14]
 233 0016 09E0     		b	.L15
 234              	.L16:
  43:radio_manager.c **** 		checksum = checksum + msg[i];
 235              		.loc 1 43 0 discriminator 3
 236 0018 BB7B     		ldrb	r3, [r7, #14]	@ zero_extendqisi2
 237 001a 7A68     		ldr	r2, [r7, #4]
ARM GAS  D:\Windows\AppData\Local\Temp\ccMOdMwq.s 			page 6


 238 001c 1344     		add	r3, r3, r2
 239 001e 1A78     		ldrb	r2, [r3]	@ zero_extendqisi2
 240 0020 FB7B     		ldrb	r3, [r7, #15]
 241 0022 1344     		add	r3, r3, r2
 242 0024 FB73     		strb	r3, [r7, #15]
  42:radio_manager.c **** 	for(i=3; i<=len; i++)
 243              		.loc 1 42 0 discriminator 3
 244 0026 BB7B     		ldrb	r3, [r7, #14]	@ zero_extendqisi2
 245 0028 0133     		adds	r3, r3, #1
 246 002a BB73     		strb	r3, [r7, #14]
 247              	.L15:
  42:radio_manager.c **** 	for(i=3; i<=len; i++)
 248              		.loc 1 42 0 is_stmt 0 discriminator 1
 249 002c BA7B     		ldrb	r2, [r7, #14]	@ zero_extendqisi2
 250 002e 3B68     		ldr	r3, [r7]
 251 0030 9A42     		cmp	r2, r3
 252 0032 F1DD     		ble	.L16
  44:radio_manager.c **** 	return checksum;
 253              		.loc 1 44 0 is_stmt 1
 254 0034 FB7B     		ldrb	r3, [r7, #15]	@ zero_extendqisi2
  45:radio_manager.c **** }
 255              		.loc 1 45 0
 256 0036 1846     		mov	r0, r3
 257 0038 1437     		adds	r7, r7, #20
 258              		.cfi_def_cfa_offset 4
 259 003a BD46     		mov	sp, r7
 260              		.cfi_def_cfa_register 13
 261              		@ sp needed
 262 003c 5DF8047B 		ldr	r7, [sp], #4
 263              		.cfi_restore 7
 264              		.cfi_def_cfa_offset 0
 265 0040 7047     		bx	lr
 266              		.cfi_endproc
 267              	.LFE66:
 268              		.size	checksum_verify, .-checksum_verify
 269 0042 00BF     		.section	.text.xbee_send,"ax",%progbits
 270              		.align	2
 271              		.global	xbee_send
 272              		.thumb
 273              		.thumb_func
 274              		.type	xbee_send, %function
 275              	xbee_send:
 276              	.LFB67:
  46:radio_manager.c **** 
  47:radio_manager.c **** 
  48:radio_manager.c **** void xbee_send(DataPacket * msg) {
 277              		.loc 1 48 0
 278              		.cfi_startproc
 279              		@ args = 0, pretend = 0, frame = 8
 280              		@ frame_needed = 1, uses_anonymous_args = 0
 281 0000 80B5     		push	{r7, lr}
 282              		.cfi_def_cfa_offset 8
 283              		.cfi_offset 7, -8
 284              		.cfi_offset 14, -4
 285 0002 82B0     		sub	sp, sp, #8
 286              		.cfi_def_cfa_offset 16
 287 0004 00AF     		add	r7, sp, #0
ARM GAS  D:\Windows\AppData\Local\Temp\ccMOdMwq.s 			page 7


 288              		.cfi_def_cfa_register 7
 289 0006 7860     		str	r0, [r7, #4]
  49:radio_manager.c **** 	xbee_Tx_req(msg);
 290              		.loc 1 49 0
 291 0008 7868     		ldr	r0, [r7, #4]
 292 000a FFF7FEFF 		bl	xbee_Tx_req
  50:radio_manager.c **** }//xbee_send()
 293              		.loc 1 50 0
 294 000e 0837     		adds	r7, r7, #8
 295              		.cfi_def_cfa_offset 8
 296 0010 BD46     		mov	sp, r7
 297              		.cfi_def_cfa_register 13
 298              		@ sp needed
 299 0012 80BD     		pop	{r7, pc}
 300              		.cfi_endproc
 301              	.LFE67:
 302              		.size	xbee_send, .-xbee_send
 303              		.section	.text.xbee_Tx_req,"ax",%progbits
 304              		.align	2
 305              		.global	xbee_Tx_req
 306              		.thumb
 307              		.thumb_func
 308              		.type	xbee_Tx_req, %function
 309              	xbee_Tx_req:
 310              	.LFB68:
  51:radio_manager.c **** 
  52:radio_manager.c **** 
  53:radio_manager.c **** void xbee_Tx_req(DataPacket* msg) {
 311              		.loc 1 53 0
 312              		.cfi_startproc
 313              		@ args = 0, pretend = 0, frame = 48
 314              		@ frame_needed = 1, uses_anonymous_args = 0
 315 0000 80B5     		push	{r7, lr}
 316              		.cfi_def_cfa_offset 8
 317              		.cfi_offset 7, -8
 318              		.cfi_offset 14, -4
 319 0002 8CB0     		sub	sp, sp, #48
 320              		.cfi_def_cfa_offset 56
 321 0004 00AF     		add	r7, sp, #0
 322              		.cfi_def_cfa_register 7
 323 0006 7860     		str	r0, [r7, #4]
  54:radio_manager.c ****     uint8_t API_frame[34];
  55:radio_manager.c ****     
  56:radio_manager.c ****     API_frame[0]=STARTER_DELIMITER;  //starter   
 324              		.loc 1 56 0
 325 0008 7E23     		movs	r3, #126
 326 000a 3B73     		strb	r3, [r7, #12]
  57:radio_manager.c ****     API_frame[1]=0x00;           //MSB L 
 327              		.loc 1 57 0
 328 000c 0023     		movs	r3, #0
 329 000e 7B73     		strb	r3, [r7, #13]
  58:radio_manager.c ****     API_frame[2]=0x1D;           //LSB L number of bytes between length and checksum
 330              		.loc 1 58 0
 331 0010 1D23     		movs	r3, #29
 332 0012 BB73     		strb	r3, [r7, #14]
  59:radio_manager.c ****     
  60:radio_manager.c ****     API_frame[3]=0x10;           //Frame type, TX Request
ARM GAS  D:\Windows\AppData\Local\Temp\ccMOdMwq.s 			page 8


 333              		.loc 1 60 0
 334 0014 1023     		movs	r3, #16
 335 0016 FB73     		strb	r3, [r7, #15]
  61:radio_manager.c ****     API_frame[4]=0x00;           //Frame ID
 336              		.loc 1 61 0
 337 0018 0023     		movs	r3, #0
 338 001a 3B74     		strb	r3, [r7, #16]
  62:radio_manager.c ****     
  63:radio_manager.c ****     API_frame[5]=addr[0];        //desination address
 339              		.loc 1 63 0
 340 001c 3B4B     		ldr	r3, .L20
 341 001e 1B78     		ldrb	r3, [r3]	@ zero_extendqisi2
 342 0020 7B74     		strb	r3, [r7, #17]
  64:radio_manager.c ****     API_frame[6]=addr[1];
 343              		.loc 1 64 0
 344 0022 3A4B     		ldr	r3, .L20
 345 0024 5B78     		ldrb	r3, [r3, #1]	@ zero_extendqisi2
 346 0026 BB74     		strb	r3, [r7, #18]
  65:radio_manager.c ****     API_frame[7]=addr[2];
 347              		.loc 1 65 0
 348 0028 384B     		ldr	r3, .L20
 349 002a 9B78     		ldrb	r3, [r3, #2]	@ zero_extendqisi2
 350 002c FB74     		strb	r3, [r7, #19]
  66:radio_manager.c ****     API_frame[8]=addr[3];
 351              		.loc 1 66 0
 352 002e 374B     		ldr	r3, .L20
 353 0030 DB78     		ldrb	r3, [r3, #3]	@ zero_extendqisi2
 354 0032 3B75     		strb	r3, [r7, #20]
  67:radio_manager.c ****     API_frame[9]=addr[4];
 355              		.loc 1 67 0
 356 0034 354B     		ldr	r3, .L20
 357 0036 1B79     		ldrb	r3, [r3, #4]	@ zero_extendqisi2
 358 0038 7B75     		strb	r3, [r7, #21]
  68:radio_manager.c ****     API_frame[10]=addr[5];
 359              		.loc 1 68 0
 360 003a 344B     		ldr	r3, .L20
 361 003c 5B79     		ldrb	r3, [r3, #5]	@ zero_extendqisi2
 362 003e BB75     		strb	r3, [r7, #22]
  69:radio_manager.c ****     API_frame[11]=addr[6];
 363              		.loc 1 69 0
 364 0040 324B     		ldr	r3, .L20
 365 0042 9B79     		ldrb	r3, [r3, #6]	@ zero_extendqisi2
 366 0044 FB75     		strb	r3, [r7, #23]
  70:radio_manager.c ****     API_frame[12]=addr[7];
 367              		.loc 1 70 0
 368 0046 314B     		ldr	r3, .L20
 369 0048 DB79     		ldrb	r3, [r3, #7]	@ zero_extendqisi2
 370 004a 3B76     		strb	r3, [r7, #24]
  71:radio_manager.c ****     
  72:radio_manager.c ****     API_frame[13]=0xFF;          //reserved 0xFFFE
 371              		.loc 1 72 0
 372 004c FF23     		movs	r3, #255
 373 004e 7B76     		strb	r3, [r7, #25]
  73:radio_manager.c ****     API_frame[14]=0xFE;
 374              		.loc 1 73 0
 375 0050 FE23     		movs	r3, #254
 376 0052 BB76     		strb	r3, [r7, #26]
ARM GAS  D:\Windows\AppData\Local\Temp\ccMOdMwq.s 			page 9


  74:radio_manager.c ****     API_frame[15]=0x00;          //broadcast radius, max num of hops a transmission can occur
 377              		.loc 1 74 0
 378 0054 0023     		movs	r3, #0
 379 0056 FB76     		strb	r3, [r7, #27]
  75:radio_manager.c ****     API_frame[16]=0x00;          //transmit options
 380              		.loc 1 75 0
 381 0058 0023     		movs	r3, #0
 382 005a 3B77     		strb	r3, [r7, #28]
  76:radio_manager.c ****     
  77:radio_manager.c ****     //RF data, CAN packet, 15bytes
  78:radio_manager.c ****     API_frame[17]=(msg->id>>8) & 0xFF;   		//id
 383              		.loc 1 78 0
 384 005c 7B68     		ldr	r3, [r7, #4]
 385 005e 9B88     		ldrh	r3, [r3, #4]
 386 0060 1B0A     		lsrs	r3, r3, #8
 387 0062 9BB2     		uxth	r3, r3
 388 0064 DBB2     		uxtb	r3, r3
 389 0066 7B77     		strb	r3, [r7, #29]
  79:radio_manager.c ****     API_frame[18]=msg->id & 0xFF;  
 390              		.loc 1 79 0
 391 0068 7B68     		ldr	r3, [r7, #4]
 392 006a 9B88     		ldrh	r3, [r3, #4]
 393 006c DBB2     		uxtb	r3, r3
 394 006e BB77     		strb	r3, [r7, #30]
  80:radio_manager.c ****     
  81:radio_manager.c ****     //API_frame[19]=msg->length;            		//length
  82:radio_manager.c ****     
  83:radio_manager.c ****     API_frame[19] = msg->millicounter >> 24;   //timestamp
 395              		.loc 1 83 0
 396 0070 7B68     		ldr	r3, [r7, #4]
 397 0072 1B68     		ldr	r3, [r3]
 398 0074 1B0E     		lsrs	r3, r3, #24
 399 0076 DBB2     		uxtb	r3, r3
 400 0078 FB77     		strb	r3, [r7, #31]
  84:radio_manager.c ****     API_frame[20] = msg->millicounter >> 16;
 401              		.loc 1 84 0
 402 007a 7B68     		ldr	r3, [r7, #4]
 403 007c 1B68     		ldr	r3, [r3]
 404 007e 1B0C     		lsrs	r3, r3, #16
 405 0080 DBB2     		uxtb	r3, r3
 406 0082 87F82030 		strb	r3, [r7, #32]
  85:radio_manager.c ****     API_frame[21] = msg->millicounter >> 8;
 407              		.loc 1 85 0
 408 0086 7B68     		ldr	r3, [r7, #4]
 409 0088 1B68     		ldr	r3, [r3]
 410 008a 1B0A     		lsrs	r3, r3, #8
 411 008c DBB2     		uxtb	r3, r3
 412 008e 87F82130 		strb	r3, [r7, #33]
  86:radio_manager.c ****     API_frame[22] = msg->millicounter;     
 413              		.loc 1 86 0
 414 0092 7B68     		ldr	r3, [r7, #4]
 415 0094 1B68     		ldr	r3, [r3]
 416 0096 DBB2     		uxtb	r3, r3
 417 0098 87F82230 		strb	r3, [r7, #34]
  87:radio_manager.c ****     
  88:radio_manager.c ****     API_frame[23]=msg->data[0];           		//data
 418              		.loc 1 88 0
ARM GAS  D:\Windows\AppData\Local\Temp\ccMOdMwq.s 			page 10


 419 009c 7B68     		ldr	r3, [r7, #4]
 420 009e DB79     		ldrb	r3, [r3, #7]	@ zero_extendqisi2
 421 00a0 87F82330 		strb	r3, [r7, #35]
  89:radio_manager.c ****     API_frame[24]=msg->data[1];
 422              		.loc 1 89 0
 423 00a4 7B68     		ldr	r3, [r7, #4]
 424 00a6 1B7A     		ldrb	r3, [r3, #8]	@ zero_extendqisi2
 425 00a8 87F82430 		strb	r3, [r7, #36]
  90:radio_manager.c ****     API_frame[25]=msg->data[2];  
 426              		.loc 1 90 0
 427 00ac 7B68     		ldr	r3, [r7, #4]
 428 00ae 5B7A     		ldrb	r3, [r3, #9]	@ zero_extendqisi2
 429 00b0 87F82530 		strb	r3, [r7, #37]
  91:radio_manager.c ****     API_frame[26]=msg->data[3];  
 430              		.loc 1 91 0
 431 00b4 7B68     		ldr	r3, [r7, #4]
 432 00b6 9B7A     		ldrb	r3, [r3, #10]	@ zero_extendqisi2
 433 00b8 87F82630 		strb	r3, [r7, #38]
  92:radio_manager.c ****     API_frame[27]=msg->data[4];  
 434              		.loc 1 92 0
 435 00bc 7B68     		ldr	r3, [r7, #4]
 436 00be DB7A     		ldrb	r3, [r3, #11]	@ zero_extendqisi2
 437 00c0 87F82730 		strb	r3, [r7, #39]
  93:radio_manager.c ****     API_frame[28]=msg->data[5];  
 438              		.loc 1 93 0
 439 00c4 7B68     		ldr	r3, [r7, #4]
 440 00c6 1B7B     		ldrb	r3, [r3, #12]	@ zero_extendqisi2
 441 00c8 87F82830 		strb	r3, [r7, #40]
  94:radio_manager.c ****     API_frame[29]=msg->data[6];  
 442              		.loc 1 94 0
 443 00cc 7B68     		ldr	r3, [r7, #4]
 444 00ce 5B7B     		ldrb	r3, [r3, #13]	@ zero_extendqisi2
 445 00d0 87F82930 		strb	r3, [r7, #41]
  95:radio_manager.c ****     API_frame[30]=msg->data[7];  
 446              		.loc 1 95 0
 447 00d4 7B68     		ldr	r3, [r7, #4]
 448 00d6 9B7B     		ldrb	r3, [r3, #14]	@ zero_extendqisi2
 449 00d8 87F82A30 		strb	r3, [r7, #42]
  96:radio_manager.c ****     
  97:radio_manager.c **** 	API_frame[31]=0xFF;
 450              		.loc 1 97 0
 451 00dc FF23     		movs	r3, #255
 452 00de 87F82B30 		strb	r3, [r7, #43]
  98:radio_manager.c **** 	API_frame[32]=0x0A;
 453              		.loc 1 98 0
 454 00e2 0A23     		movs	r3, #10
 455 00e4 87F82C30 		strb	r3, [r7, #44]
  99:radio_manager.c **** 	
 100:radio_manager.c ****     API_frame[33]=checksum_calc(API_frame,33);
 456              		.loc 1 100 0
 457 00e8 07F10C03 		add	r3, r7, #12
 458 00ec 1846     		mov	r0, r3
 459 00ee 2121     		movs	r1, #33
 460 00f0 FFF7FEFF 		bl	checksum_calc
 461 00f4 0346     		mov	r3, r0
 462 00f6 87F82D30 		strb	r3, [r7, #45]
 101:radio_manager.c **** 
ARM GAS  D:\Windows\AppData\Local\Temp\ccMOdMwq.s 			page 11


 102:radio_manager.c **** 	xbee_spi_PutArray(API_frame, 34);
 463              		.loc 1 102 0
 464 00fa 07F10C03 		add	r3, r7, #12
 465 00fe 1846     		mov	r0, r3
 466 0100 2221     		movs	r1, #34
 467 0102 FFF7FEFF 		bl	xbee_spi_PutArray
 103:radio_manager.c **** }
 468              		.loc 1 103 0
 469 0106 3037     		adds	r7, r7, #48
 470              		.cfi_def_cfa_offset 8
 471 0108 BD46     		mov	sp, r7
 472              		.cfi_def_cfa_register 13
 473              		@ sp needed
 474 010a 80BD     		pop	{r7, pc}
 475              	.L21:
 476              		.align	2
 477              	.L20:
 478 010c 00000000 		.word	addr
 479              		.cfi_endproc
 480              	.LFE68:
 481              		.size	xbee_Tx_req, .-xbee_Tx_req
 482              		.section	.text.xbee_Tx_req_test,"ax",%progbits
 483              		.align	2
 484              		.global	xbee_Tx_req_test
 485              		.thumb
 486              		.thumb_func
 487              		.type	xbee_Tx_req_test, %function
 488              	xbee_Tx_req_test:
 489              	.LFB69:
 104:radio_manager.c **** 
 105:radio_manager.c **** 
 106:radio_manager.c **** void xbee_Tx_req_test(){
 490              		.loc 1 106 0
 491              		.cfi_startproc
 492              		@ args = 0, pretend = 0, frame = 40
 493              		@ frame_needed = 1, uses_anonymous_args = 0
 494 0000 80B5     		push	{r7, lr}
 495              		.cfi_def_cfa_offset 8
 496              		.cfi_offset 7, -8
 497              		.cfi_offset 14, -4
 498 0002 8AB0     		sub	sp, sp, #40
 499              		.cfi_def_cfa_offset 48
 500 0004 00AF     		add	r7, sp, #0
 501              		.cfi_def_cfa_register 7
 107:radio_manager.c **** 	int i;
 108:radio_manager.c **** 	for(i=100; i<101; i++) {
 502              		.loc 1 108 0
 503 0006 6423     		movs	r3, #100
 504 0008 7B62     		str	r3, [r7, #36]
 505 000a 60E0     		b	.L23
 506              	.L24:
 507              	.LBB2:
 109:radio_manager.c **** 		//uint8_t test_msg[33] = {0x7E, 0x00, 0x1D, 0x10, 0x00, 0x00, 0x00, 0x00, 0x00, 0x00, 0x00, 0xFF,
 110:radio_manager.c **** 	    uint8_t msg[34];
 111:radio_manager.c **** 	    
 112:radio_manager.c **** 	    msg[0] = STARTER_DELIMITER; //starter
 508              		.loc 1 112 0 discriminator 3
ARM GAS  D:\Windows\AppData\Local\Temp\ccMOdMwq.s 			page 12


 509 000c 7E23     		movs	r3, #126
 510 000e 3B70     		strb	r3, [r7]
 113:radio_manager.c **** 	    msg[1] = 0x00;      //MSB len
 511              		.loc 1 113 0 discriminator 3
 512 0010 0023     		movs	r3, #0
 513 0012 7B70     		strb	r3, [r7, #1]
 114:radio_manager.c **** 	    msg[2] = 0x1E;      //LSB len                    
 514              		.loc 1 114 0 discriminator 3
 515 0014 1E23     		movs	r3, #30
 516 0016 BB70     		strb	r3, [r7, #2]
 115:radio_manager.c **** 	    
 116:radio_manager.c **** 	    msg[3] = 0x10;      //frame type
 517              		.loc 1 116 0 discriminator 3
 518 0018 1023     		movs	r3, #16
 519 001a FB70     		strb	r3, [r7, #3]
 117:radio_manager.c **** 	    msg[4] = 0x00;      //frame id
 520              		.loc 1 117 0 discriminator 3
 521 001c 0023     		movs	r3, #0
 522 001e 3B71     		strb	r3, [r7, #4]
 118:radio_manager.c **** 	    
 119:radio_manager.c **** 		msg[5] = addr[0];      //receiver addr
 523              		.loc 1 119 0 discriminator 3
 524 0020 2E4B     		ldr	r3, .L26
 525 0022 1B78     		ldrb	r3, [r3]	@ zero_extendqisi2
 526 0024 7B71     		strb	r3, [r7, #5]
 120:radio_manager.c **** 	    msg[6] = addr[1]; 
 527              		.loc 1 120 0 discriminator 3
 528 0026 2D4B     		ldr	r3, .L26
 529 0028 5B78     		ldrb	r3, [r3, #1]	@ zero_extendqisi2
 530 002a BB71     		strb	r3, [r7, #6]
 121:radio_manager.c **** 	    msg[7] = addr[2];
 531              		.loc 1 121 0 discriminator 3
 532 002c 2B4B     		ldr	r3, .L26
 533 002e 9B78     		ldrb	r3, [r3, #2]	@ zero_extendqisi2
 534 0030 FB71     		strb	r3, [r7, #7]
 122:radio_manager.c **** 	    msg[8] = addr[3];
 535              		.loc 1 122 0 discriminator 3
 536 0032 2A4B     		ldr	r3, .L26
 537 0034 DB78     		ldrb	r3, [r3, #3]	@ zero_extendqisi2
 538 0036 3B72     		strb	r3, [r7, #8]
 123:radio_manager.c **** 	    msg[9] = addr[4]; 
 539              		.loc 1 123 0 discriminator 3
 540 0038 284B     		ldr	r3, .L26
 541 003a 1B79     		ldrb	r3, [r3, #4]	@ zero_extendqisi2
 542 003c 7B72     		strb	r3, [r7, #9]
 124:radio_manager.c **** 	    msg[10] = addr[5];
 543              		.loc 1 124 0 discriminator 3
 544 003e 274B     		ldr	r3, .L26
 545 0040 5B79     		ldrb	r3, [r3, #5]	@ zero_extendqisi2
 546 0042 BB72     		strb	r3, [r7, #10]
 125:radio_manager.c **** 	    msg[11] = addr[6];
 547              		.loc 1 125 0 discriminator 3
 548 0044 254B     		ldr	r3, .L26
 549 0046 9B79     		ldrb	r3, [r3, #6]	@ zero_extendqisi2
 550 0048 FB72     		strb	r3, [r7, #11]
 126:radio_manager.c **** 	    msg[12] = addr[7];
 551              		.loc 1 126 0 discriminator 3
ARM GAS  D:\Windows\AppData\Local\Temp\ccMOdMwq.s 			page 13


 552 004a 244B     		ldr	r3, .L26
 553 004c DB79     		ldrb	r3, [r3, #7]	@ zero_extendqisi2
 554 004e 3B73     		strb	r3, [r7, #12]
 127:radio_manager.c **** 		
 128:radio_manager.c **** 		/*
 129:radio_manager.c **** 	    msg[5] = 0x00;      //receiver addr
 130:radio_manager.c **** 	    msg[6] = 0x13; 
 131:radio_manager.c **** 	    msg[7] = 0xA2;
 132:radio_manager.c **** 	    msg[8] = 0x00;
 133:radio_manager.c **** 	    msg[9] = 0x41; 
 134:radio_manager.c **** 	    msg[10] = 0x52;
 135:radio_manager.c **** 	    msg[11] = 0xE9;
 136:radio_manager.c **** 	    msg[12] = 0x17;
 137:radio_manager.c **** 	    */
 138:radio_manager.c **** 		/*
 139:radio_manager.c **** 	    msg[5] = 0x00;      //receiver addr
 140:radio_manager.c **** 	    msg[6] = 0x00; 
 141:radio_manager.c **** 	    msg[7] = 0x00;
 142:radio_manager.c **** 	    msg[8] = 0x00;
 143:radio_manager.c **** 	    msg[9] = 0x00; 
 144:radio_manager.c **** 	    msg[10] = 0x00;
 145:radio_manager.c **** 	    msg[11] = 0xFF;
 146:radio_manager.c **** 	    msg[12] = 0xFF;
 147:radio_manager.c **** 	    */
 148:radio_manager.c **** 		
 149:radio_manager.c **** 	    msg[13] = 0xFF;     //0xFFFE reserved
 555              		.loc 1 149 0 discriminator 3
 556 0050 FF23     		movs	r3, #255
 557 0052 7B73     		strb	r3, [r7, #13]
 150:radio_manager.c **** 	    msg[14] = 0xFE;     
 558              		.loc 1 150 0 discriminator 3
 559 0054 FE23     		movs	r3, #254
 560 0056 BB73     		strb	r3, [r7, #14]
 151:radio_manager.c **** 	    msg[15] = 0x00;     //broadcast radius
 561              		.loc 1 151 0 discriminator 3
 562 0058 0023     		movs	r3, #0
 563 005a FB73     		strb	r3, [r7, #15]
 152:radio_manager.c **** 	    msg[16] = 0x00;     //transmit options
 564              		.loc 1 152 0 discriminator 3
 565 005c 0023     		movs	r3, #0
 566 005e 3B74     		strb	r3, [r7, #16]
 153:radio_manager.c **** 	    
 154:radio_manager.c **** 	    //data, CAN packet 15bytes
 155:radio_manager.c **** 	    msg[17] = 0x09;     //id
 567              		.loc 1 155 0 discriminator 3
 568 0060 0923     		movs	r3, #9
 569 0062 7B74     		strb	r3, [r7, #17]
 156:radio_manager.c **** 	    msg[18] = 0x99;
 570              		.loc 1 156 0 discriminator 3
 571 0064 9923     		movs	r3, #153
 572 0066 BB74     		strb	r3, [r7, #18]
 157:radio_manager.c **** 	    //msg[19] = 8;        //len
 158:radio_manager.c **** 	    
 159:radio_manager.c **** 	    msg[19] = 0x00;     //timestamp
 573              		.loc 1 159 0 discriminator 3
 574 0068 0023     		movs	r3, #0
 575 006a FB74     		strb	r3, [r7, #19]
ARM GAS  D:\Windows\AppData\Local\Temp\ccMOdMwq.s 			page 14


 160:radio_manager.c **** 	    msg[20] = 0x00;
 576              		.loc 1 160 0 discriminator 3
 577 006c 0023     		movs	r3, #0
 578 006e 3B75     		strb	r3, [r7, #20]
 161:radio_manager.c **** 	    msg[21] = 0x00;
 579              		.loc 1 161 0 discriminator 3
 580 0070 0023     		movs	r3, #0
 581 0072 7B75     		strb	r3, [r7, #21]
 162:radio_manager.c **** 	    msg[22] = 0x01;     
 582              		.loc 1 162 0 discriminator 3
 583 0074 0123     		movs	r3, #1
 584 0076 BB75     		strb	r3, [r7, #22]
 163:radio_manager.c **** 	    
 164:radio_manager.c **** 	    msg[23]=1;           //data
 585              		.loc 1 164 0 discriminator 3
 586 0078 0123     		movs	r3, #1
 587 007a FB75     		strb	r3, [r7, #23]
 165:radio_manager.c **** 	    msg[24]=2;
 588              		.loc 1 165 0 discriminator 3
 589 007c 0223     		movs	r3, #2
 590 007e 3B76     		strb	r3, [r7, #24]
 166:radio_manager.c **** 	    msg[25]=3;  
 591              		.loc 1 166 0 discriminator 3
 592 0080 0323     		movs	r3, #3
 593 0082 7B76     		strb	r3, [r7, #25]
 167:radio_manager.c **** 	    msg[26]=4;  
 594              		.loc 1 167 0 discriminator 3
 595 0084 0423     		movs	r3, #4
 596 0086 BB76     		strb	r3, [r7, #26]
 168:radio_manager.c **** 	    msg[27]=5;  
 597              		.loc 1 168 0 discriminator 3
 598 0088 0523     		movs	r3, #5
 599 008a FB76     		strb	r3, [r7, #27]
 169:radio_manager.c **** 	    msg[28]=6;  
 600              		.loc 1 169 0 discriminator 3
 601 008c 0623     		movs	r3, #6
 602 008e 3B77     		strb	r3, [r7, #28]
 170:radio_manager.c **** 	    msg[29]=7;  
 603              		.loc 1 170 0 discriminator 3
 604 0090 0723     		movs	r3, #7
 605 0092 7B77     		strb	r3, [r7, #29]
 171:radio_manager.c **** 	    msg[30]=8;  
 606              		.loc 1 171 0 discriminator 3
 607 0094 0823     		movs	r3, #8
 608 0096 BB77     		strb	r3, [r7, #30]
 172:radio_manager.c **** 	    
 173:radio_manager.c **** 		msg[31]=0xFF;
 609              		.loc 1 173 0 discriminator 3
 610 0098 FF23     		movs	r3, #255
 611 009a FB77     		strb	r3, [r7, #31]
 174:radio_manager.c **** 		msg[32]=0x0A;
 612              		.loc 1 174 0 discriminator 3
 613 009c 0A23     		movs	r3, #10
 614 009e 87F82030 		strb	r3, [r7, #32]
 175:radio_manager.c **** 		
 176:radio_manager.c **** 	    msg[33]=checksum_calc(msg,33);
 615              		.loc 1 176 0 discriminator 3
ARM GAS  D:\Windows\AppData\Local\Temp\ccMOdMwq.s 			page 15


 616 00a2 3B46     		mov	r3, r7
 617 00a4 1846     		mov	r0, r3
 618 00a6 2121     		movs	r1, #33
 619 00a8 FFF7FEFF 		bl	checksum_calc
 620 00ac 0346     		mov	r3, r0
 621 00ae 87F82130 		strb	r3, [r7, #33]
 177:radio_manager.c **** 	  
 178:radio_manager.c **** 	    LED_Write(1);
 622              		.loc 1 178 0 discriminator 3
 623 00b2 0120     		movs	r0, #1
 624 00b4 FFF7FEFF 		bl	LED_Write
 179:radio_manager.c **** 	    xbee_spi_PutArray(msg, 34);
 625              		.loc 1 179 0 discriminator 3
 626 00b8 3B46     		mov	r3, r7
 627 00ba 1846     		mov	r0, r3
 628 00bc 2221     		movs	r1, #34
 629 00be FFF7FEFF 		bl	xbee_spi_PutArray
 180:radio_manager.c **** 	    LED_Write(0);
 630              		.loc 1 180 0 discriminator 3
 631 00c2 0020     		movs	r0, #0
 632 00c4 FFF7FEFF 		bl	LED_Write
 633              	.LBE2:
 108:radio_manager.c **** 		//uint8_t test_msg[33] = {0x7E, 0x00, 0x1D, 0x10, 0x00, 0x00, 0x00, 0x00, 0x00, 0x00, 0x00, 0xFF,
 634              		.loc 1 108 0 discriminator 3
 635 00c8 7B6A     		ldr	r3, [r7, #36]
 636 00ca 0133     		adds	r3, r3, #1
 637 00cc 7B62     		str	r3, [r7, #36]
 638              	.L23:
 108:radio_manager.c **** 		//uint8_t test_msg[33] = {0x7E, 0x00, 0x1D, 0x10, 0x00, 0x00, 0x00, 0x00, 0x00, 0x00, 0x00, 0xFF,
 639              		.loc 1 108 0 is_stmt 0 discriminator 1
 640 00ce 7B6A     		ldr	r3, [r7, #36]
 641 00d0 642B     		cmp	r3, #100
 642 00d2 9BDD     		ble	.L24
 181:radio_manager.c **** 	}
 182:radio_manager.c ****     return;
 643              		.loc 1 182 0 is_stmt 1
 644 00d4 00BF     		nop
 183:radio_manager.c **** }
 645              		.loc 1 183 0
 646 00d6 2837     		adds	r7, r7, #40
 647              		.cfi_def_cfa_offset 8
 648 00d8 BD46     		mov	sp, r7
 649              		.cfi_def_cfa_register 13
 650              		@ sp needed
 651 00da 80BD     		pop	{r7, pc}
 652              	.L27:
 653              		.align	2
 654              	.L26:
 655 00dc 00000000 		.word	addr
 656              		.cfi_endproc
 657              	.LFE69:
 658              		.size	xbee_Tx_req_test, .-xbee_Tx_req_test
 659              		.text
 660              	.Letext0:
 661              		.file 2 "d:\\programming\\cypress\\psoc creator\\4.0\\psoc creator\\import\\gnu\\arm\\4.9.3\\arm-n
 662              		.file 3 "d:\\programming\\cypress\\psoc creator\\4.0\\psoc creator\\import\\gnu\\arm\\4.9.3\\arm-n
 663              		.file 4 "data.h"
ARM GAS  D:\Windows\AppData\Local\Temp\ccMOdMwq.s 			page 16


 664              		.file 5 "Generated_Source\\PSoC5/core_cm3.h"
 665              		.section	.debug_info,"",%progbits
 666              	.Ldebug_info0:
 667 0000 F4020000 		.4byte	0x2f4
 668 0004 0400     		.2byte	0x4
 669 0006 00000000 		.4byte	.Ldebug_abbrev0
 670 000a 04       		.byte	0x4
 671 000b 01       		.uleb128 0x1
 672 000c 38000000 		.4byte	.LASF37
 673 0010 01       		.byte	0x1
 674 0011 79020000 		.4byte	.LASF38
 675 0015 09020000 		.4byte	.LASF39
 676 0019 00000000 		.4byte	.Ldebug_ranges0+0
 677 001d 00000000 		.4byte	0
 678 0021 00000000 		.4byte	.Ldebug_line0
 679 0025 02       		.uleb128 0x2
 680 0026 01       		.byte	0x1
 681 0027 06       		.byte	0x6
 682 0028 5F020000 		.4byte	.LASF0
 683 002c 03       		.uleb128 0x3
 684 002d 11000000 		.4byte	.LASF3
 685 0031 02       		.byte	0x2
 686 0032 1D       		.byte	0x1d
 687 0033 37000000 		.4byte	0x37
 688 0037 02       		.uleb128 0x2
 689 0038 01       		.byte	0x1
 690 0039 08       		.byte	0x8
 691 003a 41010000 		.4byte	.LASF1
 692 003e 02       		.uleb128 0x2
 693 003f 02       		.byte	0x2
 694 0040 05       		.byte	0x5
 695 0041 71010000 		.4byte	.LASF2
 696 0045 03       		.uleb128 0x3
 697 0046 4F010000 		.4byte	.LASF4
 698 004a 02       		.byte	0x2
 699 004b 2B       		.byte	0x2b
 700 004c 50000000 		.4byte	0x50
 701 0050 02       		.uleb128 0x2
 702 0051 02       		.byte	0x2
 703 0052 07       		.byte	0x7
 704 0053 CF010000 		.4byte	.LASF5
 705 0057 03       		.uleb128 0x3
 706 0058 1B000000 		.4byte	.LASF6
 707 005c 02       		.byte	0x2
 708 005d 3F       		.byte	0x3f
 709 005e 62000000 		.4byte	0x62
 710 0062 02       		.uleb128 0x2
 711 0063 04       		.byte	0x4
 712 0064 05       		.byte	0x5
 713 0065 25000000 		.4byte	.LASF7
 714 0069 03       		.uleb128 0x3
 715 006a 12010000 		.4byte	.LASF8
 716 006e 02       		.byte	0x2
 717 006f 41       		.byte	0x41
 718 0070 74000000 		.4byte	0x74
 719 0074 02       		.uleb128 0x2
 720 0075 04       		.byte	0x4
ARM GAS  D:\Windows\AppData\Local\Temp\ccMOdMwq.s 			page 17


 721 0076 07       		.byte	0x7
 722 0077 1D010000 		.4byte	.LASF9
 723 007b 02       		.uleb128 0x2
 724 007c 08       		.byte	0x8
 725 007d 05       		.byte	0x5
 726 007e E2010000 		.4byte	.LASF10
 727 0082 03       		.uleb128 0x3
 728 0083 F5010000 		.4byte	.LASF11
 729 0087 02       		.byte	0x2
 730 0088 5B       		.byte	0x5b
 731 0089 8D000000 		.4byte	0x8d
 732 008d 02       		.uleb128 0x2
 733 008e 08       		.byte	0x8
 734 008f 07       		.byte	0x7
 735 0090 9F010000 		.4byte	.LASF12
 736 0094 04       		.uleb128 0x4
 737 0095 04       		.byte	0x4
 738 0096 05       		.byte	0x5
 739 0097 696E7400 		.ascii	"int\000"
 740 009b 02       		.uleb128 0x2
 741 009c 04       		.byte	0x4
 742 009d 07       		.byte	0x7
 743 009e 87010000 		.4byte	.LASF13
 744 00a2 03       		.uleb128 0x3
 745 00a3 B6010000 		.4byte	.LASF14
 746 00a7 03       		.byte	0x3
 747 00a8 15       		.byte	0x15
 748 00a9 2C000000 		.4byte	0x2c
 749 00ad 03       		.uleb128 0x3
 750 00ae 00020000 		.4byte	.LASF15
 751 00b2 03       		.byte	0x3
 752 00b3 21       		.byte	0x21
 753 00b4 45000000 		.4byte	0x45
 754 00b8 03       		.uleb128 0x3
 755 00b9 BE010000 		.4byte	.LASF16
 756 00bd 03       		.byte	0x3
 757 00be 2C       		.byte	0x2c
 758 00bf 57000000 		.4byte	0x57
 759 00c3 03       		.uleb128 0x3
 760 00c4 4E020000 		.4byte	.LASF17
 761 00c8 03       		.byte	0x3
 762 00c9 2D       		.byte	0x2d
 763 00ca 69000000 		.4byte	0x69
 764 00ce 03       		.uleb128 0x3
 765 00cf C6000000 		.4byte	.LASF18
 766 00d3 03       		.byte	0x3
 767 00d4 39       		.byte	0x39
 768 00d5 82000000 		.4byte	0x82
 769 00d9 02       		.uleb128 0x2
 770 00da 04       		.byte	0x4
 771 00db 04       		.byte	0x4
 772 00dc EF000000 		.4byte	.LASF19
 773 00e0 02       		.uleb128 0x2
 774 00e1 08       		.byte	0x8
 775 00e2 04       		.byte	0x4
 776 00e3 5A010000 		.4byte	.LASF20
 777 00e7 02       		.uleb128 0x2
ARM GAS  D:\Windows\AppData\Local\Temp\ccMOdMwq.s 			page 18


 778 00e8 01       		.byte	0x1
 779 00e9 08       		.byte	0x8
 780 00ea F0010000 		.4byte	.LASF21
 781 00ee 02       		.uleb128 0x2
 782 00ef 04       		.byte	0x4
 783 00f0 07       		.byte	0x7
 784 00f1 C6010000 		.4byte	.LASF22
 785 00f5 05       		.uleb128 0x5
 786 00f6 10       		.byte	0x10
 787 00f7 04       		.byte	0x4
 788 00f8 0A       		.byte	0xa
 789 00f9 2D010000 		.4byte	0x12d
 790 00fd 06       		.uleb128 0x6
 791 00fe E2000000 		.4byte	.LASF23
 792 0102 04       		.byte	0x4
 793 0103 0B       		.byte	0xb
 794 0104 C3000000 		.4byte	0xc3
 795 0108 00       		.byte	0
 796 0109 07       		.uleb128 0x7
 797 010a 696400   		.ascii	"id\000"
 798 010d 04       		.byte	0x4
 799 010e 0C       		.byte	0xc
 800 010f AD000000 		.4byte	0xad
 801 0113 04       		.byte	0x4
 802 0114 06       		.uleb128 0x6
 803 0115 89020000 		.4byte	.LASF24
 804 0119 04       		.byte	0x4
 805 011a 0D       		.byte	0xd
 806 011b A2000000 		.4byte	0xa2
 807 011f 06       		.byte	0x6
 808 0120 06       		.uleb128 0x6
 809 0121 F5000000 		.4byte	.LASF25
 810 0125 04       		.byte	0x4
 811 0126 0E       		.byte	0xe
 812 0127 2D010000 		.4byte	0x12d
 813 012b 07       		.byte	0x7
 814 012c 00       		.byte	0
 815 012d 08       		.uleb128 0x8
 816 012e A2000000 		.4byte	0xa2
 817 0132 3D010000 		.4byte	0x13d
 818 0136 09       		.uleb128 0x9
 819 0137 EE000000 		.4byte	0xee
 820 013b 07       		.byte	0x7
 821 013c 00       		.byte	0
 822 013d 03       		.uleb128 0x3
 823 013e 94010000 		.4byte	.LASF26
 824 0142 04       		.byte	0x4
 825 0143 0F       		.byte	0xf
 826 0144 F5000000 		.4byte	0xf5
 827 0148 0A       		.uleb128 0xa
 828 0149 03010000 		.4byte	.LASF40
 829 014d 01       		.byte	0x1
 830 014e 0A       		.byte	0xa
 831 014f 00000000 		.4byte	.LFB63
 832 0153 20000000 		.4byte	.LFE63-.LFB63
 833 0157 01       		.uleb128 0x1
 834 0158 9C       		.byte	0x9c
ARM GAS  D:\Windows\AppData\Local\Temp\ccMOdMwq.s 			page 19


 835 0159 0B       		.uleb128 0xb
 836 015a D5000000 		.4byte	.LASF32
 837 015e 01       		.byte	0x1
 838 015f 11       		.byte	0x11
 839 0160 00000000 		.4byte	.LFB64
 840 0164 60000000 		.4byte	.LFE64-.LFB64
 841 0168 01       		.uleb128 0x1
 842 0169 9C       		.byte	0x9c
 843 016a 89010000 		.4byte	0x189
 844 016e 0C       		.uleb128 0xc
 845 016f 57020000 		.4byte	.LASF27
 846 0173 01       		.byte	0x1
 847 0174 11       		.byte	0x11
 848 0175 CE000000 		.4byte	0xce
 849 0179 02       		.uleb128 0x2
 850 017a 91       		.byte	0x91
 851 017b 58       		.sleb128 -40
 852 017c 0D       		.uleb128 0xd
 853 017d 6900     		.ascii	"i\000"
 854 017f 01       		.byte	0x1
 855 0180 12       		.byte	0x12
 856 0181 94000000 		.4byte	0x94
 857 0185 02       		.uleb128 0x2
 858 0186 91       		.byte	0x91
 859 0187 64       		.sleb128 -28
 860 0188 00       		.byte	0
 861 0189 0E       		.uleb128 0xe
 862 018a 6B020000 		.4byte	.LASF29
 863 018e 01       		.byte	0x1
 864 018f 1E       		.byte	0x1e
 865 0190 A2000000 		.4byte	0xa2
 866 0194 00000000 		.4byte	.LFB65
 867 0198 48000000 		.4byte	.LFE65-.LFB65
 868 019c 01       		.uleb128 0x1
 869 019d 9C       		.byte	0x9c
 870 019e D9010000 		.4byte	0x1d9
 871 01a2 0F       		.uleb128 0xf
 872 01a3 6D736700 		.ascii	"msg\000"
 873 01a7 01       		.byte	0x1
 874 01a8 1E       		.byte	0x1e
 875 01a9 D9010000 		.4byte	0x1d9
 876 01ad 02       		.uleb128 0x2
 877 01ae 91       		.byte	0x91
 878 01af 6C       		.sleb128 -20
 879 01b0 0F       		.uleb128 0xf
 880 01b1 6C656E00 		.ascii	"len\000"
 881 01b5 01       		.byte	0x1
 882 01b6 1E       		.byte	0x1e
 883 01b7 94000000 		.4byte	0x94
 884 01bb 02       		.uleb128 0x2
 885 01bc 91       		.byte	0x91
 886 01bd 68       		.sleb128 -24
 887 01be 10       		.uleb128 0x10
 888 01bf CF000000 		.4byte	.LASF28
 889 01c3 01       		.byte	0x1
 890 01c4 1F       		.byte	0x1f
 891 01c5 A2000000 		.4byte	0xa2
ARM GAS  D:\Windows\AppData\Local\Temp\ccMOdMwq.s 			page 20


 892 01c9 02       		.uleb128 0x2
 893 01ca 91       		.byte	0x91
 894 01cb 77       		.sleb128 -9
 895 01cc 0D       		.uleb128 0xd
 896 01cd 6900     		.ascii	"i\000"
 897 01cf 01       		.byte	0x1
 898 01d0 20       		.byte	0x20
 899 01d1 A2000000 		.4byte	0xa2
 900 01d5 02       		.uleb128 0x2
 901 01d6 91       		.byte	0x91
 902 01d7 76       		.sleb128 -10
 903 01d8 00       		.byte	0
 904 01d9 11       		.uleb128 0x11
 905 01da 04       		.byte	0x4
 906 01db A2000000 		.4byte	0xa2
 907 01df 0E       		.uleb128 0xe
 908 01e0 61010000 		.4byte	.LASF30
 909 01e4 01       		.byte	0x1
 910 01e5 27       		.byte	0x27
 911 01e6 A2000000 		.4byte	0xa2
 912 01ea 00000000 		.4byte	.LFB66
 913 01ee 42000000 		.4byte	.LFE66-.LFB66
 914 01f2 01       		.uleb128 0x1
 915 01f3 9C       		.byte	0x9c
 916 01f4 2F020000 		.4byte	0x22f
 917 01f8 0F       		.uleb128 0xf
 918 01f9 6D736700 		.ascii	"msg\000"
 919 01fd 01       		.byte	0x1
 920 01fe 27       		.byte	0x27
 921 01ff D9010000 		.4byte	0x1d9
 922 0203 02       		.uleb128 0x2
 923 0204 91       		.byte	0x91
 924 0205 6C       		.sleb128 -20
 925 0206 0F       		.uleb128 0xf
 926 0207 6C656E00 		.ascii	"len\000"
 927 020b 01       		.byte	0x1
 928 020c 27       		.byte	0x27
 929 020d 94000000 		.4byte	0x94
 930 0211 02       		.uleb128 0x2
 931 0212 91       		.byte	0x91
 932 0213 68       		.sleb128 -24
 933 0214 10       		.uleb128 0x10
 934 0215 FA000000 		.4byte	.LASF31
 935 0219 01       		.byte	0x1
 936 021a 28       		.byte	0x28
 937 021b A2000000 		.4byte	0xa2
 938 021f 02       		.uleb128 0x2
 939 0220 91       		.byte	0x91
 940 0221 77       		.sleb128 -9
 941 0222 0D       		.uleb128 0xd
 942 0223 6900     		.ascii	"i\000"
 943 0225 01       		.byte	0x1
 944 0226 29       		.byte	0x29
 945 0227 A2000000 		.4byte	0xa2
 946 022b 02       		.uleb128 0x2
 947 022c 91       		.byte	0x91
 948 022d 76       		.sleb128 -10
ARM GAS  D:\Windows\AppData\Local\Temp\ccMOdMwq.s 			page 21


 949 022e 00       		.byte	0
 950 022f 12       		.uleb128 0x12
 951 0230 90020000 		.4byte	.LASF33
 952 0234 01       		.byte	0x1
 953 0235 30       		.byte	0x30
 954 0236 00000000 		.4byte	.LFB67
 955 023a 14000000 		.4byte	.LFE67-.LFB67
 956 023e 01       		.uleb128 0x1
 957 023f 9C       		.byte	0x9c
 958 0240 53020000 		.4byte	0x253
 959 0244 0F       		.uleb128 0xf
 960 0245 6D736700 		.ascii	"msg\000"
 961 0249 01       		.byte	0x1
 962 024a 30       		.byte	0x30
 963 024b 53020000 		.4byte	0x253
 964 024f 02       		.uleb128 0x2
 965 0250 91       		.byte	0x91
 966 0251 74       		.sleb128 -12
 967 0252 00       		.byte	0
 968 0253 11       		.uleb128 0x11
 969 0254 04       		.byte	0x4
 970 0255 3D010000 		.4byte	0x13d
 971 0259 12       		.uleb128 0x12
 972 025a 7B010000 		.4byte	.LASF34
 973 025e 01       		.byte	0x1
 974 025f 35       		.byte	0x35
 975 0260 00000000 		.4byte	.LFB68
 976 0264 10010000 		.4byte	.LFE68-.LFB68
 977 0268 01       		.uleb128 0x1
 978 0269 9C       		.byte	0x9c
 979 026a 8B020000 		.4byte	0x28b
 980 026e 0F       		.uleb128 0xf
 981 026f 6D736700 		.ascii	"msg\000"
 982 0273 01       		.byte	0x1
 983 0274 35       		.byte	0x35
 984 0275 53020000 		.4byte	0x253
 985 0279 02       		.uleb128 0x2
 986 027a 91       		.byte	0x91
 987 027b 4C       		.sleb128 -52
 988 027c 10       		.uleb128 0x10
 989 027d 2E000000 		.4byte	.LASF35
 990 0281 01       		.byte	0x1
 991 0282 36       		.byte	0x36
 992 0283 8B020000 		.4byte	0x28b
 993 0287 02       		.uleb128 0x2
 994 0288 91       		.byte	0x91
 995 0289 54       		.sleb128 -44
 996 028a 00       		.byte	0
 997 028b 08       		.uleb128 0x8
 998 028c A2000000 		.4byte	0xa2
 999 0290 9B020000 		.4byte	0x29b
 1000 0294 09       		.uleb128 0x9
 1001 0295 EE000000 		.4byte	0xee
 1002 0299 21       		.byte	0x21
 1003 029a 00       		.byte	0
 1004 029b 13       		.uleb128 0x13
 1005 029c 00000000 		.4byte	.LASF41
ARM GAS  D:\Windows\AppData\Local\Temp\ccMOdMwq.s 			page 22


 1006 02a0 01       		.byte	0x1
 1007 02a1 6A       		.byte	0x6a
 1008 02a2 00000000 		.4byte	.LFB69
 1009 02a6 E0000000 		.4byte	.LFE69-.LFB69
 1010 02aa 01       		.uleb128 0x1
 1011 02ab 9C       		.byte	0x9c
 1012 02ac D5020000 		.4byte	0x2d5
 1013 02b0 0D       		.uleb128 0xd
 1014 02b1 6900     		.ascii	"i\000"
 1015 02b3 01       		.byte	0x1
 1016 02b4 6B       		.byte	0x6b
 1017 02b5 94000000 		.4byte	0x94
 1018 02b9 02       		.uleb128 0x2
 1019 02ba 91       		.byte	0x91
 1020 02bb 74       		.sleb128 -12
 1021 02bc 14       		.uleb128 0x14
 1022 02bd 0C000000 		.4byte	.LBB2
 1023 02c1 BC000000 		.4byte	.LBE2-.LBB2
 1024 02c5 0D       		.uleb128 0xd
 1025 02c6 6D736700 		.ascii	"msg\000"
 1026 02ca 01       		.byte	0x1
 1027 02cb 6E       		.byte	0x6e
 1028 02cc 8B020000 		.4byte	0x28b
 1029 02d0 02       		.uleb128 0x2
 1030 02d1 91       		.byte	0x91
 1031 02d2 50       		.sleb128 -48
 1032 02d3 00       		.byte	0
 1033 02d4 00       		.byte	0
 1034 02d5 10       		.uleb128 0x10
 1035 02d6 2F010000 		.4byte	.LASF36
 1036 02da 01       		.byte	0x1
 1037 02db 07       		.byte	0x7
 1038 02dc 2D010000 		.4byte	0x12d
 1039 02e0 05       		.uleb128 0x5
 1040 02e1 03       		.byte	0x3
 1041 02e2 00000000 		.4byte	addr
 1042 02e6 15       		.uleb128 0x15
 1043 02e7 34010000 		.4byte	.LASF42
 1044 02eb 05       		.byte	0x5
 1045 02ec 9606     		.2byte	0x696
 1046 02ee F2020000 		.4byte	0x2f2
 1047 02f2 16       		.uleb128 0x16
 1048 02f3 B8000000 		.4byte	0xb8
 1049 02f7 00       		.byte	0
 1050              		.section	.debug_abbrev,"",%progbits
 1051              	.Ldebug_abbrev0:
 1052 0000 01       		.uleb128 0x1
 1053 0001 11       		.uleb128 0x11
 1054 0002 01       		.byte	0x1
 1055 0003 25       		.uleb128 0x25
 1056 0004 0E       		.uleb128 0xe
 1057 0005 13       		.uleb128 0x13
 1058 0006 0B       		.uleb128 0xb
 1059 0007 03       		.uleb128 0x3
 1060 0008 0E       		.uleb128 0xe
 1061 0009 1B       		.uleb128 0x1b
 1062 000a 0E       		.uleb128 0xe
ARM GAS  D:\Windows\AppData\Local\Temp\ccMOdMwq.s 			page 23


 1063 000b 55       		.uleb128 0x55
 1064 000c 17       		.uleb128 0x17
 1065 000d 11       		.uleb128 0x11
 1066 000e 01       		.uleb128 0x1
 1067 000f 10       		.uleb128 0x10
 1068 0010 17       		.uleb128 0x17
 1069 0011 00       		.byte	0
 1070 0012 00       		.byte	0
 1071 0013 02       		.uleb128 0x2
 1072 0014 24       		.uleb128 0x24
 1073 0015 00       		.byte	0
 1074 0016 0B       		.uleb128 0xb
 1075 0017 0B       		.uleb128 0xb
 1076 0018 3E       		.uleb128 0x3e
 1077 0019 0B       		.uleb128 0xb
 1078 001a 03       		.uleb128 0x3
 1079 001b 0E       		.uleb128 0xe
 1080 001c 00       		.byte	0
 1081 001d 00       		.byte	0
 1082 001e 03       		.uleb128 0x3
 1083 001f 16       		.uleb128 0x16
 1084 0020 00       		.byte	0
 1085 0021 03       		.uleb128 0x3
 1086 0022 0E       		.uleb128 0xe
 1087 0023 3A       		.uleb128 0x3a
 1088 0024 0B       		.uleb128 0xb
 1089 0025 3B       		.uleb128 0x3b
 1090 0026 0B       		.uleb128 0xb
 1091 0027 49       		.uleb128 0x49
 1092 0028 13       		.uleb128 0x13
 1093 0029 00       		.byte	0
 1094 002a 00       		.byte	0
 1095 002b 04       		.uleb128 0x4
 1096 002c 24       		.uleb128 0x24
 1097 002d 00       		.byte	0
 1098 002e 0B       		.uleb128 0xb
 1099 002f 0B       		.uleb128 0xb
 1100 0030 3E       		.uleb128 0x3e
 1101 0031 0B       		.uleb128 0xb
 1102 0032 03       		.uleb128 0x3
 1103 0033 08       		.uleb128 0x8
 1104 0034 00       		.byte	0
 1105 0035 00       		.byte	0
 1106 0036 05       		.uleb128 0x5
 1107 0037 13       		.uleb128 0x13
 1108 0038 01       		.byte	0x1
 1109 0039 0B       		.uleb128 0xb
 1110 003a 0B       		.uleb128 0xb
 1111 003b 3A       		.uleb128 0x3a
 1112 003c 0B       		.uleb128 0xb
 1113 003d 3B       		.uleb128 0x3b
 1114 003e 0B       		.uleb128 0xb
 1115 003f 01       		.uleb128 0x1
 1116 0040 13       		.uleb128 0x13
 1117 0041 00       		.byte	0
 1118 0042 00       		.byte	0
 1119 0043 06       		.uleb128 0x6
ARM GAS  D:\Windows\AppData\Local\Temp\ccMOdMwq.s 			page 24


 1120 0044 0D       		.uleb128 0xd
 1121 0045 00       		.byte	0
 1122 0046 03       		.uleb128 0x3
 1123 0047 0E       		.uleb128 0xe
 1124 0048 3A       		.uleb128 0x3a
 1125 0049 0B       		.uleb128 0xb
 1126 004a 3B       		.uleb128 0x3b
 1127 004b 0B       		.uleb128 0xb
 1128 004c 49       		.uleb128 0x49
 1129 004d 13       		.uleb128 0x13
 1130 004e 38       		.uleb128 0x38
 1131 004f 0B       		.uleb128 0xb
 1132 0050 00       		.byte	0
 1133 0051 00       		.byte	0
 1134 0052 07       		.uleb128 0x7
 1135 0053 0D       		.uleb128 0xd
 1136 0054 00       		.byte	0
 1137 0055 03       		.uleb128 0x3
 1138 0056 08       		.uleb128 0x8
 1139 0057 3A       		.uleb128 0x3a
 1140 0058 0B       		.uleb128 0xb
 1141 0059 3B       		.uleb128 0x3b
 1142 005a 0B       		.uleb128 0xb
 1143 005b 49       		.uleb128 0x49
 1144 005c 13       		.uleb128 0x13
 1145 005d 38       		.uleb128 0x38
 1146 005e 0B       		.uleb128 0xb
 1147 005f 00       		.byte	0
 1148 0060 00       		.byte	0
 1149 0061 08       		.uleb128 0x8
 1150 0062 01       		.uleb128 0x1
 1151 0063 01       		.byte	0x1
 1152 0064 49       		.uleb128 0x49
 1153 0065 13       		.uleb128 0x13
 1154 0066 01       		.uleb128 0x1
 1155 0067 13       		.uleb128 0x13
 1156 0068 00       		.byte	0
 1157 0069 00       		.byte	0
 1158 006a 09       		.uleb128 0x9
 1159 006b 21       		.uleb128 0x21
 1160 006c 00       		.byte	0
 1161 006d 49       		.uleb128 0x49
 1162 006e 13       		.uleb128 0x13
 1163 006f 2F       		.uleb128 0x2f
 1164 0070 0B       		.uleb128 0xb
 1165 0071 00       		.byte	0
 1166 0072 00       		.byte	0
 1167 0073 0A       		.uleb128 0xa
 1168 0074 2E       		.uleb128 0x2e
 1169 0075 00       		.byte	0
 1170 0076 3F       		.uleb128 0x3f
 1171 0077 19       		.uleb128 0x19
 1172 0078 03       		.uleb128 0x3
 1173 0079 0E       		.uleb128 0xe
 1174 007a 3A       		.uleb128 0x3a
 1175 007b 0B       		.uleb128 0xb
 1176 007c 3B       		.uleb128 0x3b
ARM GAS  D:\Windows\AppData\Local\Temp\ccMOdMwq.s 			page 25


 1177 007d 0B       		.uleb128 0xb
 1178 007e 27       		.uleb128 0x27
 1179 007f 19       		.uleb128 0x19
 1180 0080 11       		.uleb128 0x11
 1181 0081 01       		.uleb128 0x1
 1182 0082 12       		.uleb128 0x12
 1183 0083 06       		.uleb128 0x6
 1184 0084 40       		.uleb128 0x40
 1185 0085 18       		.uleb128 0x18
 1186 0086 9642     		.uleb128 0x2116
 1187 0088 19       		.uleb128 0x19
 1188 0089 00       		.byte	0
 1189 008a 00       		.byte	0
 1190 008b 0B       		.uleb128 0xb
 1191 008c 2E       		.uleb128 0x2e
 1192 008d 01       		.byte	0x1
 1193 008e 3F       		.uleb128 0x3f
 1194 008f 19       		.uleb128 0x19
 1195 0090 03       		.uleb128 0x3
 1196 0091 0E       		.uleb128 0xe
 1197 0092 3A       		.uleb128 0x3a
 1198 0093 0B       		.uleb128 0xb
 1199 0094 3B       		.uleb128 0x3b
 1200 0095 0B       		.uleb128 0xb
 1201 0096 27       		.uleb128 0x27
 1202 0097 19       		.uleb128 0x19
 1203 0098 11       		.uleb128 0x11
 1204 0099 01       		.uleb128 0x1
 1205 009a 12       		.uleb128 0x12
 1206 009b 06       		.uleb128 0x6
 1207 009c 40       		.uleb128 0x40
 1208 009d 18       		.uleb128 0x18
 1209 009e 9742     		.uleb128 0x2117
 1210 00a0 19       		.uleb128 0x19
 1211 00a1 01       		.uleb128 0x1
 1212 00a2 13       		.uleb128 0x13
 1213 00a3 00       		.byte	0
 1214 00a4 00       		.byte	0
 1215 00a5 0C       		.uleb128 0xc
 1216 00a6 05       		.uleb128 0x5
 1217 00a7 00       		.byte	0
 1218 00a8 03       		.uleb128 0x3
 1219 00a9 0E       		.uleb128 0xe
 1220 00aa 3A       		.uleb128 0x3a
 1221 00ab 0B       		.uleb128 0xb
 1222 00ac 3B       		.uleb128 0x3b
 1223 00ad 0B       		.uleb128 0xb
 1224 00ae 49       		.uleb128 0x49
 1225 00af 13       		.uleb128 0x13
 1226 00b0 02       		.uleb128 0x2
 1227 00b1 18       		.uleb128 0x18
 1228 00b2 00       		.byte	0
 1229 00b3 00       		.byte	0
 1230 00b4 0D       		.uleb128 0xd
 1231 00b5 34       		.uleb128 0x34
 1232 00b6 00       		.byte	0
 1233 00b7 03       		.uleb128 0x3
ARM GAS  D:\Windows\AppData\Local\Temp\ccMOdMwq.s 			page 26


 1234 00b8 08       		.uleb128 0x8
 1235 00b9 3A       		.uleb128 0x3a
 1236 00ba 0B       		.uleb128 0xb
 1237 00bb 3B       		.uleb128 0x3b
 1238 00bc 0B       		.uleb128 0xb
 1239 00bd 49       		.uleb128 0x49
 1240 00be 13       		.uleb128 0x13
 1241 00bf 02       		.uleb128 0x2
 1242 00c0 18       		.uleb128 0x18
 1243 00c1 00       		.byte	0
 1244 00c2 00       		.byte	0
 1245 00c3 0E       		.uleb128 0xe
 1246 00c4 2E       		.uleb128 0x2e
 1247 00c5 01       		.byte	0x1
 1248 00c6 3F       		.uleb128 0x3f
 1249 00c7 19       		.uleb128 0x19
 1250 00c8 03       		.uleb128 0x3
 1251 00c9 0E       		.uleb128 0xe
 1252 00ca 3A       		.uleb128 0x3a
 1253 00cb 0B       		.uleb128 0xb
 1254 00cc 3B       		.uleb128 0x3b
 1255 00cd 0B       		.uleb128 0xb
 1256 00ce 27       		.uleb128 0x27
 1257 00cf 19       		.uleb128 0x19
 1258 00d0 49       		.uleb128 0x49
 1259 00d1 13       		.uleb128 0x13
 1260 00d2 11       		.uleb128 0x11
 1261 00d3 01       		.uleb128 0x1
 1262 00d4 12       		.uleb128 0x12
 1263 00d5 06       		.uleb128 0x6
 1264 00d6 40       		.uleb128 0x40
 1265 00d7 18       		.uleb128 0x18
 1266 00d8 9742     		.uleb128 0x2117
 1267 00da 19       		.uleb128 0x19
 1268 00db 01       		.uleb128 0x1
 1269 00dc 13       		.uleb128 0x13
 1270 00dd 00       		.byte	0
 1271 00de 00       		.byte	0
 1272 00df 0F       		.uleb128 0xf
 1273 00e0 05       		.uleb128 0x5
 1274 00e1 00       		.byte	0
 1275 00e2 03       		.uleb128 0x3
 1276 00e3 08       		.uleb128 0x8
 1277 00e4 3A       		.uleb128 0x3a
 1278 00e5 0B       		.uleb128 0xb
 1279 00e6 3B       		.uleb128 0x3b
 1280 00e7 0B       		.uleb128 0xb
 1281 00e8 49       		.uleb128 0x49
 1282 00e9 13       		.uleb128 0x13
 1283 00ea 02       		.uleb128 0x2
 1284 00eb 18       		.uleb128 0x18
 1285 00ec 00       		.byte	0
 1286 00ed 00       		.byte	0
 1287 00ee 10       		.uleb128 0x10
 1288 00ef 34       		.uleb128 0x34
 1289 00f0 00       		.byte	0
 1290 00f1 03       		.uleb128 0x3
ARM GAS  D:\Windows\AppData\Local\Temp\ccMOdMwq.s 			page 27


 1291 00f2 0E       		.uleb128 0xe
 1292 00f3 3A       		.uleb128 0x3a
 1293 00f4 0B       		.uleb128 0xb
 1294 00f5 3B       		.uleb128 0x3b
 1295 00f6 0B       		.uleb128 0xb
 1296 00f7 49       		.uleb128 0x49
 1297 00f8 13       		.uleb128 0x13
 1298 00f9 02       		.uleb128 0x2
 1299 00fa 18       		.uleb128 0x18
 1300 00fb 00       		.byte	0
 1301 00fc 00       		.byte	0
 1302 00fd 11       		.uleb128 0x11
 1303 00fe 0F       		.uleb128 0xf
 1304 00ff 00       		.byte	0
 1305 0100 0B       		.uleb128 0xb
 1306 0101 0B       		.uleb128 0xb
 1307 0102 49       		.uleb128 0x49
 1308 0103 13       		.uleb128 0x13
 1309 0104 00       		.byte	0
 1310 0105 00       		.byte	0
 1311 0106 12       		.uleb128 0x12
 1312 0107 2E       		.uleb128 0x2e
 1313 0108 01       		.byte	0x1
 1314 0109 3F       		.uleb128 0x3f
 1315 010a 19       		.uleb128 0x19
 1316 010b 03       		.uleb128 0x3
 1317 010c 0E       		.uleb128 0xe
 1318 010d 3A       		.uleb128 0x3a
 1319 010e 0B       		.uleb128 0xb
 1320 010f 3B       		.uleb128 0x3b
 1321 0110 0B       		.uleb128 0xb
 1322 0111 27       		.uleb128 0x27
 1323 0112 19       		.uleb128 0x19
 1324 0113 11       		.uleb128 0x11
 1325 0114 01       		.uleb128 0x1
 1326 0115 12       		.uleb128 0x12
 1327 0116 06       		.uleb128 0x6
 1328 0117 40       		.uleb128 0x40
 1329 0118 18       		.uleb128 0x18
 1330 0119 9642     		.uleb128 0x2116
 1331 011b 19       		.uleb128 0x19
 1332 011c 01       		.uleb128 0x1
 1333 011d 13       		.uleb128 0x13
 1334 011e 00       		.byte	0
 1335 011f 00       		.byte	0
 1336 0120 13       		.uleb128 0x13
 1337 0121 2E       		.uleb128 0x2e
 1338 0122 01       		.byte	0x1
 1339 0123 3F       		.uleb128 0x3f
 1340 0124 19       		.uleb128 0x19
 1341 0125 03       		.uleb128 0x3
 1342 0126 0E       		.uleb128 0xe
 1343 0127 3A       		.uleb128 0x3a
 1344 0128 0B       		.uleb128 0xb
 1345 0129 3B       		.uleb128 0x3b
 1346 012a 0B       		.uleb128 0xb
 1347 012b 11       		.uleb128 0x11
ARM GAS  D:\Windows\AppData\Local\Temp\ccMOdMwq.s 			page 28


 1348 012c 01       		.uleb128 0x1
 1349 012d 12       		.uleb128 0x12
 1350 012e 06       		.uleb128 0x6
 1351 012f 40       		.uleb128 0x40
 1352 0130 18       		.uleb128 0x18
 1353 0131 9642     		.uleb128 0x2116
 1354 0133 19       		.uleb128 0x19
 1355 0134 01       		.uleb128 0x1
 1356 0135 13       		.uleb128 0x13
 1357 0136 00       		.byte	0
 1358 0137 00       		.byte	0
 1359 0138 14       		.uleb128 0x14
 1360 0139 0B       		.uleb128 0xb
 1361 013a 01       		.byte	0x1
 1362 013b 11       		.uleb128 0x11
 1363 013c 01       		.uleb128 0x1
 1364 013d 12       		.uleb128 0x12
 1365 013e 06       		.uleb128 0x6
 1366 013f 00       		.byte	0
 1367 0140 00       		.byte	0
 1368 0141 15       		.uleb128 0x15
 1369 0142 34       		.uleb128 0x34
 1370 0143 00       		.byte	0
 1371 0144 03       		.uleb128 0x3
 1372 0145 0E       		.uleb128 0xe
 1373 0146 3A       		.uleb128 0x3a
 1374 0147 0B       		.uleb128 0xb
 1375 0148 3B       		.uleb128 0x3b
 1376 0149 05       		.uleb128 0x5
 1377 014a 49       		.uleb128 0x49
 1378 014b 13       		.uleb128 0x13
 1379 014c 3F       		.uleb128 0x3f
 1380 014d 19       		.uleb128 0x19
 1381 014e 3C       		.uleb128 0x3c
 1382 014f 19       		.uleb128 0x19
 1383 0150 00       		.byte	0
 1384 0151 00       		.byte	0
 1385 0152 16       		.uleb128 0x16
 1386 0153 35       		.uleb128 0x35
 1387 0154 00       		.byte	0
 1388 0155 49       		.uleb128 0x49
 1389 0156 13       		.uleb128 0x13
 1390 0157 00       		.byte	0
 1391 0158 00       		.byte	0
 1392 0159 00       		.byte	0
 1393              		.section	.debug_aranges,"",%progbits
 1394 0000 4C000000 		.4byte	0x4c
 1395 0004 0200     		.2byte	0x2
 1396 0006 00000000 		.4byte	.Ldebug_info0
 1397 000a 04       		.byte	0x4
 1398 000b 00       		.byte	0
 1399 000c 0000     		.2byte	0
 1400 000e 0000     		.2byte	0
 1401 0010 00000000 		.4byte	.LFB63
 1402 0014 20000000 		.4byte	.LFE63-.LFB63
 1403 0018 00000000 		.4byte	.LFB64
 1404 001c 60000000 		.4byte	.LFE64-.LFB64
ARM GAS  D:\Windows\AppData\Local\Temp\ccMOdMwq.s 			page 29


 1405 0020 00000000 		.4byte	.LFB65
 1406 0024 48000000 		.4byte	.LFE65-.LFB65
 1407 0028 00000000 		.4byte	.LFB66
 1408 002c 42000000 		.4byte	.LFE66-.LFB66
 1409 0030 00000000 		.4byte	.LFB67
 1410 0034 14000000 		.4byte	.LFE67-.LFB67
 1411 0038 00000000 		.4byte	.LFB68
 1412 003c 10010000 		.4byte	.LFE68-.LFB68
 1413 0040 00000000 		.4byte	.LFB69
 1414 0044 E0000000 		.4byte	.LFE69-.LFB69
 1415 0048 00000000 		.4byte	0
 1416 004c 00000000 		.4byte	0
 1417              		.section	.debug_ranges,"",%progbits
 1418              	.Ldebug_ranges0:
 1419 0000 00000000 		.4byte	.LFB63
 1420 0004 20000000 		.4byte	.LFE63
 1421 0008 00000000 		.4byte	.LFB64
 1422 000c 60000000 		.4byte	.LFE64
 1423 0010 00000000 		.4byte	.LFB65
 1424 0014 48000000 		.4byte	.LFE65
 1425 0018 00000000 		.4byte	.LFB66
 1426 001c 42000000 		.4byte	.LFE66
 1427 0020 00000000 		.4byte	.LFB67
 1428 0024 14000000 		.4byte	.LFE67
 1429 0028 00000000 		.4byte	.LFB68
 1430 002c 10010000 		.4byte	.LFE68
 1431 0030 00000000 		.4byte	.LFB69
 1432 0034 E0000000 		.4byte	.LFE69
 1433 0038 00000000 		.4byte	0
 1434 003c 00000000 		.4byte	0
 1435              		.section	.debug_line,"",%progbits
 1436              	.Ldebug_line0:
 1437 0000 E9020000 		.section	.debug_str,"MS",%progbits,1
 1437      02003D01 
 1437      00000201 
 1437      FB0E0D00 
 1437      01010101 
 1438              	.LASF41:
 1439 0000 78626565 		.ascii	"xbee_Tx_req_test\000"
 1439      5F54785F 
 1439      7265715F 
 1439      74657374 
 1439      00
 1440              	.LASF3:
 1441 0011 5F5F7569 		.ascii	"__uint8_t\000"
 1441      6E74385F 
 1441      7400
 1442              	.LASF6:
 1443 001b 5F5F696E 		.ascii	"__int32_t\000"
 1443      7433325F 
 1443      7400
 1444              	.LASF7:
 1445 0025 6C6F6E67 		.ascii	"long int\000"
 1445      20696E74 
 1445      00
 1446              	.LASF35:
 1447 002e 4150495F 		.ascii	"API_frame\000"
ARM GAS  D:\Windows\AppData\Local\Temp\ccMOdMwq.s 			page 30


 1447      6672616D 
 1447      6500
 1448              	.LASF37:
 1449 0038 474E5520 		.ascii	"GNU C 4.9.3 20150303 (release) [ARM/embedded-4_9-br"
 1449      4320342E 
 1449      392E3320 
 1449      32303135 
 1449      30333033 
 1450 006b 616E6368 		.ascii	"anch revision 221220] -mcpu=cortex-m3 -mthumb -g -O"
 1450      20726576 
 1450      6973696F 
 1450      6E203232 
 1450      31323230 
 1451 009e 30202D66 		.ascii	"0 -ffunction-sections -ffat-lto-objects\000"
 1451      66756E63 
 1451      74696F6E 
 1451      2D736563 
 1451      74696F6E 
 1452              	.LASF18:
 1453 00c6 75696E74 		.ascii	"uint64_t\000"
 1453      36345F74 
 1453      00
 1454              	.LASF28:
 1455 00cf 636B7375 		.ascii	"cksum\000"
 1455      6D00
 1456              	.LASF32:
 1457 00d5 7365745F 		.ascii	"set_des_addr\000"
 1457      6465735F 
 1457      61646472 
 1457      00
 1458              	.LASF23:
 1459 00e2 6D696C6C 		.ascii	"millicounter\000"
 1459      69636F75 
 1459      6E746572 
 1459      00
 1460              	.LASF19:
 1461 00ef 666C6F61 		.ascii	"float\000"
 1461      7400
 1462              	.LASF25:
 1463 00f5 64617461 		.ascii	"data\000"
 1463      00
 1464              	.LASF31:
 1465 00fa 63686563 		.ascii	"checksum\000"
 1465      6B73756D 
 1465      00
 1466              	.LASF40:
 1467 0103 72616469 		.ascii	"radio_init_SPI\000"
 1467      6F5F696E 
 1467      69745F53 
 1467      504900
 1468              	.LASF8:
 1469 0112 5F5F7569 		.ascii	"__uint32_t\000"
 1469      6E743332 
 1469      5F7400
 1470              	.LASF9:
 1471 011d 6C6F6E67 		.ascii	"long unsigned int\000"
 1471      20756E73 
ARM GAS  D:\Windows\AppData\Local\Temp\ccMOdMwq.s 			page 31


 1471      69676E65 
 1471      6420696E 
 1471      7400
 1472              	.LASF36:
 1473 012f 61646472 		.ascii	"addr\000"
 1473      00
 1474              	.LASF42:
 1475 0134 49544D5F 		.ascii	"ITM_RxBuffer\000"
 1475      52784275 
 1475      66666572 
 1475      00
 1476              	.LASF1:
 1477 0141 756E7369 		.ascii	"unsigned char\000"
 1477      676E6564 
 1477      20636861 
 1477      7200
 1478              	.LASF4:
 1479 014f 5F5F7569 		.ascii	"__uint16_t\000"
 1479      6E743136 
 1479      5F7400
 1480              	.LASF20:
 1481 015a 646F7562 		.ascii	"double\000"
 1481      6C6500
 1482              	.LASF30:
 1483 0161 63686563 		.ascii	"checksum_verify\000"
 1483      6B73756D 
 1483      5F766572 
 1483      69667900 
 1484              	.LASF2:
 1485 0171 73686F72 		.ascii	"short int\000"
 1485      7420696E 
 1485      7400
 1486              	.LASF34:
 1487 017b 78626565 		.ascii	"xbee_Tx_req\000"
 1487      5F54785F 
 1487      72657100 
 1488              	.LASF13:
 1489 0187 756E7369 		.ascii	"unsigned int\000"
 1489      676E6564 
 1489      20696E74 
 1489      00
 1490              	.LASF26:
 1491 0194 44617461 		.ascii	"DataPacket\000"
 1491      5061636B 
 1491      657400
 1492              	.LASF12:
 1493 019f 6C6F6E67 		.ascii	"long long unsigned int\000"
 1493      206C6F6E 
 1493      6720756E 
 1493      7369676E 
 1493      65642069 
 1494              	.LASF14:
 1495 01b6 75696E74 		.ascii	"uint8_t\000"
 1495      385F7400 
 1496              	.LASF16:
 1497 01be 696E7433 		.ascii	"int32_t\000"
 1497      325F7400 
ARM GAS  D:\Windows\AppData\Local\Temp\ccMOdMwq.s 			page 32


 1498              	.LASF22:
 1499 01c6 73697A65 		.ascii	"sizetype\000"
 1499      74797065 
 1499      00
 1500              	.LASF5:
 1501 01cf 73686F72 		.ascii	"short unsigned int\000"
 1501      7420756E 
 1501      7369676E 
 1501      65642069 
 1501      6E7400
 1502              	.LASF10:
 1503 01e2 6C6F6E67 		.ascii	"long long int\000"
 1503      206C6F6E 
 1503      6720696E 
 1503      7400
 1504              	.LASF21:
 1505 01f0 63686172 		.ascii	"char\000"
 1505      00
 1506              	.LASF11:
 1507 01f5 5F5F7569 		.ascii	"__uint64_t\000"
 1507      6E743634 
 1507      5F7400
 1508              	.LASF15:
 1509 0200 75696E74 		.ascii	"uint16_t\000"
 1509      31365F74 
 1509      00
 1510              	.LASF39:
 1511 0209 443A5C44 		.ascii	"D:\\Downloads\\FRUCD\\Node-Beaver-FE3\\Node-Beaver\\"
 1511      6F776E6C 
 1511      6F616473 
 1511      5C465255 
 1511      43445C4E 
 1512 0238 4E6F6465 		.ascii	"Node-Beaver_FE3.cydsn\000"
 1512      2D426561 
 1512      7665725F 
 1512      4645332E 
 1512      63796473 
 1513              	.LASF17:
 1514 024e 75696E74 		.ascii	"uint32_t\000"
 1514      33325F74 
 1514      00
 1515              	.LASF27:
 1516 0257 6E657741 		.ascii	"newAddr\000"
 1516      64647200 
 1517              	.LASF0:
 1518 025f 7369676E 		.ascii	"signed char\000"
 1518      65642063 
 1518      68617200 
 1519              	.LASF29:
 1520 026b 63686563 		.ascii	"checksum_calc\000"
 1520      6B73756D 
 1520      5F63616C 
 1520      6300
 1521              	.LASF38:
 1522 0279 72616469 		.ascii	"radio_manager.c\000"
 1522      6F5F6D61 
 1522      6E616765 
ARM GAS  D:\Windows\AppData\Local\Temp\ccMOdMwq.s 			page 33


 1522      722E6300 
 1523              	.LASF24:
 1524 0289 6C656E67 		.ascii	"length\000"
 1524      746800
 1525              	.LASF33:
 1526 0290 78626565 		.ascii	"xbee_send\000"
 1526      5F73656E 
 1526      6400
 1527              		.ident	"GCC: (GNU Tools for ARM Embedded Processors) 4.9.3 20150303 (release) [ARM/embedded-4_9-br
