ARM GAS  D:\Windows\AppData\Local\Temp\cc8WWfsF.s 			page 1


   1              		.syntax unified
   2              		.cpu cortex-m3
   3              		.fpu softvfp
   4              		.eabi_attribute 20, 1
   5              		.eabi_attribute 21, 1
   6              		.eabi_attribute 23, 3
   7              		.eabi_attribute 24, 1
   8              		.eabi_attribute 25, 1
   9              		.eabi_attribute 26, 1
  10              		.eabi_attribute 30, 6
  11              		.eabi_attribute 34, 1
  12              		.eabi_attribute 18, 4
  13              		.thumb
  14              		.file	"sd_manager.c"
  15              		.text
  16              	.Ltext0:
  17              		.cfi_sections	.debug_frame
  18              		.comm	pfile,4,4
  19              		.global	sd_ok
  20              		.bss
  21              		.type	sd_ok, %object
  22              		.size	sd_ok, 1
  23              	sd_ok:
  24 0000 00       		.space	1
  25              		.global	set_time_file
  26              		.section	.rodata
  27              		.align	2
  28              		.type	set_time_file, %object
  29              		.size	set_time_file, 19
  30              	set_time_file:
  31 0000 5C6C6F67 		.ascii	"\\logs\\set_time.txt\000"
  31      735C7365 
  31      745F7469 
  31      6D652E74 
  31      787400
  32              		.comm	sd_queue,16384,4
  33              		.global	sd_head
  34              		.bss
  35 0001 00       		.align	1
  36              		.type	sd_head, %object
  37              		.size	sd_head, 2
  38              	sd_head:
  39 0002 0000     		.space	2
  40              		.global	sd_tail
  41              		.align	1
  42              		.type	sd_tail, %object
  43              		.size	sd_tail, 2
  44              	sd_tail:
  45 0004 0000     		.space	2
  46              		.section	.text.power_interrupt,"ax",%progbits
  47              		.align	2
  48              		.global	power_interrupt
  49              		.thumb
  50              		.thumb_func
  51              		.type	power_interrupt, %function
  52              	power_interrupt:
  53              	.LFB63:
ARM GAS  D:\Windows\AppData\Local\Temp\cc8WWfsF.s 			page 2


  54              		.file 1 "sd_manager.c"
   1:sd_manager.c  **** #include "sd_manager.h"
   2:sd_manager.c  **** 
   3:sd_manager.c  **** 
   4:sd_manager.c  **** FS_FILE* pfile;
   5:sd_manager.c  **** uint8_t sd_ok = 0;
   6:sd_manager.c  **** 
   7:sd_manager.c  **** const char set_time_file[] = "\\logs\\set_time.txt";
   8:sd_manager.c  **** 
   9:sd_manager.c  **** DataPacket sd_queue[SD_QUEUE_LENGTH];
  10:sd_manager.c  **** uint16_t sd_head = 0, sd_tail = 0;
  11:sd_manager.c  **** 
  12:sd_manager.c  **** 	
  13:sd_manager.c  **** CY_ISR(power_interrupt) {
  55              		.loc 1 13 0
  56              		.cfi_startproc
  57              		@ args = 0, pretend = 0, frame = 0
  58              		@ frame_needed = 1, uses_anonymous_args = 0
  59 0000 80B5     		push	{r7, lr}
  60              		.cfi_def_cfa_offset 8
  61              		.cfi_offset 7, -8
  62              		.cfi_offset 14, -4
  63 0002 00AF     		add	r7, sp, #0
  64              		.cfi_def_cfa_register 7
  14:sd_manager.c  ****     LED_Write(1);
  65              		.loc 1 14 0
  66 0004 0120     		movs	r0, #1
  67 0006 FFF7FEFF 		bl	LED_Write
  15:sd_manager.c  **** 	sd_stop();
  68              		.loc 1 15 0
  69 000a FFF7FEFF 		bl	sd_stop
  16:sd_manager.c  **** 	power_isr_ClearPending();
  70              		.loc 1 16 0
  71 000e FFF7FEFF 		bl	power_isr_ClearPending
  17:sd_manager.c  ****     CyDelay(3000);
  72              		.loc 1 17 0
  73 0012 40F6B830 		movw	r0, #3000
  74 0016 FFF7FEFF 		bl	CyDelay
  18:sd_manager.c  ****     CySoftwareReset();
  75              		.loc 1 18 0
  76 001a FFF7FEFF 		bl	CySoftwareReset
  77              	.L2:
  19:sd_manager.c  ****     for(;;); // halt program
  78              		.loc 1 19 0 discriminator 1
  79 001e FEE7     		b	.L2
  80              		.cfi_endproc
  81              	.LFE63:
  82              		.size	power_interrupt, .-power_interrupt
  83              		.section	.text.sd_interrupt,"ax",%progbits
  84              		.align	2
  85              		.global	sd_interrupt
  86              		.thumb
  87              		.thumb_func
  88              		.type	sd_interrupt, %function
  89              	sd_interrupt:
  90              	.LFB64:
  20:sd_manager.c  **** } // CY_ISR(power_interrupt)
ARM GAS  D:\Windows\AppData\Local\Temp\cc8WWfsF.s 			page 3


  21:sd_manager.c  **** 
  22:sd_manager.c  **** 
  23:sd_manager.c  **** CY_ISR(sd_interrupt) {	//triggers every second
  91              		.loc 1 23 0
  92              		.cfi_startproc
  93              		@ args = 0, pretend = 0, frame = 0
  94              		@ frame_needed = 1, uses_anonymous_args = 0
  95 0000 80B5     		push	{r7, lr}
  96              		.cfi_def_cfa_offset 8
  97              		.cfi_offset 7, -8
  98              		.cfi_offset 14, -4
  99 0002 00AF     		add	r7, sp, #0
 100              		.cfi_def_cfa_register 7
  24:sd_manager.c  **** 	sd_write();
 101              		.loc 1 24 0
 102 0004 FFF7FEFF 		bl	sd_write
  25:sd_manager.c  **** }
 103              		.loc 1 25 0
 104 0008 80BD     		pop	{r7, pc}
 105              		.cfi_endproc
 106              	.LFE64:
 107              		.size	sd_interrupt, .-sd_interrupt
 108 000a 00BF     		.section	.rodata
 109 0013 00       		.align	2
 110              	.LC0:
 111 0014 6C6F6773 		.ascii	"logs\000"
 111      00
 112 0019 000000   		.align	2
 113              	.LC1:
 114 001c 5C6C6F67 		.ascii	"\\logs\\%04u-%02u-%02u\000"
 114      735C2530 
 114      34752D25 
 114      3032752D 
 114      25303275 
 115 0031 000000   		.align	2
 116              	.LC2:
 117 0034 25735C28 		.ascii	"%s\\(%04u-%02u-%02u)_%02u.%02u.%02u.csv\000"
 117      25303475 
 117      2D253032 
 117      752D2530 
 117      3275295F 
 118 005b 00       		.align	2
 119              	.LC3:
 120 005c 7700     		.ascii	"w\000"
 121 005e 0000     		.align	2
 122              	.LC4:
 123 0060 00       		.ascii	"\000"
 124              		.section	.text.sd_init,"ax",%progbits
 125              		.align	2
 126              		.global	sd_init
 127              		.thumb
 128              		.thumb_func
 129              		.type	sd_init, %function
 130              	sd_init:
 131              	.LFB65:
  26:sd_manager.c  **** 
  27:sd_manager.c  **** /* sd_init()
ARM GAS  D:\Windows\AppData\Local\Temp\cc8WWfsF.s 			page 4


  28:sd_manager.c  **** 	Takes Time struct (time). Returns nothing.
  29:sd_manager.c  **** 	Initializes SD card filesystem.
  30:sd_manager.c  **** 	The following events will cause the sd_ok flag to be reset, which aborts all
  31:sd_manager.c  **** 	SD functions:
  32:sd_manager.c  **** 		- the SD card is not found
  33:sd_manager.c  **** 		- unable to create the "LOGS" directory
  34:sd_manager.c  **** 		- unable to create a directory named after the date
  35:sd_manager.c  **** 		- unable to create and open file for writing
  36:sd_manager.c  **** 	sd_ok is set when the SD card is functional */
  37:sd_manager.c  **** void sd_init(Time time) {
 132              		.loc 1 37 0
 133              		.cfi_startproc
 134              		@ args = 0, pretend = 0, frame = 128
 135              		@ frame_needed = 1, uses_anonymous_args = 0
 136 0000 F0B5     		push	{r4, r5, r6, r7, lr}
 137              		.cfi_def_cfa_offset 20
 138              		.cfi_offset 4, -20
 139              		.cfi_offset 5, -16
 140              		.cfi_offset 6, -12
 141              		.cfi_offset 7, -8
 142              		.cfi_offset 14, -4
 143 0002 A7B0     		sub	sp, sp, #156
 144              		.cfi_def_cfa_offset 176
 145 0004 06AF     		add	r7, sp, #24
 146              		.cfi_def_cfa 7, 152
 147 0006 3C46     		mov	r4, r7
 148 0008 84E80F00 		stmia	r4, {r0, r1, r2, r3}
  38:sd_manager.c  **** 	/* power_isr note:
  39:sd_manager.c  **** 		Triggers unexpectedly due to floating pin/environmental voltages and
  40:sd_manager.c  **** 		capacitance. power isr is disabled for prototyping only.	*/
  41:sd_manager.c  **** 	power_comp_Start();
 149              		.loc 1 41 0
 150 000c FFF7FEFF 		bl	power_comp_Start
  42:sd_manager.c  **** 	power_isr_ClearPending();
 151              		.loc 1 42 0
 152 0010 FFF7FEFF 		bl	power_isr_ClearPending
  43:sd_manager.c  **** 	power_isr_StartEx(power_interrupt);
 153              		.loc 1 43 0
 154 0014 5048     		ldr	r0, .L11
 155 0016 FFF7FEFF 		bl	power_isr_StartEx
  44:sd_manager.c  **** 	sd_timer_Start();
 156              		.loc 1 44 0
 157 001a FFF7FEFF 		bl	sd_timer_Start
  45:sd_manager.c  **** 	sd_isr_StartEx(sd_interrupt);
 158              		.loc 1 45 0
 159 001e 4F48     		ldr	r0, .L11+4
 160 0020 FFF7FEFF 		bl	sd_isr_StartEx
  46:sd_manager.c  ****     
  47:sd_manager.c  **** 	FS_Init();
 161              		.loc 1 47 0
 162 0024 FFF7FEFF 		bl	FS_Init
  48:sd_manager.c  ****     FS_FAT_SupportLFN();            //enable long file name: filenames>8bytes
 163              		.loc 1 48 0
 164 0028 FFF7FEFF 		bl	FS_FAT_SupportLFN
  49:sd_manager.c  **** 	sd_ok = 1;
 165              		.loc 1 49 0
 166 002c 4C4B     		ldr	r3, .L11+8
ARM GAS  D:\Windows\AppData\Local\Temp\cc8WWfsF.s 			page 5


 167 002e 0122     		movs	r2, #1
 168 0030 1A70     		strb	r2, [r3]
  50:sd_manager.c  **** 	char date_str[32], file_str[64];
  51:sd_manager.c  **** 
  52:sd_manager.c  **** 	if(FS_GetNumVolumes() == 1) {
 169              		.loc 1 52 0
 170 0032 FFF7FEFF 		bl	FS_GetNumVolumes
 171 0036 0346     		mov	r3, r0
 172 0038 012B     		cmp	r3, #1
 173 003a 40F08780 		bne	.L5
 174              	.LBB2:
  53:sd_manager.c  **** 		FS_SetFileWriteMode(FS_WRITEMODE_FAST);
 175              		.loc 1 53 0
 176 003e 0220     		movs	r0, #2
 177 0040 FFF7FEFF 		bl	FS_SetFileWriteMode
  54:sd_manager.c  ****         
  55:sd_manager.c  ****         //create logs folder
  56:sd_manager.c  **** 		if(FS_ATTR_DIRECTORY != FS_GetFileAttributes("logs")) { // if logs not a dir
 178              		.loc 1 56 0
 179 0044 4748     		ldr	r0, .L11+12
 180 0046 FFF7FEFF 		bl	FS_GetFileAttributes
 181 004a 0346     		mov	r3, r0
 182 004c 102B     		cmp	r3, #16
 183 004e 09D0     		beq	.L6
  57:sd_manager.c  **** 			if(FS_MkDir("logs")) {
 184              		.loc 1 57 0
 185 0050 4448     		ldr	r0, .L11+12
 186 0052 FFF7FEFF 		bl	FS_MkDir
 187 0056 0346     		mov	r3, r0
 188 0058 002B     		cmp	r3, #0
 189 005a 03D0     		beq	.L6
  58:sd_manager.c  **** 				sd_ok = 0;
 190              		.loc 1 58 0
 191 005c 404B     		ldr	r3, .L11+8
 192 005e 0022     		movs	r2, #0
 193 0060 1A70     		strb	r2, [r3]
  59:sd_manager.c  **** 				return;
 194              		.loc 1 59 0
 195 0062 76E0     		b	.L4
 196              	.L6:
  60:sd_manager.c  **** 			} // if logs folder can't be created
  61:sd_manager.c  ****         }
  62:sd_manager.c  **** 
  63:sd_manager.c  ****         sd_time_set(time);          //set time from a file
 197              		.loc 1 63 0
 198 0064 3B46     		mov	r3, r7
 199 0066 0FCB     		ldmia	r3, {r0, r1, r2, r3}
 200 0068 FFF7FEFF 		bl	sd_time_set
  64:sd_manager.c  **** 
  65:sd_manager.c  **** 		// create date folder 
  66:sd_manager.c  ****         sprintf(date_str, "\\logs\\%04u-%02u-%02u", time.year, time.month, time.day);
 201              		.loc 1 66 0
 202 006c BB89     		ldrh	r3, [r7, #12]
 203 006e 1D46     		mov	r5, r3
 204 0070 3B78     		ldrb	r3, [r7]	@ zero_extendqisi2
 205 0072 1C46     		mov	r4, r3
 206 0074 7B78     		ldrb	r3, [r7, #1]	@ zero_extendqisi2
ARM GAS  D:\Windows\AppData\Local\Temp\cc8WWfsF.s 			page 6


 207 0076 1A46     		mov	r2, r3
 208 0078 07F16003 		add	r3, r7, #96
 209 007c 0092     		str	r2, [sp]
 210 007e 1846     		mov	r0, r3
 211 0080 3949     		ldr	r1, .L11+16
 212 0082 2A46     		mov	r2, r5
 213 0084 2346     		mov	r3, r4
 214 0086 FFF7FEFF 		bl	sprintf
  67:sd_manager.c  **** 		if(FS_ATTR_DIRECTORY != FS_GetFileAttributes(date_str)) { // if day not a dir
 215              		.loc 1 67 0
 216 008a 07F16003 		add	r3, r7, #96
 217 008e 1846     		mov	r0, r3
 218 0090 FFF7FEFF 		bl	FS_GetFileAttributes
 219 0094 0346     		mov	r3, r0
 220 0096 102B     		cmp	r3, #16
 221 0098 0BD0     		beq	.L8
  68:sd_manager.c  **** 			if(FS_MkDir(date_str)) {
 222              		.loc 1 68 0
 223 009a 07F16003 		add	r3, r7, #96
 224 009e 1846     		mov	r0, r3
 225 00a0 FFF7FEFF 		bl	FS_MkDir
 226 00a4 0346     		mov	r3, r0
 227 00a6 002B     		cmp	r3, #0
 228 00a8 03D0     		beq	.L8
  69:sd_manager.c  **** 				sd_ok = 0;
 229              		.loc 1 69 0
 230 00aa 2D4B     		ldr	r3, .L11+8
 231 00ac 0022     		movs	r2, #0
 232 00ae 1A70     		strb	r2, [r3]
  70:sd_manager.c  **** 				return;
 233              		.loc 1 70 0
 234 00b0 4FE0     		b	.L4
 235              	.L8:
  71:sd_manager.c  **** 			} // if day folder can't be created
  72:sd_manager.c  ****         }
  73:sd_manager.c  ****         
  74:sd_manager.c  ****         // create log file
  75:sd_manager.c  ****         sprintf(file_str, "%s\\(%04u-%02u-%02u)_%02u.%02u.%02u.csv",
  76:sd_manager.c  ****             date_str, time.year, time.month, time.day, time.hour, time.minute, time.second);
 236              		.loc 1 76 0
 237 00b2 BB89     		ldrh	r3, [r7, #12]
  75:sd_manager.c  ****             date_str, time.year, time.month, time.day, time.hour, time.minute, time.second);
 238              		.loc 1 75 0
 239 00b4 9E46     		mov	lr, r3
 240              		.loc 1 76 0
 241 00b6 3B78     		ldrb	r3, [r7]	@ zero_extendqisi2
  75:sd_manager.c  ****             date_str, time.year, time.month, time.day, time.hour, time.minute, time.second);
 242              		.loc 1 75 0
 243 00b8 1E46     		mov	r6, r3
 244              		.loc 1 76 0
 245 00ba 7B78     		ldrb	r3, [r7, #1]	@ zero_extendqisi2
  75:sd_manager.c  ****             date_str, time.year, time.month, time.day, time.hour, time.minute, time.second);
 246              		.loc 1 75 0
 247 00bc 1D46     		mov	r5, r3
 248              		.loc 1 76 0
 249 00be BB78     		ldrb	r3, [r7, #2]	@ zero_extendqisi2
  75:sd_manager.c  ****             date_str, time.year, time.month, time.day, time.hour, time.minute, time.second);
ARM GAS  D:\Windows\AppData\Local\Temp\cc8WWfsF.s 			page 7


 250              		.loc 1 75 0
 251 00c0 1C46     		mov	r4, r3
 252              		.loc 1 76 0
 253 00c2 FB78     		ldrb	r3, [r7, #3]	@ zero_extendqisi2
  75:sd_manager.c  ****             date_str, time.year, time.month, time.day, time.hour, time.minute, time.second);
 254              		.loc 1 75 0
 255 00c4 1846     		mov	r0, r3
 256              		.loc 1 76 0
 257 00c6 3B79     		ldrb	r3, [r7, #4]	@ zero_extendqisi2
  75:sd_manager.c  ****             date_str, time.year, time.month, time.day, time.hour, time.minute, time.second);
 258              		.loc 1 75 0
 259 00c8 1946     		mov	r1, r3
 260 00ca 07F12002 		add	r2, r7, #32
 261 00ce 07F16003 		add	r3, r7, #96
 262 00d2 0096     		str	r6, [sp]
 263 00d4 0195     		str	r5, [sp, #4]
 264 00d6 0294     		str	r4, [sp, #8]
 265 00d8 0390     		str	r0, [sp, #12]
 266 00da 0491     		str	r1, [sp, #16]
 267 00dc 1046     		mov	r0, r2
 268 00de 2349     		ldr	r1, .L11+20
 269 00e0 1A46     		mov	r2, r3
 270 00e2 7346     		mov	r3, lr
 271 00e4 FFF7FEFF 		bl	sprintf
  77:sd_manager.c  **** 		pfile = FS_FOpen(file_str, "w"); //create and open new file for writing
 272              		.loc 1 77 0
 273 00e8 07F12003 		add	r3, r7, #32
 274 00ec 1846     		mov	r0, r3
 275 00ee 2049     		ldr	r1, .L11+24
 276 00f0 FFF7FEFF 		bl	FS_FOpen
 277 00f4 0246     		mov	r2, r0
 278 00f6 1F4B     		ldr	r3, .L11+28
 279 00f8 1A60     		str	r2, [r3]
  78:sd_manager.c  **** 		if(pfile == NULL) {
 280              		.loc 1 78 0
 281 00fa 1E4B     		ldr	r3, .L11+28
 282 00fc 1B68     		ldr	r3, [r3]
 283 00fe 002B     		cmp	r3, #0
 284 0100 04D1     		bne	.L9
  79:sd_manager.c  **** 			sd_ok = 0;
 285              		.loc 1 79 0
 286 0102 174B     		ldr	r3, .L11+8
 287 0104 0022     		movs	r2, #0
 288 0106 1A70     		strb	r2, [r3]
  80:sd_manager.c  **** 			return;
 289              		.loc 1 80 0
 290 0108 00BF     		nop
 291 010a 22E0     		b	.L4
 292              	.L9:
  81:sd_manager.c  **** 		} // if file does not exist
  82:sd_manager.c  **** 
  83:sd_manager.c  **** 		// Set file time here
  84:sd_manager.c  **** 		FS_FILETIME file_time;
  85:sd_manager.c  **** 		unsigned long file_timestamp;
  86:sd_manager.c  **** 		
  87:sd_manager.c  **** 		file_time.Year = time.year;
 293              		.loc 1 87 0
ARM GAS  D:\Windows\AppData\Local\Temp\cc8WWfsF.s 			page 8


 294 010c BB89     		ldrh	r3, [r7, #12]
 295 010e BB82     		strh	r3, [r7, #20]	@ movhi
  88:sd_manager.c  **** 		file_time.Month = time.month;
 296              		.loc 1 88 0
 297 0110 3B78     		ldrb	r3, [r7]	@ zero_extendqisi2
 298 0112 9BB2     		uxth	r3, r3
 299 0114 FB82     		strh	r3, [r7, #22]	@ movhi
  89:sd_manager.c  **** 		file_time.Day = time.day;
 300              		.loc 1 89 0
 301 0116 7B78     		ldrb	r3, [r7, #1]	@ zero_extendqisi2
 302 0118 9BB2     		uxth	r3, r3
 303 011a 3B83     		strh	r3, [r7, #24]	@ movhi
  90:sd_manager.c  **** 		file_time.Hour = time.hour;
 304              		.loc 1 90 0
 305 011c BB78     		ldrb	r3, [r7, #2]	@ zero_extendqisi2
 306 011e 9BB2     		uxth	r3, r3
 307 0120 7B83     		strh	r3, [r7, #26]	@ movhi
  91:sd_manager.c  **** 		file_time.Minute = time.minute;
 308              		.loc 1 91 0
 309 0122 FB78     		ldrb	r3, [r7, #3]	@ zero_extendqisi2
 310 0124 9BB2     		uxth	r3, r3
 311 0126 BB83     		strh	r3, [r7, #28]	@ movhi
  92:sd_manager.c  **** 		file_time.Second = time.second;
 312              		.loc 1 92 0
 313 0128 3B79     		ldrb	r3, [r7, #4]	@ zero_extendqisi2
 314 012a 9BB2     		uxth	r3, r3
 315 012c FB83     		strh	r3, [r7, #30]	@ movhi
  93:sd_manager.c  **** 
  94:sd_manager.c  **** 		FS_FileTimeToTimeStamp(&file_time, &file_timestamp);
 316              		.loc 1 94 0
 317 012e 07F11402 		add	r2, r7, #20
 318 0132 07F11003 		add	r3, r7, #16
 319 0136 1046     		mov	r0, r2
 320 0138 1946     		mov	r1, r3
 321 013a FFF7FEFF 		bl	FS_FileTimeToTimeStamp
  95:sd_manager.c  **** 		FS_SetFileTime(file_str, file_timestamp);
 322              		.loc 1 95 0
 323 013e 3B69     		ldr	r3, [r7, #16]
 324 0140 07F12002 		add	r2, r7, #32
 325 0144 1046     		mov	r0, r2
 326 0146 1946     		mov	r1, r3
 327 0148 FFF7FEFF 		bl	FS_SetFileTime
 328              	.L5:
 329              	.LBE2:
  96:sd_manager.c  **** 		/*FS_SetFileTimeEx(file_str, file_timestamp, FS_FILETIME_CREATE);	//doesnt work
  97:sd_manager.c  **** 		FS_SetFileTimeEx(file_str, file_timestamp, FS_FILETIME_ACCESS);
  98:sd_manager.c  **** 		FS_SetFileTimeEx(file_str, file_timestamp, FS_FILETIME_MODIFY);*/
  99:sd_manager.c  **** 	} // if a single file volume exists
 100:sd_manager.c  ****     FS_Sync("");
 330              		.loc 1 100 0 discriminator 1
 331 014c 0A48     		ldr	r0, .L11+32
 332 014e FFF7FEFF 		bl	FS_Sync
 333              	.L4:
 101:sd_manager.c  **** } // sd_init()
 334              		.loc 1 101 0
 335 0152 8437     		adds	r7, r7, #132
 336              		.cfi_def_cfa_offset 20
ARM GAS  D:\Windows\AppData\Local\Temp\cc8WWfsF.s 			page 9


 337 0154 BD46     		mov	sp, r7
 338              		.cfi_def_cfa_register 13
 339              		@ sp needed
 340 0156 F0BD     		pop	{r4, r5, r6, r7, pc}
 341              	.L12:
 342              		.align	2
 343              	.L11:
 344 0158 00000000 		.word	power_interrupt
 345 015c 00000000 		.word	sd_interrupt
 346 0160 00000000 		.word	sd_ok
 347 0164 14000000 		.word	.LC0
 348 0168 1C000000 		.word	.LC1
 349 016c 34000000 		.word	.LC2
 350 0170 5C000000 		.word	.LC3
 351 0174 00000000 		.word	pfile
 352 0178 60000000 		.word	.LC4
 353              		.cfi_endproc
 354              	.LFE65:
 355              		.size	sd_init, .-sd_init
 356              		.section	.rodata
 357 0061 000000   		.align	2
 358              	.LC5:
 359 0064 7200     		.ascii	"r\000"
 360 0066 0000     		.align	2
 361              	.LC6:
 362 0068 2F3A200D 		.ascii	"/: \015\012\000"
 362      0A00
 363              		.section	.text.sd_time_set,"ax",%progbits
 364              		.align	2
 365              		.global	sd_time_set
 366              		.thumb
 367              		.thumb_func
 368              		.type	sd_time_set, %function
 369              	sd_time_set:
 370              	.LFB66:
 102:sd_manager.c  **** 
 103:sd_manager.c  **** 
 104:sd_manager.c  **** /*  Sets the RTC time from a file called set_time.txt if it exists
 105:sd_manager.c  ****     
 106:sd_manager.c  **** 	Enter the following two lines of text in a file called "set_time.txt" in
 107:sd_manager.c  **** 	the /LOGS folder to set the time. The line breaks can consist of \r or
 108:sd_manager.c  **** 	\n characters.
 109:sd_manager.c  **** 	
 110:sd_manager.c  **** 	month/day/year
 111:sd_manager.c  **** 	24-hour:minute:second */
 112:sd_manager.c  **** void sd_time_set(Time time) {
 371              		.loc 1 112 0
 372              		.cfi_startproc
 373              		@ args = 0, pretend = 0, frame = 104
 374              		@ frame_needed = 1, uses_anonymous_args = 0
 375 0000 90B5     		push	{r4, r7, lr}
 376              		.cfi_def_cfa_offset 12
 377              		.cfi_offset 4, -12
 378              		.cfi_offset 7, -8
 379              		.cfi_offset 14, -4
 380 0002 9BB0     		sub	sp, sp, #108
 381              		.cfi_def_cfa_offset 120
ARM GAS  D:\Windows\AppData\Local\Temp\cc8WWfsF.s 			page 10


 382 0004 00AF     		add	r7, sp, #0
 383              		.cfi_def_cfa_register 7
 384 0006 3C46     		mov	r4, r7
 385 0008 84E80F00 		stmia	r4, {r0, r1, r2, r3}
 113:sd_manager.c  **** 	if((pfile = FS_FOpen(set_time_file, "r"))) {
 386              		.loc 1 113 0
 387 000c 5B48     		ldr	r0, .L22
 388 000e 5C49     		ldr	r1, .L22+4
 389 0010 FFF7FEFF 		bl	FS_FOpen
 390 0014 0246     		mov	r2, r0
 391 0016 5B4B     		ldr	r3, .L22+8
 392 0018 1A60     		str	r2, [r3]
 393 001a 5A4B     		ldr	r3, .L22+8
 394 001c 1B68     		ldr	r3, [r3]
 395 001e 002B     		cmp	r3, #0
 396 0020 00F0A980 		beq	.L13
 397              	.LBB3:
 114:sd_manager.c  **** 		char buffer[64];
 115:sd_manager.c  **** 		char *ptr;
 116:sd_manager.c  **** 		uint16_t num;
 117:sd_manager.c  **** 		Time tmp_time;
 118:sd_manager.c  **** 
 119:sd_manager.c  **** 		FS_Read(pfile, buffer, 64); // read entire file
 398              		.loc 1 119 0
 399 0024 574B     		ldr	r3, .L22+8
 400 0026 1A68     		ldr	r2, [r3]
 401 0028 07F11003 		add	r3, r7, #16
 402 002c 1046     		mov	r0, r2
 403 002e 1946     		mov	r1, r3
 404 0030 4022     		movs	r2, #64
 405 0032 FFF7FEFF 		bl	FS_Read
 120:sd_manager.c  **** 
 121:sd_manager.c  **** 		ptr = strtok(buffer, "/: \r\n"); // month
 406              		.loc 1 121 0
 407 0036 07F11003 		add	r3, r7, #16
 408 003a 1846     		mov	r0, r3
 409 003c 5249     		ldr	r1, .L22+12
 410 003e FFF7FEFF 		bl	strtok
 411 0042 7866     		str	r0, [r7, #100]
 122:sd_manager.c  **** 		num = atoi(ptr);
 412              		.loc 1 122 0
 413 0044 786E     		ldr	r0, [r7, #100]
 414 0046 FFF7FEFF 		bl	atoi
 415 004a 0346     		mov	r3, r0
 416 004c A7F86230 		strh	r3, [r7, #98]	@ movhi
 123:sd_manager.c  **** 		if(num <= 12) tmp_time.month = num;
 417              		.loc 1 123 0
 418 0050 B7F86230 		ldrh	r3, [r7, #98]
 419 0054 0C2B     		cmp	r3, #12
 420 0056 04D8     		bhi	.L15
 421              		.loc 1 123 0 is_stmt 0 discriminator 1
 422 0058 B7F86230 		ldrh	r3, [r7, #98]	@ movhi
 423 005c DBB2     		uxtb	r3, r3
 424 005e 87F85030 		strb	r3, [r7, #80]
 425              	.L15:
 124:sd_manager.c  **** 		
 125:sd_manager.c  **** 		ptr = strtok(NULL, "/: \r\n"); // day
ARM GAS  D:\Windows\AppData\Local\Temp\cc8WWfsF.s 			page 11


 426              		.loc 1 125 0 is_stmt 1
 427 0062 0020     		movs	r0, #0
 428 0064 4849     		ldr	r1, .L22+12
 429 0066 FFF7FEFF 		bl	strtok
 430 006a 7866     		str	r0, [r7, #100]
 126:sd_manager.c  **** 		num = atoi(ptr);
 431              		.loc 1 126 0
 432 006c 786E     		ldr	r0, [r7, #100]
 433 006e FFF7FEFF 		bl	atoi
 434 0072 0346     		mov	r3, r0
 435 0074 A7F86230 		strh	r3, [r7, #98]	@ movhi
 127:sd_manager.c  **** 		if(num <= 31) tmp_time.day = num;
 436              		.loc 1 127 0
 437 0078 B7F86230 		ldrh	r3, [r7, #98]
 438 007c 1F2B     		cmp	r3, #31
 439 007e 04D8     		bhi	.L16
 440              		.loc 1 127 0 is_stmt 0 discriminator 1
 441 0080 B7F86230 		ldrh	r3, [r7, #98]	@ movhi
 442 0084 DBB2     		uxtb	r3, r3
 443 0086 87F85130 		strb	r3, [r7, #81]
 444              	.L16:
 128:sd_manager.c  **** 		
 129:sd_manager.c  **** 		ptr = strtok(NULL, "/: \r\n"); // year
 445              		.loc 1 129 0 is_stmt 1
 446 008a 0020     		movs	r0, #0
 447 008c 3E49     		ldr	r1, .L22+12
 448 008e FFF7FEFF 		bl	strtok
 449 0092 7866     		str	r0, [r7, #100]
 130:sd_manager.c  **** 		num = atoi(ptr);
 450              		.loc 1 130 0
 451 0094 786E     		ldr	r0, [r7, #100]
 452 0096 FFF7FEFF 		bl	atoi
 453 009a 0346     		mov	r3, r0
 454 009c A7F86230 		strh	r3, [r7, #98]	@ movhi
 131:sd_manager.c  **** 		if(num <= 99) tmp_time.year = num;  // 2 digit year
 455              		.loc 1 131 0
 456 00a0 B7F86230 		ldrh	r3, [r7, #98]
 457 00a4 632B     		cmp	r3, #99
 458 00a6 04D8     		bhi	.L17
 459              		.loc 1 131 0 is_stmt 0 discriminator 1
 460 00a8 B7F86230 		ldrh	r3, [r7, #98]	@ movhi
 461 00ac A7F85C30 		strh	r3, [r7, #92]	@ movhi
 462 00b0 12E0     		b	.L18
 463              	.L17:
 132:sd_manager.c  **** 		else if(num >= 1900) tmp_time.year = num % 100; // 4 digit year
 464              		.loc 1 132 0 is_stmt 1
 465 00b2 B7F86230 		ldrh	r3, [r7, #98]
 466 00b6 40F26B72 		movw	r2, #1899
 467 00ba 9342     		cmp	r3, r2
 468 00bc 0CD9     		bls	.L18
 469              		.loc 1 132 0 is_stmt 0 discriminator 1
 470 00be B7F86230 		ldrh	r3, [r7, #98]
 471 00c2 324A     		ldr	r2, .L22+16
 472 00c4 A2FB0312 		umull	r1, r2, r2, r3
 473 00c8 5209     		lsrs	r2, r2, #5
 474 00ca 6421     		movs	r1, #100
 475 00cc 01FB02F2 		mul	r2, r1, r2
ARM GAS  D:\Windows\AppData\Local\Temp\cc8WWfsF.s 			page 12


 476 00d0 9B1A     		subs	r3, r3, r2
 477 00d2 9BB2     		uxth	r3, r3
 478 00d4 A7F85C30 		strh	r3, [r7, #92]	@ movhi
 479              	.L18:
 133:sd_manager.c  **** 			
 134:sd_manager.c  **** 		ptr = strtok(NULL, "/: \r\n"); // 24-hour
 480              		.loc 1 134 0 is_stmt 1
 481 00d8 0020     		movs	r0, #0
 482 00da 2B49     		ldr	r1, .L22+12
 483 00dc FFF7FEFF 		bl	strtok
 484 00e0 7866     		str	r0, [r7, #100]
 135:sd_manager.c  **** 		num = atoi(ptr);
 485              		.loc 1 135 0
 486 00e2 786E     		ldr	r0, [r7, #100]
 487 00e4 FFF7FEFF 		bl	atoi
 488 00e8 0346     		mov	r3, r0
 489 00ea A7F86230 		strh	r3, [r7, #98]	@ movhi
 136:sd_manager.c  **** 		if(num <= 23) tmp_time.hour = num;
 490              		.loc 1 136 0
 491 00ee B7F86230 		ldrh	r3, [r7, #98]
 492 00f2 172B     		cmp	r3, #23
 493 00f4 04D8     		bhi	.L19
 494              		.loc 1 136 0 is_stmt 0 discriminator 1
 495 00f6 B7F86230 		ldrh	r3, [r7, #98]	@ movhi
 496 00fa DBB2     		uxtb	r3, r3
 497 00fc 87F85230 		strb	r3, [r7, #82]
 498              	.L19:
 137:sd_manager.c  **** 
 138:sd_manager.c  **** 		ptr = strtok(NULL, "/: \r\n"); // minute
 499              		.loc 1 138 0 is_stmt 1
 500 0100 0020     		movs	r0, #0
 501 0102 2149     		ldr	r1, .L22+12
 502 0104 FFF7FEFF 		bl	strtok
 503 0108 7866     		str	r0, [r7, #100]
 139:sd_manager.c  **** 		num = atoi(ptr);
 504              		.loc 1 139 0
 505 010a 786E     		ldr	r0, [r7, #100]
 506 010c FFF7FEFF 		bl	atoi
 507 0110 0346     		mov	r3, r0
 508 0112 A7F86230 		strh	r3, [r7, #98]	@ movhi
 140:sd_manager.c  **** 		if(num <= 59) tmp_time.minute = num;
 509              		.loc 1 140 0
 510 0116 B7F86230 		ldrh	r3, [r7, #98]
 511 011a 3B2B     		cmp	r3, #59
 512 011c 04D8     		bhi	.L20
 513              		.loc 1 140 0 is_stmt 0 discriminator 1
 514 011e B7F86230 		ldrh	r3, [r7, #98]	@ movhi
 515 0122 DBB2     		uxtb	r3, r3
 516 0124 87F85330 		strb	r3, [r7, #83]
 517              	.L20:
 141:sd_manager.c  **** 
 142:sd_manager.c  **** 		ptr = strtok(NULL, "/: \r\n"); // second 
 518              		.loc 1 142 0 is_stmt 1
 519 0128 0020     		movs	r0, #0
 520 012a 1749     		ldr	r1, .L22+12
 521 012c FFF7FEFF 		bl	strtok
 522 0130 7866     		str	r0, [r7, #100]
ARM GAS  D:\Windows\AppData\Local\Temp\cc8WWfsF.s 			page 13


 143:sd_manager.c  **** 		num = atoi(ptr);
 523              		.loc 1 143 0
 524 0132 786E     		ldr	r0, [r7, #100]
 525 0134 FFF7FEFF 		bl	atoi
 526 0138 0346     		mov	r3, r0
 527 013a A7F86230 		strh	r3, [r7, #98]	@ movhi
 144:sd_manager.c  **** 		if(num <= 59) tmp_time.second = num;
 528              		.loc 1 144 0
 529 013e B7F86230 		ldrh	r3, [r7, #98]
 530 0142 3B2B     		cmp	r3, #59
 531 0144 04D8     		bhi	.L21
 532              		.loc 1 144 0 is_stmt 0 discriminator 1
 533 0146 B7F86230 		ldrh	r3, [r7, #98]	@ movhi
 534 014a DBB2     		uxtb	r3, r3
 535 014c 87F85430 		strb	r3, [r7, #84]
 536              	.L21:
 145:sd_manager.c  **** 
 146:sd_manager.c  **** 		FS_FClose(pfile);
 537              		.loc 1 146 0 is_stmt 1
 538 0150 0C4B     		ldr	r3, .L22+8
 539 0152 1B68     		ldr	r3, [r3]
 540 0154 1846     		mov	r0, r3
 541 0156 FFF7FEFF 		bl	FS_FClose
 147:sd_manager.c  **** 
 148:sd_manager.c  **** 		time_set(tmp_time); // set the new time
 542              		.loc 1 148 0
 543 015a 07F15003 		add	r3, r7, #80
 544 015e 0FCB     		ldmia	r3, {r0, r1, r2, r3}
 545 0160 FFF7FEFF 		bl	time_set
 149:sd_manager.c  **** 		time = tmp_time; // use new time for file names
 546              		.loc 1 149 0
 547 0164 3C46     		mov	r4, r7
 548 0166 07F15003 		add	r3, r7, #80
 549 016a 0FCB     		ldmia	r3, {r0, r1, r2, r3}
 550 016c 84E80F00 		stmia	r4, {r0, r1, r2, r3}
 150:sd_manager.c  **** 		
 151:sd_manager.c  **** 		FS_Remove(set_time_file); // delete file
 551              		.loc 1 151 0
 552 0170 0248     		ldr	r0, .L22
 553 0172 FFF7FEFF 		bl	FS_Remove
 554              	.L13:
 555              	.LBE3:
 152:sd_manager.c  **** 	} // try to find file and set time
 153:sd_manager.c  **** } //sd_time_set()
 556              		.loc 1 153 0
 557 0176 6C37     		adds	r7, r7, #108
 558              		.cfi_def_cfa_offset 12
 559 0178 BD46     		mov	sp, r7
 560              		.cfi_def_cfa_register 13
 561              		@ sp needed
 562 017a 90BD     		pop	{r4, r7, pc}
 563              	.L23:
 564              		.align	2
 565              	.L22:
 566 017c 00000000 		.word	set_time_file
 567 0180 64000000 		.word	.LC5
 568 0184 00000000 		.word	pfile
ARM GAS  D:\Windows\AppData\Local\Temp\cc8WWfsF.s 			page 14


 569 0188 68000000 		.word	.LC6
 570 018c 1F85EB51 		.word	1374389535
 571              		.cfi_endproc
 572              	.LFE66:
 573              		.size	sd_time_set, .-sd_time_set
 574              		.section	.rodata
 575 006e 0000     		.align	2
 576              	.LC7:
 577 0070 25582C25 		.ascii	"%X,%u,%X,%X,%X,%X,%X,%X,%X,%X\012\000"
 577      752C2558 
 577      2C25582C 
 577      25582C25 
 577      582C2558 
 578              		.section	.text.sd_write,"ax",%progbits
 579              		.align	2
 580              		.global	sd_write
 581              		.thumb
 582              		.thumb_func
 583              		.type	sd_write, %function
 584              	sd_write:
 585              	.LFB67:
 154:sd_manager.c  **** 
 155:sd_manager.c  **** 
 156:sd_manager.c  **** /* sd_write()
 157:sd_manager.c  **** 	Writes all messages in buffer to the SD card. 
 158:sd_manager.c  **** 	Synchronizes the filesystem after it is written. */
 159:sd_manager.c  **** void sd_write() {
 586              		.loc 1 159 0
 587              		.cfi_startproc
 588              		@ args = 0, pretend = 0, frame = 72
 589              		@ frame_needed = 1, uses_anonymous_args = 0
 590 0000 2DE9F043 		push	{r4, r5, r6, r7, r8, r9, lr}
 591              		.cfi_def_cfa_offset 28
 592              		.cfi_offset 4, -28
 593              		.cfi_offset 5, -24
 594              		.cfi_offset 6, -20
 595              		.cfi_offset 7, -16
 596              		.cfi_offset 8, -12
 597              		.cfi_offset 9, -8
 598              		.cfi_offset 14, -4
 599 0004 9BB0     		sub	sp, sp, #108
 600              		.cfi_def_cfa_offset 136
 601 0006 08AF     		add	r7, sp, #32
 602              		.cfi_def_cfa 7, 104
 160:sd_manager.c  **** 	if(!sd_ok) return;
 603              		.loc 1 160 0
 604 0008 4D4B     		ldr	r3, .L29
 605 000a 1B78     		ldrb	r3, [r3]	@ zero_extendqisi2
 606 000c 002B     		cmp	r3, #0
 607 000e 00F09280 		beq	.L24
 161:sd_manager.c  **** 
 162:sd_manager.c  **** 	char buffer[64];
 163:sd_manager.c  **** 	short length = 0;
 608              		.loc 1 163 0
 609 0012 0023     		movs	r3, #0
 610 0014 A7F84630 		strh	r3, [r7, #70]	@ movhi
 164:sd_manager.c  **** 	
ARM GAS  D:\Windows\AppData\Local\Temp\cc8WWfsF.s 			page 15


 165:sd_manager.c  ****     uint8_t atomic_state = CyEnterCriticalSection(); // BEGIN ATOMIC
 611              		.loc 1 165 0
 612 0018 FFF7FEFF 		bl	CyEnterCriticalSection
 613 001c 0346     		mov	r3, r0
 614 001e 87F84530 		strb	r3, [r7, #69]
 166:sd_manager.c  **** 	for(sd_head=0; sd_head<sd_tail; sd_head++) {
 615              		.loc 1 166 0
 616 0022 484B     		ldr	r3, .L29+4
 617 0024 0022     		movs	r2, #0
 618 0026 1A80     		strh	r2, [r3]	@ movhi
 619 0028 71E0     		b	.L27
 620              	.L28:
 167:sd_manager.c  **** 		length = sprintf(buffer, "%X,%u,%X,%X,%X,%X,%X,%X,%X,%X\n",
 168:sd_manager.c  **** 			(unsigned)sd_queue[sd_head].id,
 621              		.loc 1 168 0 discriminator 3
 622 002a 464B     		ldr	r3, .L29+4
 623 002c 1B88     		ldrh	r3, [r3]
 624 002e 464A     		ldr	r2, .L29+8
 625 0030 1B01     		lsls	r3, r3, #4
 626 0032 1344     		add	r3, r3, r2
 627 0034 9B88     		ldrh	r3, [r3, #4]
 167:sd_manager.c  **** 		length = sprintf(buffer, "%X,%u,%X,%X,%X,%X,%X,%X,%X,%X\n",
 628              		.loc 1 167 0 discriminator 3
 629 0036 9946     		mov	r9, r3
 169:sd_manager.c  **** 			MILLI_PERIOD - (unsigned)sd_queue[sd_head].millicounter,
 630              		.loc 1 169 0 discriminator 3
 631 0038 424B     		ldr	r3, .L29+4
 632 003a 1B88     		ldrh	r3, [r3]
 633 003c 424A     		ldr	r2, .L29+8
 634 003e 1B01     		lsls	r3, r3, #4
 635 0040 1344     		add	r3, r3, r2
 636 0042 1A68     		ldr	r2, [r3]
 167:sd_manager.c  **** 		length = sprintf(buffer, "%X,%u,%X,%X,%X,%X,%X,%X,%X,%X\n",
 637              		.loc 1 167 0 discriminator 3
 638 0044 414B     		ldr	r3, .L29+12
 639 0046 9B1A     		subs	r3, r3, r2
 170:sd_manager.c  **** 			(unsigned)sd_queue[sd_head].data[0],
 640              		.loc 1 170 0 discriminator 3
 641 0048 3E4A     		ldr	r2, .L29+4
 642 004a 1288     		ldrh	r2, [r2]
 643 004c 3E49     		ldr	r1, .L29+8
 644 004e 1201     		lsls	r2, r2, #4
 645 0050 0A44     		add	r2, r2, r1
 646 0052 D279     		ldrb	r2, [r2, #7]	@ zero_extendqisi2
 167:sd_manager.c  **** 		length = sprintf(buffer, "%X,%u,%X,%X,%X,%X,%X,%X,%X,%X\n",
 647              		.loc 1 167 0 discriminator 3
 648 0054 9046     		mov	r8, r2
 171:sd_manager.c  **** 			(unsigned)sd_queue[sd_head].data[1],
 649              		.loc 1 171 0 discriminator 3
 650 0056 3B4A     		ldr	r2, .L29+4
 651 0058 1288     		ldrh	r2, [r2]
 652 005a 3B49     		ldr	r1, .L29+8
 653 005c 1201     		lsls	r2, r2, #4
 654 005e 0A44     		add	r2, r2, r1
 655 0060 0132     		adds	r2, r2, #1
 656 0062 D279     		ldrb	r2, [r2, #7]	@ zero_extendqisi2
 167:sd_manager.c  **** 			(unsigned)sd_queue[sd_head].id,
ARM GAS  D:\Windows\AppData\Local\Temp\cc8WWfsF.s 			page 16


 657              		.loc 1 167 0 discriminator 3
 658 0064 9446     		mov	ip, r2
 172:sd_manager.c  **** 			(unsigned)sd_queue[sd_head].data[2],
 659              		.loc 1 172 0 discriminator 3
 660 0066 374A     		ldr	r2, .L29+4
 661 0068 1288     		ldrh	r2, [r2]
 662 006a 3749     		ldr	r1, .L29+8
 663 006c 1201     		lsls	r2, r2, #4
 664 006e 0A44     		add	r2, r2, r1
 665 0070 0232     		adds	r2, r2, #2
 666 0072 D279     		ldrb	r2, [r2, #7]	@ zero_extendqisi2
 167:sd_manager.c  **** 			(unsigned)sd_queue[sd_head].id,
 667              		.loc 1 167 0 discriminator 3
 668 0074 9646     		mov	lr, r2
 173:sd_manager.c  **** 			(unsigned)sd_queue[sd_head].data[3],
 669              		.loc 1 173 0 discriminator 3
 670 0076 334A     		ldr	r2, .L29+4
 671 0078 1288     		ldrh	r2, [r2]
 672 007a 3349     		ldr	r1, .L29+8
 673 007c 1201     		lsls	r2, r2, #4
 674 007e 0A44     		add	r2, r2, r1
 675 0080 0332     		adds	r2, r2, #3
 676 0082 D279     		ldrb	r2, [r2, #7]	@ zero_extendqisi2
 167:sd_manager.c  **** 			(unsigned)sd_queue[sd_head].id,
 677              		.loc 1 167 0 discriminator 3
 678 0084 1646     		mov	r6, r2
 174:sd_manager.c  **** 			(unsigned)sd_queue[sd_head].data[4],
 679              		.loc 1 174 0 discriminator 3
 680 0086 2F4A     		ldr	r2, .L29+4
 681 0088 1288     		ldrh	r2, [r2]
 682 008a 2F49     		ldr	r1, .L29+8
 683 008c 1201     		lsls	r2, r2, #4
 684 008e 0A44     		add	r2, r2, r1
 685 0090 0432     		adds	r2, r2, #4
 686 0092 D279     		ldrb	r2, [r2, #7]	@ zero_extendqisi2
 167:sd_manager.c  **** 			(unsigned)sd_queue[sd_head].id,
 687              		.loc 1 167 0 discriminator 3
 688 0094 1546     		mov	r5, r2
 175:sd_manager.c  **** 			(unsigned)sd_queue[sd_head].data[5],
 689              		.loc 1 175 0 discriminator 3
 690 0096 2B4A     		ldr	r2, .L29+4
 691 0098 1288     		ldrh	r2, [r2]
 692 009a 2B49     		ldr	r1, .L29+8
 693 009c 1201     		lsls	r2, r2, #4
 694 009e 0A44     		add	r2, r2, r1
 695 00a0 0532     		adds	r2, r2, #5
 696 00a2 D279     		ldrb	r2, [r2, #7]	@ zero_extendqisi2
 167:sd_manager.c  **** 			(unsigned)sd_queue[sd_head].id,
 697              		.loc 1 167 0 discriminator 3
 698 00a4 1446     		mov	r4, r2
 176:sd_manager.c  **** 			(unsigned)sd_queue[sd_head].data[6],
 699              		.loc 1 176 0 discriminator 3
 700 00a6 274A     		ldr	r2, .L29+4
 701 00a8 1288     		ldrh	r2, [r2]
 702 00aa 2749     		ldr	r1, .L29+8
 703 00ac 1201     		lsls	r2, r2, #4
 704 00ae 0A44     		add	r2, r2, r1
ARM GAS  D:\Windows\AppData\Local\Temp\cc8WWfsF.s 			page 17


 705 00b0 0632     		adds	r2, r2, #6
 706 00b2 D279     		ldrb	r2, [r2, #7]	@ zero_extendqisi2
 167:sd_manager.c  **** 			(unsigned)sd_queue[sd_head].id,
 707              		.loc 1 167 0 discriminator 3
 708 00b4 1046     		mov	r0, r2
 177:sd_manager.c  **** 			(unsigned)sd_queue[sd_head].data[7]);
 709              		.loc 1 177 0 discriminator 3
 710 00b6 234A     		ldr	r2, .L29+4
 711 00b8 1288     		ldrh	r2, [r2]
 712 00ba 2349     		ldr	r1, .L29+8
 713 00bc 1201     		lsls	r2, r2, #4
 714 00be 0A44     		add	r2, r2, r1
 715 00c0 0732     		adds	r2, r2, #7
 716 00c2 D279     		ldrb	r2, [r2, #7]	@ zero_extendqisi2
 167:sd_manager.c  **** 			(unsigned)sd_queue[sd_head].id,
 717              		.loc 1 167 0 discriminator 3
 718 00c4 1146     		mov	r1, r2
 719 00c6 3A1D     		adds	r2, r7, #4
 720 00c8 CDF80080 		str	r8, [sp]
 721 00cc CDF804C0 		str	ip, [sp, #4]
 722 00d0 CDF808E0 		str	lr, [sp, #8]
 723 00d4 0396     		str	r6, [sp, #12]
 724 00d6 0495     		str	r5, [sp, #16]
 725 00d8 0594     		str	r4, [sp, #20]
 726 00da 0690     		str	r0, [sp, #24]
 727 00dc 0791     		str	r1, [sp, #28]
 728 00de 1046     		mov	r0, r2
 729 00e0 1B49     		ldr	r1, .L29+16
 730 00e2 4A46     		mov	r2, r9
 731 00e4 FFF7FEFF 		bl	sprintf
 732 00e8 0346     		mov	r3, r0
 733 00ea A7F84630 		strh	r3, [r7, #70]	@ movhi
 178:sd_manager.c  **** 
 179:sd_manager.c  **** 		FS_Write(pfile, buffer, length); // write to SD
 734              		.loc 1 179 0 discriminator 3
 735 00ee 194B     		ldr	r3, .L29+20
 736 00f0 1968     		ldr	r1, [r3]
 737 00f2 B7F94630 		ldrsh	r3, [r7, #70]
 738 00f6 3A1D     		adds	r2, r7, #4
 739 00f8 0846     		mov	r0, r1
 740 00fa 1146     		mov	r1, r2
 741 00fc 1A46     		mov	r2, r3
 742 00fe FFF7FEFF 		bl	FS_Write
 166:sd_manager.c  **** 		length = sprintf(buffer, "%X,%u,%X,%X,%X,%X,%X,%X,%X,%X\n",
 743              		.loc 1 166 0 discriminator 3
 744 0102 104B     		ldr	r3, .L29+4
 745 0104 1B88     		ldrh	r3, [r3]
 746 0106 0133     		adds	r3, r3, #1
 747 0108 9AB2     		uxth	r2, r3
 748 010a 0E4B     		ldr	r3, .L29+4
 749 010c 1A80     		strh	r2, [r3]	@ movhi
 750              	.L27:
 166:sd_manager.c  **** 		length = sprintf(buffer, "%X,%u,%X,%X,%X,%X,%X,%X,%X,%X\n",
 751              		.loc 1 166 0 is_stmt 0 discriminator 1
 752 010e 0D4B     		ldr	r3, .L29+4
 753 0110 1A88     		ldrh	r2, [r3]
 754 0112 114B     		ldr	r3, .L29+24
ARM GAS  D:\Windows\AppData\Local\Temp\cc8WWfsF.s 			page 18


 755 0114 1B88     		ldrh	r3, [r3]
 756 0116 9A42     		cmp	r2, r3
 757 0118 87D3     		bcc	.L28
 180:sd_manager.c  **** 	}
 181:sd_manager.c  **** 	FS_Sync(""); // sync to SD
 758              		.loc 1 181 0 is_stmt 1
 759 011a 1048     		ldr	r0, .L29+28
 760 011c FFF7FEFF 		bl	FS_Sync
 182:sd_manager.c  **** 	sd_head=0; sd_tail=0;
 761              		.loc 1 182 0
 762 0120 084B     		ldr	r3, .L29+4
 763 0122 0022     		movs	r2, #0
 764 0124 1A80     		strh	r2, [r3]	@ movhi
 765 0126 0C4B     		ldr	r3, .L29+24
 766 0128 0022     		movs	r2, #0
 767 012a 1A80     		strh	r2, [r3]	@ movhi
 183:sd_manager.c  ****     CyExitCriticalSection(atomic_state);               // END ATOMICs
 768              		.loc 1 183 0
 769 012c 97F84530 		ldrb	r3, [r7, #69]	@ zero_extendqisi2
 770 0130 1846     		mov	r0, r3
 771 0132 FFF7FEFF 		bl	CyExitCriticalSection
 772              	.L24:
 184:sd_manager.c  **** } // sd_write()
 773              		.loc 1 184 0
 774 0136 4C37     		adds	r7, r7, #76
 775              		.cfi_def_cfa_offset 28
 776 0138 BD46     		mov	sp, r7
 777              		.cfi_def_cfa_register 13
 778              		@ sp needed
 779 013a BDE8F083 		pop	{r4, r5, r6, r7, r8, r9, pc}
 780              	.L30:
 781 013e 00BF     		.align	2
 782              	.L29:
 783 0140 00000000 		.word	sd_ok
 784 0144 00000000 		.word	sd_head
 785 0148 00000000 		.word	sd_queue
 786 014c 002E9302 		.word	43200000
 787 0150 70000000 		.word	.LC7
 788 0154 00000000 		.word	pfile
 789 0158 00000000 		.word	sd_tail
 790 015c 60000000 		.word	.LC4
 791              		.cfi_endproc
 792              	.LFE67:
 793              		.size	sd_write, .-sd_write
 794              		.section	.rodata
 795 008f 00       		.align	2
 796              	.LC8:
 797 0090 66696C65 		.ascii	"filenamehere\000"
 797      6E616D65 
 797      68657265 
 797      00
 798              		.section	.text.sd_read,"ax",%progbits
 799              		.align	2
 800              		.global	sd_read
 801              		.thumb
 802              		.thumb_func
 803              		.type	sd_read, %function
ARM GAS  D:\Windows\AppData\Local\Temp\cc8WWfsF.s 			page 19


 804              	sd_read:
 805              	.LFB68:
 185:sd_manager.c  **** 
 186:sd_manager.c  **** 
 187:sd_manager.c  **** void sd_read() {
 806              		.loc 1 187 0
 807              		.cfi_startproc
 808              		@ args = 0, pretend = 0, frame = 64
 809              		@ frame_needed = 1, uses_anonymous_args = 0
 810 0000 80B5     		push	{r7, lr}
 811              		.cfi_def_cfa_offset 8
 812              		.cfi_offset 7, -8
 813              		.cfi_offset 14, -4
 814 0002 90B0     		sub	sp, sp, #64
 815              		.cfi_def_cfa_offset 72
 816 0004 00AF     		add	r7, sp, #0
 817              		.cfi_def_cfa_register 7
 188:sd_manager.c  **** 	if((pfile = FS_FOpen("filenamehere", "r"))) {	//open file for reading
 818              		.loc 1 188 0
 819 0006 0D48     		ldr	r0, .L33
 820 0008 0D49     		ldr	r1, .L33+4
 821 000a FFF7FEFF 		bl	FS_FOpen
 822 000e 0246     		mov	r2, r0
 823 0010 0C4B     		ldr	r3, .L33+8
 824 0012 1A60     		str	r2, [r3]
 825 0014 0B4B     		ldr	r3, .L33+8
 826 0016 1B68     		ldr	r3, [r3]
 827 0018 002B     		cmp	r3, #0
 828 001a 0CD0     		beq	.L31
 829              	.LBB4:
 189:sd_manager.c  **** 		char buffer[64];
 190:sd_manager.c  **** 		//Time time;
 191:sd_manager.c  **** 		//DataPacket msg;
 192:sd_manager.c  **** 		FS_Read(pfile, buffer, 64); // read entire file
 830              		.loc 1 192 0
 831 001c 094B     		ldr	r3, .L33+8
 832 001e 1A68     		ldr	r2, [r3]
 833 0020 3B46     		mov	r3, r7
 834 0022 1046     		mov	r0, r2
 835 0024 1946     		mov	r1, r3
 836 0026 4022     		movs	r2, #64
 837 0028 FFF7FEFF 		bl	FS_Read
 193:sd_manager.c  **** 		FS_FClose(pfile);
 838              		.loc 1 193 0
 839 002c 054B     		ldr	r3, .L33+8
 840 002e 1B68     		ldr	r3, [r3]
 841 0030 1846     		mov	r0, r3
 842 0032 FFF7FEFF 		bl	FS_FClose
 843              	.L31:
 844              	.LBE4:
 194:sd_manager.c  **** 	}
 195:sd_manager.c  **** }
 845              		.loc 1 195 0
 846 0036 4037     		adds	r7, r7, #64
 847              		.cfi_def_cfa_offset 8
 848 0038 BD46     		mov	sp, r7
 849              		.cfi_def_cfa_register 13
ARM GAS  D:\Windows\AppData\Local\Temp\cc8WWfsF.s 			page 20


 850              		@ sp needed
 851 003a 80BD     		pop	{r7, pc}
 852              	.L34:
 853              		.align	2
 854              	.L33:
 855 003c 90000000 		.word	.LC8
 856 0040 64000000 		.word	.LC5
 857 0044 00000000 		.word	pfile
 858              		.cfi_endproc
 859              	.LFE68:
 860              		.size	sd_read, .-sd_read
 861              		.section	.text.sd_buffer,"ax",%progbits
 862              		.align	2
 863              		.global	sd_buffer
 864              		.thumb
 865              		.thumb_func
 866              		.type	sd_buffer, %function
 867              	sd_buffer:
 868              	.LFB69:
 196:sd_manager.c  **** 
 197:sd_manager.c  **** void sd_buffer(DataPacket * msg) {
 869              		.loc 1 197 0
 870              		.cfi_startproc
 871              		@ args = 0, pretend = 0, frame = 8
 872              		@ frame_needed = 1, uses_anonymous_args = 0
 873              		@ link register save eliminated.
 874 0000 90B4     		push	{r4, r7}
 875              		.cfi_def_cfa_offset 8
 876              		.cfi_offset 4, -8
 877              		.cfi_offset 7, -4
 878 0002 82B0     		sub	sp, sp, #8
 879              		.cfi_def_cfa_offset 16
 880 0004 00AF     		add	r7, sp, #0
 881              		.cfi_def_cfa_register 7
 882 0006 7860     		str	r0, [r7, #4]
 198:sd_manager.c  **** 	sd_queue[sd_tail] = *msg;
 883              		.loc 1 198 0
 884 0008 094B     		ldr	r3, .L36
 885 000a 1B88     		ldrh	r3, [r3]
 886 000c 094A     		ldr	r2, .L36+4
 887 000e 1B01     		lsls	r3, r3, #4
 888 0010 1A44     		add	r2, r2, r3
 889 0012 7B68     		ldr	r3, [r7, #4]
 890 0014 1446     		mov	r4, r2
 891 0016 0FCB     		ldmia	r3, {r0, r1, r2, r3}
 892 0018 84E80F00 		stmia	r4, {r0, r1, r2, r3}
 199:sd_manager.c  **** 	sd_tail++;
 893              		.loc 1 199 0
 894 001c 044B     		ldr	r3, .L36
 895 001e 1B88     		ldrh	r3, [r3]
 896 0020 0133     		adds	r3, r3, #1
 897 0022 9AB2     		uxth	r2, r3
 898 0024 024B     		ldr	r3, .L36
 899 0026 1A80     		strh	r2, [r3]	@ movhi
 200:sd_manager.c  **** 	//sd_tail = sd_tail == SD_QUEUE_LENGTH ? sd_tail:sd_tail++;
 201:sd_manager.c  **** }
 900              		.loc 1 201 0
ARM GAS  D:\Windows\AppData\Local\Temp\cc8WWfsF.s 			page 21


 901 0028 0837     		adds	r7, r7, #8
 902              		.cfi_def_cfa_offset 8
 903 002a BD46     		mov	sp, r7
 904              		.cfi_def_cfa_register 13
 905              		@ sp needed
 906 002c 90BC     		pop	{r4, r7}
 907              		.cfi_restore 7
 908              		.cfi_restore 4
 909              		.cfi_def_cfa_offset 0
 910 002e 7047     		bx	lr
 911              	.L37:
 912              		.align	2
 913              	.L36:
 914 0030 00000000 		.word	sd_tail
 915 0034 00000000 		.word	sd_queue
 916              		.cfi_endproc
 917              	.LFE69:
 918              		.size	sd_buffer, .-sd_buffer
 919              		.section	.text.sd_stop,"ax",%progbits
 920              		.align	2
 921              		.global	sd_stop
 922              		.thumb
 923              		.thumb_func
 924              		.type	sd_stop, %function
 925              	sd_stop:
 926              	.LFB70:
 202:sd_manager.c  **** /* sd_stop()
 203:sd_manager.c  **** 	Takes and returns nothing.
 204:sd_manager.c  **** 	Closes the file, synchronizes, and unmounts SD card to prevent corruption.
 205:sd_manager.c  **** */
 206:sd_manager.c  **** void sd_stop(void) {
 927              		.loc 1 206 0
 928              		.cfi_startproc
 929              		@ args = 0, pretend = 0, frame = 0
 930              		@ frame_needed = 1, uses_anonymous_args = 0
 931 0000 80B5     		push	{r7, lr}
 932              		.cfi_def_cfa_offset 8
 933              		.cfi_offset 7, -8
 934              		.cfi_offset 14, -4
 935 0002 00AF     		add	r7, sp, #0
 936              		.cfi_def_cfa_register 7
 207:sd_manager.c  **** 	sd_write();
 937              		.loc 1 207 0
 938 0004 FFF7FEFF 		bl	sd_write
 208:sd_manager.c  **** 	FS_FClose(pfile);
 939              		.loc 1 208 0
 940 0008 054B     		ldr	r3, .L39
 941 000a 1B68     		ldr	r3, [r3]
 942 000c 1846     		mov	r0, r3
 943 000e FFF7FEFF 		bl	FS_FClose
 209:sd_manager.c  **** 	FS_Sync("");
 944              		.loc 1 209 0
 945 0012 0448     		ldr	r0, .L39+4
 946 0014 FFF7FEFF 		bl	FS_Sync
 210:sd_manager.c  **** 	FS_Unmount("");
 947              		.loc 1 210 0
 948 0018 0248     		ldr	r0, .L39+4
ARM GAS  D:\Windows\AppData\Local\Temp\cc8WWfsF.s 			page 22


 949 001a FFF7FEFF 		bl	FS_Unmount
 211:sd_manager.c  **** } // sd_stop()
 950              		.loc 1 211 0
 951 001e 80BD     		pop	{r7, pc}
 952              	.L40:
 953              		.align	2
 954              	.L39:
 955 0020 00000000 		.word	pfile
 956 0024 60000000 		.word	.LC4
 957              		.cfi_endproc
 958              	.LFE70:
 959              		.size	sd_stop, .-sd_stop
 960              		.section	.rodata
 961 009d 000000   		.align	2
 962              	.LC9:
 963 00a0 54797065 		.ascii	"Type,Time,Value,ID\012\000"
 963      2C54696D 
 963      652C5661 
 963      6C75652C 
 963      49440A00 
 964              		.align	2
 965              	.LC10:
 966 00b4 25752C25 		.ascii	"%u,%u,%llu,%u\012\000"
 966      752C256C 
 966      6C752C25 
 966      750A00
 967 00c3 00       		.section	.text.sd_writetest,"ax",%progbits
 968              		.align	2
 969              		.global	sd_writetest
 970              		.thumb
 971              		.thumb_func
 972              		.type	sd_writetest, %function
 973              	sd_writetest:
 974              	.LFB71:
 212:sd_manager.c  **** 
 213:sd_manager.c  **** 
 214:sd_manager.c  **** void sd_writetest() {
 975              		.loc 1 214 0
 976              		.cfi_startproc
 977              		@ args = 0, pretend = 0, frame = 136
 978              		@ frame_needed = 1, uses_anonymous_args = 0
 979 0000 80B5     		push	{r7, lr}
 980              		.cfi_def_cfa_offset 8
 981              		.cfi_offset 7, -8
 982              		.cfi_offset 14, -4
 983 0002 A6B0     		sub	sp, sp, #152
 984              		.cfi_def_cfa_offset 160
 985 0004 04AF     		add	r7, sp, #16
 986              		.cfi_def_cfa 7, 144
 215:sd_manager.c  **** 	// test data writing
 216:sd_manager.c  **** 	char buffer[128];
 217:sd_manager.c  **** 	short length = 0;
 987              		.loc 1 217 0
 988 0006 0023     		movs	r3, #0
 989 0008 A7F88630 		strh	r3, [r7, #134]	@ movhi
 218:sd_manager.c  **** 
 219:sd_manager.c  **** 	// test write
ARM GAS  D:\Windows\AppData\Local\Temp\cc8WWfsF.s 			page 23


 220:sd_manager.c  **** 	FS_Write(pfile, "Type,Time,Value,ID\n", 19);
 990              		.loc 1 220 0
 991 000c 164B     		ldr	r3, .L42
 992 000e 1B68     		ldr	r3, [r3]
 993 0010 1846     		mov	r0, r3
 994 0012 1649     		ldr	r1, .L42+4
 995 0014 1322     		movs	r2, #19
 996 0016 FFF7FEFF 		bl	FS_Write
 221:sd_manager.c  **** 	length = sprintf(buffer, "%u,%u,%llu,%u\n",
 997              		.loc 1 221 0
 998 001a 391D     		adds	r1, r7, #4
 999 001c 4FF0FF32 		mov	r2, #-1
 1000 0020 4FF0FF33 		mov	r3, #-1
 1001 0024 CDE90023 		strd	r2, [sp]
 1002 0028 40F20523 		movw	r3, #517
 1003 002c 0293     		str	r3, [sp, #8]
 1004 002e 0846     		mov	r0, r1
 1005 0030 0F49     		ldr	r1, .L42+8
 1006 0032 0122     		movs	r2, #1
 1007 0034 4FF0FF33 		mov	r3, #-1
 1008 0038 FFF7FEFF 		bl	sprintf
 1009 003c 0346     		mov	r3, r0
 1010 003e A7F88630 		strh	r3, [r7, #134]	@ movhi
 222:sd_manager.c  **** 		1,0xFFFFFFFF, 0xFFFFFFFFFFFFFFFF, 517);
 223:sd_manager.c  **** 	FS_Write(pfile, buffer, length);
 1011              		.loc 1 223 0
 1012 0042 094B     		ldr	r3, .L42
 1013 0044 1968     		ldr	r1, [r3]
 1014 0046 B7F98630 		ldrsh	r3, [r7, #134]
 1015 004a 3A1D     		adds	r2, r7, #4
 1016 004c 0846     		mov	r0, r1
 1017 004e 1146     		mov	r1, r2
 1018 0050 1A46     		mov	r2, r3
 1019 0052 FFF7FEFF 		bl	FS_Write
 224:sd_manager.c  **** 
 225:sd_manager.c  **** 	sd_stop(); // for testing
 1020              		.loc 1 225 0
 1021 0056 FFF7FEFF 		bl	sd_stop
 226:sd_manager.c  **** 	sd_ok = 0; // for testing
 1022              		.loc 1 226 0
 1023 005a 064B     		ldr	r3, .L42+12
 1024 005c 0022     		movs	r2, #0
 1025 005e 1A70     		strb	r2, [r3]
 227:sd_manager.c  **** }//test_push
 1026              		.loc 1 227 0
 1027 0060 8837     		adds	r7, r7, #136
 1028              		.cfi_def_cfa_offset 8
 1029 0062 BD46     		mov	sp, r7
 1030              		.cfi_def_cfa_register 13
 1031              		@ sp needed
 1032 0064 80BD     		pop	{r7, pc}
 1033              	.L43:
 1034 0066 00BF     		.align	2
 1035              	.L42:
 1036 0068 00000000 		.word	pfile
 1037 006c A0000000 		.word	.LC9
 1038 0070 B4000000 		.word	.LC10
ARM GAS  D:\Windows\AppData\Local\Temp\cc8WWfsF.s 			page 24


 1039 0074 00000000 		.word	sd_ok
 1040              		.cfi_endproc
 1041              	.LFE71:
 1042              		.size	sd_writetest, .-sd_writetest
 1043              		.text
 1044              	.Letext0:
 1045              		.file 2 "d:\\programming\\cypress\\psoc creator\\4.0\\psoc creator\\import\\gnu\\arm\\4.9.3\\arm-n
 1046              		.file 3 "d:\\programming\\cypress\\psoc creator\\4.0\\psoc creator\\import\\gnu\\arm\\4.9.3\\arm-n
 1047              		.file 4 ".\\emFile_V322c\\Code\\Include\\PSoC5/FS_Types.h"
 1048              		.file 5 ".\\emFile_V322c\\Code\\Include\\PSoC5/FS.h"
 1049              		.file 6 "data.h"
 1050              		.file 7 "time_manager.h"
 1051              		.file 8 "Generated_Source\\PSoC5/core_cm3.h"