ARM GAS  D:\Windows\AppData\Local\Temp\cc1UMzeL.s 			page 1


   1              		.syntax unified
   2              		.cpu cortex-m3
   3              		.fpu softvfp
   4              		.eabi_attribute 20, 1
   5              		.eabi_attribute 21, 1
   6              		.eabi_attribute 23, 3
   7              		.eabi_attribute 24, 1
   8              		.eabi_attribute 25, 1
   9              		.eabi_attribute 26, 1
  10              		.eabi_attribute 30, 6
  11              		.eabi_attribute 34, 1
  12              		.eabi_attribute 18, 4
  13              		.thumb
  14              		.file	"time_manager.c"
  15              		.text
  16              	.Ltext0:
  17              		.cfi_sections	.debug_frame
  18              		.comm	current_time,16,4
  19              		.section	.text.time_refresh_vector,"ax",%progbits
  20              		.align	2
  21              		.global	time_refresh_vector
  22              		.thumb
  23              		.thumb_func
  24              		.type	time_refresh_vector, %function
  25              	time_refresh_vector:
  26              	.LFB63:
  27              		.file 1 "time_manager.c"
   1:time_manager.c **** #include "time_manager.h"
   2:time_manager.c **** 
   3:time_manager.c **** 
   4:time_manager.c **** volatile Time current_time;
   5:time_manager.c **** 
   6:time_manager.c **** 
   7:time_manager.c **** /* CY_ISR(time_refresh_vector)
   8:time_manager.c **** 	Runs every X seconds and retreives the current time from the RTC
   9:time_manager.c **** 	Sets the refresh_status flag, which will trigger time_announce() to inject a
  10:time_manager.c **** 	message containing the current time to the data_queue.  */
  11:time_manager.c **** CY_ISR(time_refresh_vector) {
  28              		.loc 1 11 0
  29              		.cfi_startproc
  30              		@ args = 0, pretend = 0, frame = 16
  31              		@ frame_needed = 1, uses_anonymous_args = 0
  32 0000 90B5     		push	{r4, r7, lr}
  33              		.cfi_def_cfa_offset 12
  34              		.cfi_offset 4, -12
  35              		.cfi_offset 7, -8
  36              		.cfi_offset 14, -4
  37 0002 85B0     		sub	sp, sp, #20
  38              		.cfi_def_cfa_offset 32
  39 0004 00AF     		add	r7, sp, #0
  40              		.cfi_def_cfa_register 7
  12:time_manager.c **** 	current_time = time_retreive(); // get time from rtc
  41              		.loc 1 12 0
  42 0006 074C     		ldr	r4, .L2
  43 0008 3B46     		mov	r3, r7
  44 000a 1846     		mov	r0, r3
  45 000c FFF7FEFF 		bl	time_retreive
ARM GAS  D:\Windows\AppData\Local\Temp\cc1UMzeL.s 			page 2


  46 0010 3B46     		mov	r3, r7
  47 0012 0FCB     		ldmia	r3, {r0, r1, r2, r3}
  48 0014 84E80F00 		stmia	r4, {r0, r1, r2, r3}
  13:time_manager.c **** 	time_announce();
  49              		.loc 1 13 0
  50 0018 FFF7FEFF 		bl	time_announce
  14:time_manager.c **** } // CY_ISR(time_refresh_vector)
  51              		.loc 1 14 0
  52 001c 1437     		adds	r7, r7, #20
  53              		.cfi_def_cfa_offset 12
  54 001e BD46     		mov	sp, r7
  55              		.cfi_def_cfa_register 13
  56              		@ sp needed
  57 0020 90BD     		pop	{r4, r7, pc}
  58              	.L3:
  59 0022 00BF     		.align	2
  60              	.L2:
  61 0024 00000000 		.word	current_time
  62              		.cfi_endproc
  63              	.LFE63:
  64              		.size	time_refresh_vector, .-time_refresh_vector
  65              		.section	.text.time_init,"ax",%progbits
  66              		.align	2
  67              		.global	time_init
  68              		.thumb
  69              		.thumb_func
  70              		.type	time_init, %function
  71              	time_init:
  72              	.LFB64:
  15:time_manager.c **** 
  16:time_manager.c **** 
  17:time_manager.c **** /* time_init()
  18:time_manager.c **** 	Takes and Returns nothing.
  19:time_manager.c **** 	Initializes i2c with RTC and configures the RTC. Starts the timers and
  20:time_manager.c **** 	time_refresh_vector interrupt.
  21:time_manager.c **** 	RTC PART: MAXIM DS3231  */
  22:time_manager.c **** void time_init(void) {
  73              		.loc 1 22 0
  74              		.cfi_startproc
  75              		@ args = 0, pretend = 0, frame = 24
  76              		@ frame_needed = 1, uses_anonymous_args = 0
  77 0000 90B5     		push	{r4, r7, lr}
  78              		.cfi_def_cfa_offset 12
  79              		.cfi_offset 4, -12
  80              		.cfi_offset 7, -8
  81              		.cfi_offset 14, -4
  82 0002 87B0     		sub	sp, sp, #28
  83              		.cfi_def_cfa_offset 40
  84 0004 00AF     		add	r7, sp, #0
  85              		.cfi_def_cfa_register 7
  23:time_manager.c **** 	rtc_i2c_Start(); // start i2c to RTC
  86              		.loc 1 23 0
  87 0006 FFF7FEFF 		bl	rtc_i2c_Start
  24:time_manager.c **** 
  25:time_manager.c **** 	// configure RTC
  26:time_manager.c **** 	rtc_i2c_MasterSendStart(RTC_ADDR, 0);   // 0, send write command
  88              		.loc 1 26 0
ARM GAS  D:\Windows\AppData\Local\Temp\cc1UMzeL.s 			page 3


  89 000a 6820     		movs	r0, #104
  90 000c 0021     		movs	r1, #0
  91 000e FFF7FEFF 		bl	rtc_i2c_MasterSendStart
  27:time_manager.c **** 	rtc_i2c_MasterWriteByte(RTC_CONFIG);
  92              		.loc 1 27 0
  93 0012 0E20     		movs	r0, #14
  94 0014 FFF7FEFF 		bl	rtc_i2c_MasterWriteByte
  28:time_manager.c **** 	rtc_i2c_MasterWriteByte(0x40); // 1Hz clock
  95              		.loc 1 28 0
  96 0018 4020     		movs	r0, #64
  97 001a FFF7FEFF 		bl	rtc_i2c_MasterWriteByte
  29:time_manager.c **** 	rtc_i2c_MasterSendStop();
  98              		.loc 1 29 0
  99 001e FFF7FEFF 		bl	rtc_i2c_MasterSendStop
  30:time_manager.c **** 
  31:time_manager.c **** 	// Set 24 hour
  32:time_manager.c **** 	uint8_t byte;
  33:time_manager.c **** 	rtc_i2c_MasterSendStart(RTC_ADDR, 0);	// Move to hours register.
 100              		.loc 1 33 0
 101 0022 6820     		movs	r0, #104
 102 0024 0021     		movs	r1, #0
 103 0026 FFF7FEFF 		bl	rtc_i2c_MasterSendStart
  34:time_manager.c **** 	rtc_i2c_MasterWriteByte(RTC_HOURS);     //set register pointer
 104              		.loc 1 34 0
 105 002a 0220     		movs	r0, #2
 106 002c FFF7FEFF 		bl	rtc_i2c_MasterWriteByte
  35:time_manager.c **** 	rtc_i2c_MasterSendStop();
 107              		.loc 1 35 0
 108 0030 FFF7FEFF 		bl	rtc_i2c_MasterSendStop
  36:time_manager.c **** 
  37:time_manager.c **** 	rtc_i2c_MasterSendStart(RTC_ADDR, 1); 	// save hours register
 109              		.loc 1 37 0
 110 0034 6820     		movs	r0, #104
 111 0036 0121     		movs	r1, #1
 112 0038 FFF7FEFF 		bl	rtc_i2c_MasterSendStart
  38:time_manager.c **** 	byte = rtc_i2c_MasterReadByte(0);		// Zero, response with NACK
 113              		.loc 1 38 0
 114 003c 0020     		movs	r0, #0
 115 003e FFF7FEFF 		bl	rtc_i2c_MasterReadByte
 116 0042 0346     		mov	r3, r0
 117 0044 FB75     		strb	r3, [r7, #23]
  39:time_manager.c **** 	rtc_i2c_MasterSendStop();
 118              		.loc 1 39 0
 119 0046 FFF7FEFF 		bl	rtc_i2c_MasterSendStop
  40:time_manager.c **** 
  41:time_manager.c **** 	rtc_i2c_MasterSendStart(RTC_ADDR, 0); 	// Set 24 hour bit
 120              		.loc 1 41 0
 121 004a 6820     		movs	r0, #104
 122 004c 0021     		movs	r1, #0
 123 004e FFF7FEFF 		bl	rtc_i2c_MasterSendStart
  42:time_manager.c **** 	rtc_i2c_MasterWriteByte(RTC_HOURS);
 124              		.loc 1 42 0
 125 0052 0220     		movs	r0, #2
 126 0054 FFF7FEFF 		bl	rtc_i2c_MasterWriteByte
  43:time_manager.c **** 	rtc_i2c_MasterWriteByte(0x40 | byte);   //bit number 6 defines 12/24 hours
 127              		.loc 1 43 0
 128 0058 FB7D     		ldrb	r3, [r7, #23]
ARM GAS  D:\Windows\AppData\Local\Temp\cc1UMzeL.s 			page 4


 129 005a 43F04003 		orr	r3, r3, #64
 130 005e DBB2     		uxtb	r3, r3
 131 0060 1846     		mov	r0, r3
 132 0062 FFF7FEFF 		bl	rtc_i2c_MasterWriteByte
  44:time_manager.c **** 	rtc_i2c_MasterSendStop();
 133              		.loc 1 44 0
 134 0066 FFF7FEFF 		bl	rtc_i2c_MasterSendStop
  45:time_manager.c **** 
  46:time_manager.c **** 	time_refresh_isr_StartEx(time_refresh_vector);  // enable 1 second isr
 135              		.loc 1 46 0
 136 006a 0A48     		ldr	r0, .L5
 137 006c FFF7FEFF 		bl	time_refresh_isr_StartEx
  47:time_manager.c ****     
  48:time_manager.c **** 	// Start timers
  49:time_manager.c **** 	millis_timer_Start();
 138              		.loc 1 49 0
 139 0070 FFF7FEFF 		bl	millis_timer_Start
  50:time_manager.c **** 	time_refresh_timer_Start();
 140              		.loc 1 50 0
 141 0074 FFF7FEFF 		bl	time_refresh_timer_Start
  51:time_manager.c **** 	current_time = time_retreive(); // get time from rtc
 142              		.loc 1 51 0
 143 0078 074C     		ldr	r4, .L5+4
 144 007a 3B46     		mov	r3, r7
 145 007c 1846     		mov	r0, r3
 146 007e FFF7FEFF 		bl	time_retreive
 147 0082 3B46     		mov	r3, r7
 148 0084 0FCB     		ldmia	r3, {r0, r1, r2, r3}
 149 0086 84E80F00 		stmia	r4, {r0, r1, r2, r3}
  52:time_manager.c **** 	time_announce();
 150              		.loc 1 52 0
 151 008a FFF7FEFF 		bl	time_announce
  53:time_manager.c **** } // time_init()
 152              		.loc 1 53 0
 153 008e 1C37     		adds	r7, r7, #28
 154              		.cfi_def_cfa_offset 12
 155 0090 BD46     		mov	sp, r7
 156              		.cfi_def_cfa_register 13
 157              		@ sp needed
 158 0092 90BD     		pop	{r4, r7, pc}
 159              	.L6:
 160              		.align	2
 161              	.L5:
 162 0094 00000000 		.word	time_refresh_vector
 163 0098 00000000 		.word	current_time
 164              		.cfi_endproc
 165              	.LFE64:
 166              		.size	time_init, .-time_init
 167              		.section	.text.time_announce,"ax",%progbits
 168              		.align	2
 169              		.global	time_announce
 170              		.thumb
 171              		.thumb_func
 172              		.type	time_announce, %function
 173              	time_announce:
 174              	.LFB65:
  54:time_manager.c **** 
ARM GAS  D:\Windows\AppData\Local\Temp\cc1UMzeL.s 			page 5


  55:time_manager.c **** 
  56:time_manager.c **** 
  57:time_manager.c **** /* time_announce()
  58:time_manager.c **** 	Returns nothing.
  59:time_manager.c ****     The actual time is set by the refresh_vector interrupts.
  60:time_manager.c **** */
  61:time_manager.c **** void time_announce() {
 175              		.loc 1 61 0
 176              		.cfi_startproc
 177              		@ args = 0, pretend = 0, frame = 24
 178              		@ frame_needed = 1, uses_anonymous_args = 0
 179 0000 80B5     		push	{r7, lr}
 180              		.cfi_def_cfa_offset 8
 181              		.cfi_offset 7, -8
 182              		.cfi_offset 14, -4
 183 0002 86B0     		sub	sp, sp, #24
 184              		.cfi_def_cfa_offset 32
 185 0004 00AF     		add	r7, sp, #0
 186              		.cfi_def_cfa_register 7
  62:time_manager.c **** 	DataPacket msg_time;
  63:time_manager.c **** 	/* Time Frame for serial data
  64:time_manager.c **** 		START COUNTER zero year_upper, year_lower, month, date, hour, minutes, seconds	*/
  65:time_manager.c ****     uint8_t atomic_state = CyEnterCriticalSection(); // BEGIN ATOMIC
 187              		.loc 1 65 0
 188 0006 FFF7FEFF 		bl	CyEnterCriticalSection
 189 000a 0346     		mov	r3, r0
 190 000c FB75     		strb	r3, [r7, #23]
  66:time_manager.c ****     msg_time.id = ID_TIME;
 191              		.loc 1 66 0
 192 000e 4FF48073 		mov	r3, #256
 193 0012 3B81     		strh	r3, [r7, #8]	@ movhi
  67:time_manager.c **** 	msg_time.length = 8;
 194              		.loc 1 67 0
 195 0014 0823     		movs	r3, #8
 196 0016 BB72     		strb	r3, [r7, #10]
  68:time_manager.c **** 	msg_time.millicounter = current_time.millicounter;
 197              		.loc 1 68 0
 198 0018 174B     		ldr	r3, .L8
 199 001a 9B68     		ldr	r3, [r3, #8]
 200 001c 7B60     		str	r3, [r7, #4]
  69:time_manager.c **** 	msg_time.data[0] = 0;
 201              		.loc 1 69 0
 202 001e 0023     		movs	r3, #0
 203 0020 FB72     		strb	r3, [r7, #11]
  70:time_manager.c **** 	msg_time.data[1] = current_time.year >> 8;
 204              		.loc 1 70 0
 205 0022 154B     		ldr	r3, .L8
 206 0024 9B89     		ldrh	r3, [r3, #12]	@ movhi
 207 0026 9BB2     		uxth	r3, r3
 208 0028 1B0A     		lsrs	r3, r3, #8
 209 002a 9BB2     		uxth	r3, r3
 210 002c DBB2     		uxtb	r3, r3
 211 002e 3B73     		strb	r3, [r7, #12]
  71:time_manager.c **** 	msg_time.data[2] = current_time.year;
 212              		.loc 1 71 0
 213 0030 114B     		ldr	r3, .L8
 214 0032 9B89     		ldrh	r3, [r3, #12]	@ movhi
ARM GAS  D:\Windows\AppData\Local\Temp\cc1UMzeL.s 			page 6


 215 0034 9BB2     		uxth	r3, r3
 216 0036 DBB2     		uxtb	r3, r3
 217 0038 7B73     		strb	r3, [r7, #13]
  72:time_manager.c **** 	msg_time.data[3] = current_time.month;
 218              		.loc 1 72 0
 219 003a 0F4B     		ldr	r3, .L8
 220 003c 1B78     		ldrb	r3, [r3]
 221 003e DBB2     		uxtb	r3, r3
 222 0040 BB73     		strb	r3, [r7, #14]
  73:time_manager.c **** 	msg_time.data[4] = current_time.day;
 223              		.loc 1 73 0
 224 0042 0D4B     		ldr	r3, .L8
 225 0044 5B78     		ldrb	r3, [r3, #1]
 226 0046 DBB2     		uxtb	r3, r3
 227 0048 FB73     		strb	r3, [r7, #15]
  74:time_manager.c **** 	msg_time.data[5] = current_time.hour;
 228              		.loc 1 74 0
 229 004a 0B4B     		ldr	r3, .L8
 230 004c 9B78     		ldrb	r3, [r3, #2]
 231 004e DBB2     		uxtb	r3, r3
 232 0050 3B74     		strb	r3, [r7, #16]
  75:time_manager.c **** 	msg_time.data[6] = current_time.minute;
 233              		.loc 1 75 0
 234 0052 094B     		ldr	r3, .L8
 235 0054 DB78     		ldrb	r3, [r3, #3]
 236 0056 DBB2     		uxtb	r3, r3
 237 0058 7B74     		strb	r3, [r7, #17]
  76:time_manager.c **** 	msg_time.data[7] = current_time.second;
 238              		.loc 1 76 0
 239 005a 074B     		ldr	r3, .L8
 240 005c 1B79     		ldrb	r3, [r3, #4]
 241 005e DBB2     		uxtb	r3, r3
 242 0060 BB74     		strb	r3, [r7, #18]
  77:time_manager.c **** 
  78:time_manager.c **** 	msg_recieve(&msg_time);
 243              		.loc 1 78 0
 244 0062 3B1D     		adds	r3, r7, #4
 245 0064 1846     		mov	r0, r3
 246 0066 FFF7FEFF 		bl	msg_recieve
  79:time_manager.c ****     CyExitCriticalSection(atomic_state); // END ATOMIC
 247              		.loc 1 79 0
 248 006a FB7D     		ldrb	r3, [r7, #23]	@ zero_extendqisi2
 249 006c 1846     		mov	r0, r3
 250 006e FFF7FEFF 		bl	CyExitCriticalSection
  80:time_manager.c **** } // time_announce()
 251              		.loc 1 80 0
 252 0072 1837     		adds	r7, r7, #24
 253              		.cfi_def_cfa_offset 8
 254 0074 BD46     		mov	sp, r7
 255              		.cfi_def_cfa_register 13
 256              		@ sp needed
 257 0076 80BD     		pop	{r7, pc}
 258              	.L9:
 259              		.align	2
 260              	.L8:
 261 0078 00000000 		.word	current_time
 262              		.cfi_endproc
ARM GAS  D:\Windows\AppData\Local\Temp\cc1UMzeL.s 			page 7


 263              	.LFE65:
 264              		.size	time_announce, .-time_announce
 265              		.section	.text.time_get,"ax",%progbits
 266              		.align	2
 267              		.global	time_get
 268              		.thumb
 269              		.thumb_func
 270              		.type	time_get, %function
 271              	time_get:
 272              	.LFB66:
  81:time_manager.c **** 
  82:time_manager.c **** 
  83:time_manager.c **** 
  84:time_manager.c **** /* time_get()
  85:time_manager.c **** 	Takes nothing. Returns the current time with millicounter. */
  86:time_manager.c **** Time time_get(void) {
 273              		.loc 1 86 0
 274              		.cfi_startproc
 275              		@ args = 0, pretend = 0, frame = 24
 276              		@ frame_needed = 1, uses_anonymous_args = 0
 277 0000 90B5     		push	{r4, r7, lr}
 278              		.cfi_def_cfa_offset 12
 279              		.cfi_offset 4, -12
 280              		.cfi_offset 7, -8
 281              		.cfi_offset 14, -4
 282 0002 87B0     		sub	sp, sp, #28
 283              		.cfi_def_cfa_offset 40
 284 0004 00AF     		add	r7, sp, #0
 285              		.cfi_def_cfa_register 7
 286 0006 7861     		str	r0, [r7, #20]
  87:time_manager.c **** 	current_time = time_retreive();
 287              		.loc 1 87 0
 288 0008 094C     		ldr	r4, .L12
 289 000a 3B46     		mov	r3, r7
 290 000c 1846     		mov	r0, r3
 291 000e FFF7FEFF 		bl	time_retreive
 292 0012 3B46     		mov	r3, r7
 293 0014 0FCB     		ldmia	r3, {r0, r1, r2, r3}
 294 0016 84E80F00 		stmia	r4, {r0, r1, r2, r3}
  88:time_manager.c **** 	return current_time;
 295              		.loc 1 88 0
 296 001a 7B69     		ldr	r3, [r7, #20]
 297 001c 044A     		ldr	r2, .L12
 298 001e 1C46     		mov	r4, r3
 299 0020 1346     		mov	r3, r2
 300 0022 0FCB     		ldmia	r3, {r0, r1, r2, r3}
 301 0024 84E80F00 		stmia	r4, {r0, r1, r2, r3}
  89:time_manager.c **** } // time_get()
 302              		.loc 1 89 0
 303 0028 7869     		ldr	r0, [r7, #20]
 304 002a 1C37     		adds	r7, r7, #28
 305              		.cfi_def_cfa_offset 12
 306 002c BD46     		mov	sp, r7
 307              		.cfi_def_cfa_register 13
 308              		@ sp needed
 309 002e 90BD     		pop	{r4, r7, pc}
 310              	.L13:
ARM GAS  D:\Windows\AppData\Local\Temp\cc1UMzeL.s 			page 8


 311              		.align	2
 312              	.L12:
 313 0030 00000000 		.word	current_time
 314              		.cfi_endproc
 315              	.LFE66:
 316              		.size	time_get, .-time_get
 317              		.section	.text.time_set,"ax",%progbits
 318              		.align	2
 319              		.global	time_set
 320              		.thumb
 321              		.thumb_func
 322              		.type	time_set, %function
 323              	time_set:
 324              	.LFB67:
  90:time_manager.c **** 
  91:time_manager.c **** 
  92:time_manager.c **** void time_set(Time now) {
 325              		.loc 1 92 0
 326              		.cfi_startproc
 327              		@ args = 0, pretend = 0, frame = 24
 328              		@ frame_needed = 1, uses_anonymous_args = 0
 329 0000 90B5     		push	{r4, r7, lr}
 330              		.cfi_def_cfa_offset 12
 331              		.cfi_offset 4, -12
 332              		.cfi_offset 7, -8
 333              		.cfi_offset 14, -4
 334 0002 87B0     		sub	sp, sp, #28
 335              		.cfi_def_cfa_offset 40
 336 0004 00AF     		add	r7, sp, #0
 337              		.cfi_def_cfa_register 7
 338 0006 3C46     		mov	r4, r7
 339 0008 84E80F00 		stmia	r4, {r0, r1, r2, r3}
  93:time_manager.c **** 	// Set 24 hour
  94:time_manager.c **** 	uint8_t byte;
  95:time_manager.c **** 
  96:time_manager.c **** 	rtc_i2c_MasterSendStart(RTC_ADDR, 0);
 340              		.loc 1 96 0
 341 000c 6820     		movs	r0, #104
 342 000e 0021     		movs	r1, #0
 343 0010 FFF7FEFF 		bl	rtc_i2c_MasterSendStart
  97:time_manager.c **** 	rtc_i2c_MasterWriteByte(0x00);      // move to top of register file
 344              		.loc 1 97 0
 345 0014 0020     		movs	r0, #0
 346 0016 FFF7FEFF 		bl	rtc_i2c_MasterWriteByte
  98:time_manager.c **** 
  99:time_manager.c **** 	byte = now.second % 10;             // seconds
 347              		.loc 1 99 0
 348 001a 3A79     		ldrb	r2, [r7, #4]	@ zero_extendqisi2
 349 001c 574B     		ldr	r3, .L15
 350 001e A3FB0213 		umull	r1, r3, r3, r2
 351 0022 D908     		lsrs	r1, r3, #3
 352 0024 0B46     		mov	r3, r1
 353 0026 9B00     		lsls	r3, r3, #2
 354 0028 0B44     		add	r3, r3, r1
 355 002a 5B00     		lsls	r3, r3, #1
 356 002c D31A     		subs	r3, r2, r3
 357 002e FB75     		strb	r3, [r7, #23]
ARM GAS  D:\Windows\AppData\Local\Temp\cc1UMzeL.s 			page 9


 100:time_manager.c **** 	byte |= (now.second / 10) << 4;     // 10 seconds   0-59
 358              		.loc 1 100 0
 359 0030 3B79     		ldrb	r3, [r7, #4]	@ zero_extendqisi2
 360 0032 524A     		ldr	r2, .L15
 361 0034 A2FB0323 		umull	r2, r3, r2, r3
 362 0038 DB08     		lsrs	r3, r3, #3
 363 003a DBB2     		uxtb	r3, r3
 364 003c 1B01     		lsls	r3, r3, #4
 365 003e DAB2     		uxtb	r2, r3
 366 0040 FB7D     		ldrb	r3, [r7, #23]	@ zero_extendqisi2
 367 0042 1343     		orrs	r3, r3, r2
 368 0044 DBB2     		uxtb	r3, r3
 369 0046 FB75     		strb	r3, [r7, #23]
 101:time_manager.c **** 	rtc_i2c_MasterWriteByte(byte);
 370              		.loc 1 101 0
 371 0048 FB7D     		ldrb	r3, [r7, #23]	@ zero_extendqisi2
 372 004a 1846     		mov	r0, r3
 373 004c FFF7FEFF 		bl	rtc_i2c_MasterWriteByte
 102:time_manager.c **** 
 103:time_manager.c **** 	byte = now.minute % 10;             // minute
 374              		.loc 1 103 0
 375 0050 FA78     		ldrb	r2, [r7, #3]	@ zero_extendqisi2
 376 0052 4A4B     		ldr	r3, .L15
 377 0054 A3FB0213 		umull	r1, r3, r3, r2
 378 0058 D908     		lsrs	r1, r3, #3
 379 005a 0B46     		mov	r3, r1
 380 005c 9B00     		lsls	r3, r3, #2
 381 005e 0B44     		add	r3, r3, r1
 382 0060 5B00     		lsls	r3, r3, #1
 383 0062 D31A     		subs	r3, r2, r3
 384 0064 FB75     		strb	r3, [r7, #23]
 104:time_manager.c **** 	byte |= (now.minute/ 10) << 4;      // 10 minute    0-59
 385              		.loc 1 104 0
 386 0066 FB78     		ldrb	r3, [r7, #3]	@ zero_extendqisi2
 387 0068 444A     		ldr	r2, .L15
 388 006a A2FB0323 		umull	r2, r3, r2, r3
 389 006e DB08     		lsrs	r3, r3, #3
 390 0070 DBB2     		uxtb	r3, r3
 391 0072 1B01     		lsls	r3, r3, #4
 392 0074 DAB2     		uxtb	r2, r3
 393 0076 FB7D     		ldrb	r3, [r7, #23]	@ zero_extendqisi2
 394 0078 1343     		orrs	r3, r3, r2
 395 007a DBB2     		uxtb	r3, r3
 396 007c FB75     		strb	r3, [r7, #23]
 105:time_manager.c **** 	rtc_i2c_MasterWriteByte(byte);
 397              		.loc 1 105 0
 398 007e FB7D     		ldrb	r3, [r7, #23]	@ zero_extendqisi2
 399 0080 1846     		mov	r0, r3
 400 0082 FFF7FEFF 		bl	rtc_i2c_MasterWriteByte
 106:time_manager.c **** 
 107:time_manager.c **** 	byte = now.hour % 10;               // hour
 401              		.loc 1 107 0
 402 0086 BA78     		ldrb	r2, [r7, #2]	@ zero_extendqisi2
 403 0088 3C4B     		ldr	r3, .L15
 404 008a A3FB0213 		umull	r1, r3, r3, r2
 405 008e D908     		lsrs	r1, r3, #3
 406 0090 0B46     		mov	r3, r1
ARM GAS  D:\Windows\AppData\Local\Temp\cc1UMzeL.s 			page 10


 407 0092 9B00     		lsls	r3, r3, #2
 408 0094 0B44     		add	r3, r3, r1
 409 0096 5B00     		lsls	r3, r3, #1
 410 0098 D31A     		subs	r3, r2, r3
 411 009a FB75     		strb	r3, [r7, #23]
 108:time_manager.c **** 	byte |= (now.hour / 10) << 4;       // 10 hour      0-23 
 412              		.loc 1 108 0
 413 009c BB78     		ldrb	r3, [r7, #2]	@ zero_extendqisi2
 414 009e 374A     		ldr	r2, .L15
 415 00a0 A2FB0323 		umull	r2, r3, r2, r3
 416 00a4 DB08     		lsrs	r3, r3, #3
 417 00a6 DBB2     		uxtb	r3, r3
 418 00a8 1B01     		lsls	r3, r3, #4
 419 00aa DAB2     		uxtb	r2, r3
 420 00ac FB7D     		ldrb	r3, [r7, #23]	@ zero_extendqisi2
 421 00ae 1343     		orrs	r3, r3, r2
 422 00b0 DBB2     		uxtb	r3, r3
 423 00b2 FB75     		strb	r3, [r7, #23]
 109:time_manager.c **** 	rtc_i2c_MasterWriteByte(byte);
 424              		.loc 1 109 0
 425 00b4 FB7D     		ldrb	r3, [r7, #23]	@ zero_extendqisi2
 426 00b6 1846     		mov	r0, r3
 427 00b8 FFF7FEFF 		bl	rtc_i2c_MasterWriteByte
 110:time_manager.c **** 
 111:time_manager.c **** 	rtc_i2c_MasterSendStop(); // End Receiving
 428              		.loc 1 111 0
 429 00bc FFF7FEFF 		bl	rtc_i2c_MasterSendStop
 112:time_manager.c **** 
 113:time_manager.c **** 	// skip day
 114:time_manager.c **** 
 115:time_manager.c **** 	rtc_i2c_MasterSendStart(RTC_ADDR, 0);
 430              		.loc 1 115 0
 431 00c0 6820     		movs	r0, #104
 432 00c2 0021     		movs	r1, #0
 433 00c4 FFF7FEFF 		bl	rtc_i2c_MasterSendStart
 116:time_manager.c **** 	rtc_i2c_MasterWriteByte(RTC_DATE);  // move to Date
 434              		.loc 1 116 0
 435 00c8 0420     		movs	r0, #4
 436 00ca FFF7FEFF 		bl	rtc_i2c_MasterWriteByte
 117:time_manager.c **** 
 118:time_manager.c **** 	byte = now.day % 10;                // day
 437              		.loc 1 118 0
 438 00ce 7A78     		ldrb	r2, [r7, #1]	@ zero_extendqisi2
 439 00d0 2A4B     		ldr	r3, .L15
 440 00d2 A3FB0213 		umull	r1, r3, r3, r2
 441 00d6 D908     		lsrs	r1, r3, #3
 442 00d8 0B46     		mov	r3, r1
 443 00da 9B00     		lsls	r3, r3, #2
 444 00dc 0B44     		add	r3, r3, r1
 445 00de 5B00     		lsls	r3, r3, #1
 446 00e0 D31A     		subs	r3, r2, r3
 447 00e2 FB75     		strb	r3, [r7, #23]
 119:time_manager.c **** 	byte |= (now.day / 10) << 4;        // 10 day       0-31
 448              		.loc 1 119 0
 449 00e4 7B78     		ldrb	r3, [r7, #1]	@ zero_extendqisi2
 450 00e6 254A     		ldr	r2, .L15
 451 00e8 A2FB0323 		umull	r2, r3, r2, r3
ARM GAS  D:\Windows\AppData\Local\Temp\cc1UMzeL.s 			page 11


 452 00ec DB08     		lsrs	r3, r3, #3
 453 00ee DBB2     		uxtb	r3, r3
 454 00f0 1B01     		lsls	r3, r3, #4
 455 00f2 DAB2     		uxtb	r2, r3
 456 00f4 FB7D     		ldrb	r3, [r7, #23]	@ zero_extendqisi2
 457 00f6 1343     		orrs	r3, r3, r2
 458 00f8 DBB2     		uxtb	r3, r3
 459 00fa FB75     		strb	r3, [r7, #23]
 120:time_manager.c **** 	rtc_i2c_MasterWriteByte(byte);
 460              		.loc 1 120 0
 461 00fc FB7D     		ldrb	r3, [r7, #23]	@ zero_extendqisi2
 462 00fe 1846     		mov	r0, r3
 463 0100 FFF7FEFF 		bl	rtc_i2c_MasterWriteByte
 121:time_manager.c **** 
 122:time_manager.c **** 	byte = now.month % 10;              // month
 464              		.loc 1 122 0
 465 0104 3A78     		ldrb	r2, [r7]	@ zero_extendqisi2
 466 0106 1D4B     		ldr	r3, .L15
 467 0108 A3FB0213 		umull	r1, r3, r3, r2
 468 010c D908     		lsrs	r1, r3, #3
 469 010e 0B46     		mov	r3, r1
 470 0110 9B00     		lsls	r3, r3, #2
 471 0112 0B44     		add	r3, r3, r1
 472 0114 5B00     		lsls	r3, r3, #1
 473 0116 D31A     		subs	r3, r2, r3
 474 0118 FB75     		strb	r3, [r7, #23]
 123:time_manager.c **** 	byte |= (now.month / 10) << 4;      // 10 month     1-12
 475              		.loc 1 123 0
 476 011a 3B78     		ldrb	r3, [r7]	@ zero_extendqisi2
 477 011c 174A     		ldr	r2, .L15
 478 011e A2FB0323 		umull	r2, r3, r2, r3
 479 0122 DB08     		lsrs	r3, r3, #3
 480 0124 DBB2     		uxtb	r3, r3
 481 0126 1B01     		lsls	r3, r3, #4
 482 0128 DAB2     		uxtb	r2, r3
 483 012a FB7D     		ldrb	r3, [r7, #23]	@ zero_extendqisi2
 484 012c 1343     		orrs	r3, r3, r2
 485 012e DBB2     		uxtb	r3, r3
 486 0130 FB75     		strb	r3, [r7, #23]
 124:time_manager.c **** 	rtc_i2c_MasterWriteByte(byte);
 487              		.loc 1 124 0
 488 0132 FB7D     		ldrb	r3, [r7, #23]	@ zero_extendqisi2
 489 0134 1846     		mov	r0, r3
 490 0136 FFF7FEFF 		bl	rtc_i2c_MasterWriteByte
 125:time_manager.c **** 
 126:time_manager.c **** 	byte = now.year % 10;               // year
 491              		.loc 1 126 0
 492 013a BA89     		ldrh	r2, [r7, #12]
 493 013c 0F4B     		ldr	r3, .L15
 494 013e A3FB0213 		umull	r1, r3, r3, r2
 495 0142 D908     		lsrs	r1, r3, #3
 496 0144 0B46     		mov	r3, r1
 497 0146 9B00     		lsls	r3, r3, #2
 498 0148 0B44     		add	r3, r3, r1
 499 014a 5B00     		lsls	r3, r3, #1
 500 014c D31A     		subs	r3, r2, r3
 501 014e 9BB2     		uxth	r3, r3
ARM GAS  D:\Windows\AppData\Local\Temp\cc1UMzeL.s 			page 12


 502 0150 FB75     		strb	r3, [r7, #23]
 127:time_manager.c **** 	byte |= (now.year / 10) << 4;       // 10 year      0-99
 503              		.loc 1 127 0
 504 0152 BB89     		ldrh	r3, [r7, #12]
 505 0154 094A     		ldr	r2, .L15
 506 0156 A2FB0323 		umull	r2, r3, r2, r3
 507 015a DB08     		lsrs	r3, r3, #3
 508 015c 9BB2     		uxth	r3, r3
 509 015e 1B01     		lsls	r3, r3, #4
 510 0160 DAB2     		uxtb	r2, r3
 511 0162 FB7D     		ldrb	r3, [r7, #23]	@ zero_extendqisi2
 512 0164 1343     		orrs	r3, r3, r2
 513 0166 DBB2     		uxtb	r3, r3
 514 0168 FB75     		strb	r3, [r7, #23]
 128:time_manager.c **** 	rtc_i2c_MasterWriteByte(byte);
 515              		.loc 1 128 0
 516 016a FB7D     		ldrb	r3, [r7, #23]	@ zero_extendqisi2
 517 016c 1846     		mov	r0, r3
 518 016e FFF7FEFF 		bl	rtc_i2c_MasterWriteByte
 129:time_manager.c **** 
 130:time_manager.c **** 	rtc_i2c_MasterSendStop(); // End Receiving
 519              		.loc 1 130 0
 520 0172 FFF7FEFF 		bl	rtc_i2c_MasterSendStop
 131:time_manager.c **** } // time_set()
 521              		.loc 1 131 0
 522 0176 1C37     		adds	r7, r7, #28
 523              		.cfi_def_cfa_offset 12
 524 0178 BD46     		mov	sp, r7
 525              		.cfi_def_cfa_register 13
 526              		@ sp needed
 527 017a 90BD     		pop	{r4, r7, pc}
 528              	.L16:
 529              		.align	2
 530              	.L15:
 531 017c CDCCCCCC 		.word	-858993459
 532              		.cfi_endproc
 533              	.LFE67:
 534              		.size	time_set, .-time_set
 535              		.section	.text.time_retreive,"ax",%progbits
 536              		.align	2
 537              		.global	time_retreive
 538              		.thumb
 539              		.thumb_func
 540              		.type	time_retreive, %function
 541              	time_retreive:
 542              	.LFB68:
 132:time_manager.c **** 
 133:time_manager.c **** 
 134:time_manager.c **** 
 135:time_manager.c **** /* time_retreive()
 136:time_manager.c **** 	Takes nothing. Returns the current time.
 137:time_manager.c **** 
 138:time_manager.c **** 	Communicates with an external RTC with i2c to obtain the current time.
 139:time_manager.c **** 	Sets the register pointer in the RTC to 0 and then reads the data sequencially
 140:time_manager.c **** 	from the register. The RTC auto-increments after reading each byte. Converts
 141:time_manager.c **** 	the binary encoded decimal to simple binary representation. Reads the
 142:time_manager.c **** 	millisecond counter into the current time.
ARM GAS  D:\Windows\AppData\Local\Temp\cc1UMzeL.s 			page 13


 143:time_manager.c **** 
 144:time_manager.c **** 	RTC PART: MAXIM DS3231
 145:time_manager.c **** */
 146:time_manager.c **** Time time_retreive(void) {
 543              		.loc 1 146 0
 544              		.cfi_startproc
 545              		@ args = 0, pretend = 0, frame = 32
 546              		@ frame_needed = 1, uses_anonymous_args = 0
 547 0000 90B5     		push	{r4, r7, lr}
 548              		.cfi_def_cfa_offset 12
 549              		.cfi_offset 4, -12
 550              		.cfi_offset 7, -8
 551              		.cfi_offset 14, -4
 552 0002 89B0     		sub	sp, sp, #36
 553              		.cfi_def_cfa_offset 48
 554 0004 00AF     		add	r7, sp, #0
 555              		.cfi_def_cfa_register 7
 556 0006 7860     		str	r0, [r7, #4]
 147:time_manager.c **** 	Time tmp_time;
 148:time_manager.c **** 	uint8_t byte;
 149:time_manager.c **** 
 150:time_manager.c **** 	// Set register pointer to 0
 151:time_manager.c **** 	rtc_i2c_MasterSendStart(RTC_ADDR, 0);
 557              		.loc 1 151 0
 558 0008 6820     		movs	r0, #104
 559 000a 0021     		movs	r1, #0
 560 000c FFF7FEFF 		bl	rtc_i2c_MasterSendStart
 152:time_manager.c **** 	rtc_i2c_MasterWriteByte(0x00);
 561              		.loc 1 152 0
 562 0010 0020     		movs	r0, #0
 563 0012 FFF7FEFF 		bl	rtc_i2c_MasterWriteByte
 153:time_manager.c **** 	rtc_i2c_MasterSendStop();
 564              		.loc 1 153 0
 565 0016 FFF7FEFF 		bl	rtc_i2c_MasterSendStop
 154:time_manager.c **** 	
 155:time_manager.c **** 	// Read data from registers
 156:time_manager.c **** 	rtc_i2c_MasterSendStart(RTC_ADDR, 1); // Begin receiving
 566              		.loc 1 156 0
 567 001a 6820     		movs	r0, #104
 568 001c 0121     		movs	r1, #1
 569 001e FFF7FEFF 		bl	rtc_i2c_MasterSendStart
 157:time_manager.c **** 
 158:time_manager.c **** 	byte = rtc_i2c_MasterReadByte(1);
 570              		.loc 1 158 0
 571 0022 0120     		movs	r0, #1
 572 0024 FFF7FEFF 		bl	rtc_i2c_MasterReadByte
 573 0028 0346     		mov	r3, r0
 574 002a FB77     		strb	r3, [r7, #31]
 159:time_manager.c **** 	tmp_time.second = byte & 0x0F; // seconds
 575              		.loc 1 159 0
 576 002c FB7F     		ldrb	r3, [r7, #31]
 577 002e 03F00F03 		and	r3, r3, #15
 578 0032 DBB2     		uxtb	r3, r3
 579 0034 3B74     		strb	r3, [r7, #16]
 160:time_manager.c **** 	tmp_time.second += 10 * (byte >> 4); // 10 seconds
 580              		.loc 1 160 0
 581 0036 3A7C     		ldrb	r2, [r7, #16]	@ zero_extendqisi2
ARM GAS  D:\Windows\AppData\Local\Temp\cc1UMzeL.s 			page 14


 582 0038 FB7F     		ldrb	r3, [r7, #31]	@ zero_extendqisi2
 583 003a 1B09     		lsrs	r3, r3, #4
 584 003c DBB2     		uxtb	r3, r3
 585 003e 1946     		mov	r1, r3
 586 0040 8900     		lsls	r1, r1, #2
 587 0042 0B44     		add	r3, r3, r1
 588 0044 5B00     		lsls	r3, r3, #1
 589 0046 DBB2     		uxtb	r3, r3
 590 0048 1344     		add	r3, r3, r2
 591 004a DBB2     		uxtb	r3, r3
 592 004c 3B74     		strb	r3, [r7, #16]
 161:time_manager.c **** 
 162:time_manager.c **** 	byte = rtc_i2c_MasterReadByte(1);
 593              		.loc 1 162 0
 594 004e 0120     		movs	r0, #1
 595 0050 FFF7FEFF 		bl	rtc_i2c_MasterReadByte
 596 0054 0346     		mov	r3, r0
 597 0056 FB77     		strb	r3, [r7, #31]
 163:time_manager.c **** 	tmp_time.minute = byte & 0x0F; // minutes
 598              		.loc 1 163 0
 599 0058 FB7F     		ldrb	r3, [r7, #31]
 600 005a 03F00F03 		and	r3, r3, #15
 601 005e DBB2     		uxtb	r3, r3
 602 0060 FB73     		strb	r3, [r7, #15]
 164:time_manager.c **** 	tmp_time.minute += 10 * (byte >> 4); // 10 seconds
 603              		.loc 1 164 0
 604 0062 FA7B     		ldrb	r2, [r7, #15]	@ zero_extendqisi2
 605 0064 FB7F     		ldrb	r3, [r7, #31]	@ zero_extendqisi2
 606 0066 1B09     		lsrs	r3, r3, #4
 607 0068 DBB2     		uxtb	r3, r3
 608 006a 1946     		mov	r1, r3
 609 006c 8900     		lsls	r1, r1, #2
 610 006e 0B44     		add	r3, r3, r1
 611 0070 5B00     		lsls	r3, r3, #1
 612 0072 DBB2     		uxtb	r3, r3
 613 0074 1344     		add	r3, r3, r2
 614 0076 DBB2     		uxtb	r3, r3
 615 0078 FB73     		strb	r3, [r7, #15]
 165:time_manager.c **** 
 166:time_manager.c **** 	byte = rtc_i2c_MasterReadByte(1);
 616              		.loc 1 166 0
 617 007a 0120     		movs	r0, #1
 618 007c FFF7FEFF 		bl	rtc_i2c_MasterReadByte
 619 0080 0346     		mov	r3, r0
 620 0082 FB77     		strb	r3, [r7, #31]
 167:time_manager.c **** 	tmp_time.hour = byte & 0x0F; // hours 
 621              		.loc 1 167 0
 622 0084 FB7F     		ldrb	r3, [r7, #31]
 623 0086 03F00F03 		and	r3, r3, #15
 624 008a DBB2     		uxtb	r3, r3
 625 008c BB73     		strb	r3, [r7, #14]
 168:time_manager.c **** 	tmp_time.hour += 10 * ((byte&0x3F) >> 4); // 10 hours
 626              		.loc 1 168 0
 627 008e BA7B     		ldrb	r2, [r7, #14]	@ zero_extendqisi2
 628 0090 FB7F     		ldrb	r3, [r7, #31]	@ zero_extendqisi2
 629 0092 03F03F03 		and	r3, r3, #63
 630 0096 1B11     		asrs	r3, r3, #4
ARM GAS  D:\Windows\AppData\Local\Temp\cc1UMzeL.s 			page 15


 631 0098 DBB2     		uxtb	r3, r3
 632 009a 1946     		mov	r1, r3
 633 009c 8900     		lsls	r1, r1, #2
 634 009e 0B44     		add	r3, r3, r1
 635 00a0 5B00     		lsls	r3, r3, #1
 636 00a2 DBB2     		uxtb	r3, r3
 637 00a4 1344     		add	r3, r3, r2
 638 00a6 DBB2     		uxtb	r3, r3
 639 00a8 BB73     		strb	r3, [r7, #14]
 169:time_manager.c **** 
 170:time_manager.c **** 	byte = rtc_i2c_MasterReadByte(1); // skip day
 640              		.loc 1 170 0
 641 00aa 0120     		movs	r0, #1
 642 00ac FFF7FEFF 		bl	rtc_i2c_MasterReadByte
 643 00b0 0346     		mov	r3, r0
 644 00b2 FB77     		strb	r3, [r7, #31]
 171:time_manager.c **** 
 172:time_manager.c **** 	byte = rtc_i2c_MasterReadByte(1);
 645              		.loc 1 172 0
 646 00b4 0120     		movs	r0, #1
 647 00b6 FFF7FEFF 		bl	rtc_i2c_MasterReadByte
 648 00ba 0346     		mov	r3, r0
 649 00bc FB77     		strb	r3, [r7, #31]
 173:time_manager.c **** 	tmp_time.day = byte & 0x0F; // date
 650              		.loc 1 173 0
 651 00be FB7F     		ldrb	r3, [r7, #31]
 652 00c0 03F00F03 		and	r3, r3, #15
 653 00c4 DBB2     		uxtb	r3, r3
 654 00c6 7B73     		strb	r3, [r7, #13]
 174:time_manager.c **** 	tmp_time.day += 10 * (byte >> 4); // 10 date
 655              		.loc 1 174 0
 656 00c8 7A7B     		ldrb	r2, [r7, #13]	@ zero_extendqisi2
 657 00ca FB7F     		ldrb	r3, [r7, #31]	@ zero_extendqisi2
 658 00cc 1B09     		lsrs	r3, r3, #4
 659 00ce DBB2     		uxtb	r3, r3
 660 00d0 1946     		mov	r1, r3
 661 00d2 8900     		lsls	r1, r1, #2
 662 00d4 0B44     		add	r3, r3, r1
 663 00d6 5B00     		lsls	r3, r3, #1
 664 00d8 DBB2     		uxtb	r3, r3
 665 00da 1344     		add	r3, r3, r2
 666 00dc DBB2     		uxtb	r3, r3
 667 00de 7B73     		strb	r3, [r7, #13]
 175:time_manager.c **** 
 176:time_manager.c **** 	byte = rtc_i2c_MasterReadByte(1);
 668              		.loc 1 176 0
 669 00e0 0120     		movs	r0, #1
 670 00e2 FFF7FEFF 		bl	rtc_i2c_MasterReadByte
 671 00e6 0346     		mov	r3, r0
 672 00e8 FB77     		strb	r3, [r7, #31]
 177:time_manager.c **** 	tmp_time.month = byte & 0x0F; // Month/Century 
 673              		.loc 1 177 0
 674 00ea FB7F     		ldrb	r3, [r7, #31]
 675 00ec 03F00F03 		and	r3, r3, #15
 676 00f0 DBB2     		uxtb	r3, r3
 677 00f2 3B73     		strb	r3, [r7, #12]
 178:time_manager.c **** 	tmp_time.month += 10 * ((byte & 0x01) >> 4); // 10 Month
ARM GAS  D:\Windows\AppData\Local\Temp\cc1UMzeL.s 			page 16


 678              		.loc 1 178 0
 679 00f4 3B7B     		ldrb	r3, [r7, #12]	@ zero_extendqisi2
 680 00f6 3B73     		strb	r3, [r7, #12]
 179:time_manager.c **** 
 180:time_manager.c **** 	byte = rtc_i2c_MasterReadByte(0);
 681              		.loc 1 180 0
 682 00f8 0020     		movs	r0, #0
 683 00fa FFF7FEFF 		bl	rtc_i2c_MasterReadByte
 684 00fe 0346     		mov	r3, r0
 685 0100 FB77     		strb	r3, [r7, #31]
 181:time_manager.c **** 	tmp_time.year = byte & 0x0F; // Year
 686              		.loc 1 181 0
 687 0102 FB7F     		ldrb	r3, [r7, #31]	@ zero_extendqisi2
 688 0104 9BB2     		uxth	r3, r3
 689 0106 03F00F03 		and	r3, r3, #15
 690 010a 9BB2     		uxth	r3, r3
 691 010c 3B83     		strh	r3, [r7, #24]	@ movhi
 182:time_manager.c **** 	tmp_time.year += 10 * (byte >> 4); // 10 Years
 692              		.loc 1 182 0
 693 010e 3A8B     		ldrh	r2, [r7, #24]
 694 0110 FB7F     		ldrb	r3, [r7, #31]	@ zero_extendqisi2
 695 0112 1B09     		lsrs	r3, r3, #4
 696 0114 DBB2     		uxtb	r3, r3
 697 0116 9BB2     		uxth	r3, r3
 698 0118 1946     		mov	r1, r3	@ movhi
 699 011a 8900     		lsls	r1, r1, #2
 700 011c 0B44     		add	r3, r3, r1
 701 011e 5B00     		lsls	r3, r3, #1
 702 0120 9BB2     		uxth	r3, r3
 703 0122 1344     		add	r3, r3, r2
 704 0124 9BB2     		uxth	r3, r3
 705 0126 3B83     		strh	r3, [r7, #24]	@ movhi
 183:time_manager.c ****     tmp_time.year += 0x7D0;     // add year 2000;
 706              		.loc 1 183 0
 707 0128 3B8B     		ldrh	r3, [r7, #24]
 708 012a 03F5FA63 		add	r3, r3, #2000
 709 012e 9BB2     		uxth	r3, r3
 710 0130 3B83     		strh	r3, [r7, #24]	@ movhi
 184:time_manager.c **** 	rtc_i2c_MasterSendStop(); // End Receiving
 711              		.loc 1 184 0
 712 0132 FFF7FEFF 		bl	rtc_i2c_MasterSendStop
 185:time_manager.c **** 
 186:time_manager.c ****     tmp_time.millicounter = millis_timer_ReadCounter();
 713              		.loc 1 186 0
 714 0136 FFF7FEFF 		bl	millis_timer_ReadCounter
 715 013a 0346     		mov	r3, r0
 716 013c 7B61     		str	r3, [r7, #20]
 187:time_manager.c **** 
 188:time_manager.c **** 	return tmp_time; 
 717              		.loc 1 188 0
 718 013e 7B68     		ldr	r3, [r7, #4]
 719 0140 1C46     		mov	r4, r3
 720 0142 07F10C03 		add	r3, r7, #12
 721 0146 0FCB     		ldmia	r3, {r0, r1, r2, r3}
 722 0148 84E80F00 		stmia	r4, {r0, r1, r2, r3}
 189:time_manager.c **** } // time_retreive()
 723              		.loc 1 189 0
ARM GAS  D:\Windows\AppData\Local\Temp\cc1UMzeL.s 			page 17


 724 014c 7868     		ldr	r0, [r7, #4]
 725 014e 2437     		adds	r7, r7, #36
 726              		.cfi_def_cfa_offset 12
 727 0150 BD46     		mov	sp, r7
 728              		.cfi_def_cfa_register 13
 729              		@ sp needed
 730 0152 90BD     		pop	{r4, r7, pc}
 731              		.cfi_endproc
 732              	.LFE68:
 733              		.size	time_retreive, .-time_retreive
 734              		.text
 735              	.Letext0:
 736              		.file 2 "d:\\programming\\cypress\\psoc creator\\4.0\\psoc creator\\import\\gnu\\arm\\4.9.3\\arm-n
 737              		.file 3 "d:\\programming\\cypress\\psoc creator\\4.0\\psoc creator\\import\\gnu\\arm\\4.9.3\\arm-n
 738              		.file 4 "data.h"
 739              		.file 5 "time_manager.h"
 740              		.file 6 "Generated_Source\\PSoC5/core_cm3.h"